ARM GAS  C:\Users\student\AppData\Local\Temp\cc1odf9I.s 			page 1


   1              		.syntax unified
   2              		.cpu cortex-m3
   3              		.fpu softvfp
   4              		.eabi_attribute 20, 1
   5              		.eabi_attribute 21, 1
   6              		.eabi_attribute 23, 3
   7              		.eabi_attribute 24, 1
   8              		.eabi_attribute 25, 1
   9              		.eabi_attribute 26, 1
  10              		.eabi_attribute 30, 1
  11              		.eabi_attribute 34, 1
  12              		.eabi_attribute 18, 4
  13              		.thumb
  14              		.file	"cyfitter_cfg.c"
  15              		.text
  16              	.Ltext0:
  17              		.cfi_sections	.debug_frame
  18              		.section	.text.CyClockStartupError,"ax",%progbits
  19              		.align	2
  20              		.thumb
  21              		.thumb_func
  22              		.type	CyClockStartupError, %function
  23              	CyClockStartupError:
  24              	.LFB3:
  25              		.file 1 ".\\Generated_Source\\PSoC5\\cyfitter_cfg.c"
   1:.\Generated_Source\PSoC5/cyfitter_cfg.c **** /*******************************************************************************
   2:.\Generated_Source\PSoC5/cyfitter_cfg.c **** * File Name: cyfitter_cfg.c
   3:.\Generated_Source\PSoC5/cyfitter_cfg.c **** * 
   4:.\Generated_Source\PSoC5/cyfitter_cfg.c **** * PSoC Creator  3.3 CP3
   5:.\Generated_Source\PSoC5/cyfitter_cfg.c **** *
   6:.\Generated_Source\PSoC5/cyfitter_cfg.c **** * Description:
   7:.\Generated_Source\PSoC5/cyfitter_cfg.c **** * This file contains device initialization code.
   8:.\Generated_Source\PSoC5/cyfitter_cfg.c **** * Except for the user defined sections in CyClockStartupError(), this file should not be modified.
   9:.\Generated_Source\PSoC5/cyfitter_cfg.c **** * This file is automatically generated by PSoC Creator.
  10:.\Generated_Source\PSoC5/cyfitter_cfg.c **** *
  11:.\Generated_Source\PSoC5/cyfitter_cfg.c **** ********************************************************************************
  12:.\Generated_Source\PSoC5/cyfitter_cfg.c **** * Copyright (c) 2007-2016 Cypress Semiconductor.  All rights reserved.
  13:.\Generated_Source\PSoC5/cyfitter_cfg.c **** * You may use this file only in accordance with the license, terms, conditions, 
  14:.\Generated_Source\PSoC5/cyfitter_cfg.c **** * disclaimers, and limitations in the end user license agreement accompanying 
  15:.\Generated_Source\PSoC5/cyfitter_cfg.c **** * the software package with which this file was provided.
  16:.\Generated_Source\PSoC5/cyfitter_cfg.c **** ********************************************************************************/
  17:.\Generated_Source\PSoC5/cyfitter_cfg.c **** 
  18:.\Generated_Source\PSoC5/cyfitter_cfg.c **** #include <string.h>
  19:.\Generated_Source\PSoC5/cyfitter_cfg.c **** #include "cytypes.h"
  20:.\Generated_Source\PSoC5/cyfitter_cfg.c **** #include "cydevice_trm.h"
  21:.\Generated_Source\PSoC5/cyfitter_cfg.c **** #include "cyfitter.h"
  22:.\Generated_Source\PSoC5/cyfitter_cfg.c **** #include "CyLib.h"
  23:.\Generated_Source\PSoC5/cyfitter_cfg.c **** #include "cyfitter_cfg.h"
  24:.\Generated_Source\PSoC5/cyfitter_cfg.c **** 
  25:.\Generated_Source\PSoC5/cyfitter_cfg.c **** #define CY_NEED_CYCLOCKSTARTUPERROR 1
  26:.\Generated_Source\PSoC5/cyfitter_cfg.c **** 
  27:.\Generated_Source\PSoC5/cyfitter_cfg.c **** 
  28:.\Generated_Source\PSoC5/cyfitter_cfg.c **** #if defined(__GNUC__) || defined(__ARMCC_VERSION)
  29:.\Generated_Source\PSoC5/cyfitter_cfg.c ****     #define CYPACKED 
  30:.\Generated_Source\PSoC5/cyfitter_cfg.c ****     #define CYPACKED_ATTR __attribute__ ((packed))
  31:.\Generated_Source\PSoC5/cyfitter_cfg.c ****     #define CYALIGNED __attribute__ ((aligned))
  32:.\Generated_Source\PSoC5/cyfitter_cfg.c ****     #define CY_CFG_UNUSED __attribute__ ((unused))
ARM GAS  C:\Users\student\AppData\Local\Temp\cc1odf9I.s 			page 2


  33:.\Generated_Source\PSoC5/cyfitter_cfg.c ****     #ifndef CY_CFG_SECTION
  34:.\Generated_Source\PSoC5/cyfitter_cfg.c ****         #define CY_CFG_SECTION __attribute__ ((section(".psocinit")))
  35:.\Generated_Source\PSoC5/cyfitter_cfg.c ****     #endif
  36:.\Generated_Source\PSoC5/cyfitter_cfg.c ****     
  37:.\Generated_Source\PSoC5/cyfitter_cfg.c ****     #if defined(__ARMCC_VERSION)
  38:.\Generated_Source\PSoC5/cyfitter_cfg.c ****         #define CY_CFG_MEMORY_BARRIER() __memory_changed()
  39:.\Generated_Source\PSoC5/cyfitter_cfg.c ****     #else
  40:.\Generated_Source\PSoC5/cyfitter_cfg.c ****         #define CY_CFG_MEMORY_BARRIER() __sync_synchronize()
  41:.\Generated_Source\PSoC5/cyfitter_cfg.c ****     #endif
  42:.\Generated_Source\PSoC5/cyfitter_cfg.c ****     
  43:.\Generated_Source\PSoC5/cyfitter_cfg.c **** #elif defined(__ICCARM__)
  44:.\Generated_Source\PSoC5/cyfitter_cfg.c ****     #include <intrinsics.h>
  45:.\Generated_Source\PSoC5/cyfitter_cfg.c **** 
  46:.\Generated_Source\PSoC5/cyfitter_cfg.c ****     #define CYPACKED __packed
  47:.\Generated_Source\PSoC5/cyfitter_cfg.c ****     #define CYPACKED_ATTR 
  48:.\Generated_Source\PSoC5/cyfitter_cfg.c ****     #define CYALIGNED _Pragma("data_alignment=4")
  49:.\Generated_Source\PSoC5/cyfitter_cfg.c ****     #define CY_CFG_UNUSED _Pragma("diag_suppress=Pe177")
  50:.\Generated_Source\PSoC5/cyfitter_cfg.c ****     #define CY_CFG_SECTION _Pragma("location=\".psocinit\"")
  51:.\Generated_Source\PSoC5/cyfitter_cfg.c ****     
  52:.\Generated_Source\PSoC5/cyfitter_cfg.c ****     #define CY_CFG_MEMORY_BARRIER() __DMB()
  53:.\Generated_Source\PSoC5/cyfitter_cfg.c ****     
  54:.\Generated_Source\PSoC5/cyfitter_cfg.c **** #else
  55:.\Generated_Source\PSoC5/cyfitter_cfg.c ****     #error Unsupported toolchain
  56:.\Generated_Source\PSoC5/cyfitter_cfg.c **** #endif
  57:.\Generated_Source\PSoC5/cyfitter_cfg.c **** 
  58:.\Generated_Source\PSoC5/cyfitter_cfg.c **** 
  59:.\Generated_Source\PSoC5/cyfitter_cfg.c **** CY_CFG_UNUSED
  60:.\Generated_Source\PSoC5/cyfitter_cfg.c **** static void CYMEMZERO(void *s, size_t n);
  61:.\Generated_Source\PSoC5/cyfitter_cfg.c **** CY_CFG_UNUSED
  62:.\Generated_Source\PSoC5/cyfitter_cfg.c **** static void CYMEMZERO(void *s, size_t n)
  63:.\Generated_Source\PSoC5/cyfitter_cfg.c **** {
  64:.\Generated_Source\PSoC5/cyfitter_cfg.c **** 	(void)memset(s, 0, n);
  65:.\Generated_Source\PSoC5/cyfitter_cfg.c **** }
  66:.\Generated_Source\PSoC5/cyfitter_cfg.c **** CY_CFG_UNUSED
  67:.\Generated_Source\PSoC5/cyfitter_cfg.c **** static void CYCONFIGCPY(void *dest, const void *src, size_t n);
  68:.\Generated_Source\PSoC5/cyfitter_cfg.c **** CY_CFG_UNUSED
  69:.\Generated_Source\PSoC5/cyfitter_cfg.c **** static void CYCONFIGCPY(void *dest, const void *src, size_t n)
  70:.\Generated_Source\PSoC5/cyfitter_cfg.c **** {
  71:.\Generated_Source\PSoC5/cyfitter_cfg.c **** 	(void)memcpy(dest, src, n);
  72:.\Generated_Source\PSoC5/cyfitter_cfg.c **** }
  73:.\Generated_Source\PSoC5/cyfitter_cfg.c **** CY_CFG_UNUSED
  74:.\Generated_Source\PSoC5/cyfitter_cfg.c **** static void CYCONFIGCPYCODE(void *dest, const void *src, size_t n);
  75:.\Generated_Source\PSoC5/cyfitter_cfg.c **** CY_CFG_UNUSED
  76:.\Generated_Source\PSoC5/cyfitter_cfg.c **** static void CYCONFIGCPYCODE(void *dest, const void *src, size_t n)
  77:.\Generated_Source\PSoC5/cyfitter_cfg.c **** {
  78:.\Generated_Source\PSoC5/cyfitter_cfg.c **** 	(void)memcpy(dest, src, n);
  79:.\Generated_Source\PSoC5/cyfitter_cfg.c **** }
  80:.\Generated_Source\PSoC5/cyfitter_cfg.c **** 
  81:.\Generated_Source\PSoC5/cyfitter_cfg.c **** 
  82:.\Generated_Source\PSoC5/cyfitter_cfg.c **** 
  83:.\Generated_Source\PSoC5/cyfitter_cfg.c **** /* Clock startup error codes                                                   */
  84:.\Generated_Source\PSoC5/cyfitter_cfg.c **** #define CYCLOCKSTART_NO_ERROR    0u
  85:.\Generated_Source\PSoC5/cyfitter_cfg.c **** #define CYCLOCKSTART_XTAL_ERROR  1u
  86:.\Generated_Source\PSoC5/cyfitter_cfg.c **** #define CYCLOCKSTART_32KHZ_ERROR 2u
  87:.\Generated_Source\PSoC5/cyfitter_cfg.c **** #define CYCLOCKSTART_PLL_ERROR   3u
  88:.\Generated_Source\PSoC5/cyfitter_cfg.c **** 
  89:.\Generated_Source\PSoC5/cyfitter_cfg.c **** #ifdef CY_NEED_CYCLOCKSTARTUPERROR
ARM GAS  C:\Users\student\AppData\Local\Temp\cc1odf9I.s 			page 3


  90:.\Generated_Source\PSoC5/cyfitter_cfg.c **** /*******************************************************************************
  91:.\Generated_Source\PSoC5/cyfitter_cfg.c **** * Function Name: CyClockStartupError
  92:.\Generated_Source\PSoC5/cyfitter_cfg.c **** ********************************************************************************
  93:.\Generated_Source\PSoC5/cyfitter_cfg.c **** * Summary:
  94:.\Generated_Source\PSoC5/cyfitter_cfg.c **** *  If an error is encountered during clock configuration (crystal startup error,
  95:.\Generated_Source\PSoC5/cyfitter_cfg.c **** *  PLL lock error, etc.), the system will end up here.  Unless reimplemented by
  96:.\Generated_Source\PSoC5/cyfitter_cfg.c **** *  the customer, this function will stop in an infinite loop.
  97:.\Generated_Source\PSoC5/cyfitter_cfg.c **** *
  98:.\Generated_Source\PSoC5/cyfitter_cfg.c **** * Parameters:
  99:.\Generated_Source\PSoC5/cyfitter_cfg.c **** *   void
 100:.\Generated_Source\PSoC5/cyfitter_cfg.c **** *
 101:.\Generated_Source\PSoC5/cyfitter_cfg.c **** * Return:
 102:.\Generated_Source\PSoC5/cyfitter_cfg.c **** *   void
 103:.\Generated_Source\PSoC5/cyfitter_cfg.c **** *
 104:.\Generated_Source\PSoC5/cyfitter_cfg.c **** *******************************************************************************/
 105:.\Generated_Source\PSoC5/cyfitter_cfg.c **** CY_CFG_UNUSED
 106:.\Generated_Source\PSoC5/cyfitter_cfg.c **** static void CyClockStartupError(uint8 errorCode);
 107:.\Generated_Source\PSoC5/cyfitter_cfg.c **** CY_CFG_UNUSED
 108:.\Generated_Source\PSoC5/cyfitter_cfg.c **** static void CyClockStartupError(uint8 errorCode)
 109:.\Generated_Source\PSoC5/cyfitter_cfg.c **** {
  26              		.loc 1 109 0
  27              		.cfi_startproc
  28              		@ Volatile: function does not return.
  29              		@ args = 0, pretend = 0, frame = 0
  30              		@ frame_needed = 0, uses_anonymous_args = 0
  31              		@ link register save eliminated.
  32              	.LVL0:
  33              	.L2:
 110:.\Generated_Source\PSoC5/cyfitter_cfg.c ****     /* To remove the compiler warning if errorCode not used.                */
 111:.\Generated_Source\PSoC5/cyfitter_cfg.c ****     errorCode = errorCode;
 112:.\Generated_Source\PSoC5/cyfitter_cfg.c **** 
 113:.\Generated_Source\PSoC5/cyfitter_cfg.c ****     /* `#START CyClockStartupError` */
 114:.\Generated_Source\PSoC5/cyfitter_cfg.c **** 
 115:.\Generated_Source\PSoC5/cyfitter_cfg.c ****     /* If we have a clock startup error (bad MHz crystal, PLL lock, etc.),  */
 116:.\Generated_Source\PSoC5/cyfitter_cfg.c ****     /* we will end up here to allow the customer to implement something to  */
 117:.\Generated_Source\PSoC5/cyfitter_cfg.c ****     /* deal with the clock condition.                                       */
 118:.\Generated_Source\PSoC5/cyfitter_cfg.c **** 
 119:.\Generated_Source\PSoC5/cyfitter_cfg.c ****     /* `#END` */
 120:.\Generated_Source\PSoC5/cyfitter_cfg.c **** 
 121:.\Generated_Source\PSoC5/cyfitter_cfg.c ****     /* If nothing else, stop here since the clocks have not started         */
 122:.\Generated_Source\PSoC5/cyfitter_cfg.c ****     /* correctly.                                                           */
 123:.\Generated_Source\PSoC5/cyfitter_cfg.c ****     while(1) {}
  34              		.loc 1 123 0 discriminator 1
  35 0000 FEE7     		b	.L2
  36              		.cfi_endproc
  37              	.LFE3:
  38              		.size	CyClockStartupError, .-CyClockStartupError
  39 0002 00BF     		.section	.text.cfg_write_bytes32,"ax",%progbits
  40              		.align	2
  41              		.thumb
  42              		.thumb_func
  43              		.type	cfg_write_bytes32, %function
  44              	cfg_write_bytes32:
  45              	.LFB4:
 124:.\Generated_Source\PSoC5/cyfitter_cfg.c **** }
 125:.\Generated_Source\PSoC5/cyfitter_cfg.c **** #endif
 126:.\Generated_Source\PSoC5/cyfitter_cfg.c **** 
ARM GAS  C:\Users\student\AppData\Local\Temp\cc1odf9I.s 			page 4


 127:.\Generated_Source\PSoC5/cyfitter_cfg.c **** #define CY_CFG_BASE_ADDR_COUNT 42u
 128:.\Generated_Source\PSoC5/cyfitter_cfg.c **** CYPACKED typedef struct
 129:.\Generated_Source\PSoC5/cyfitter_cfg.c **** {
 130:.\Generated_Source\PSoC5/cyfitter_cfg.c **** 	uint8 offset;
 131:.\Generated_Source\PSoC5/cyfitter_cfg.c **** 	uint8 value;
 132:.\Generated_Source\PSoC5/cyfitter_cfg.c **** } CYPACKED_ATTR cy_cfg_addrvalue_t;
 133:.\Generated_Source\PSoC5/cyfitter_cfg.c **** 
 134:.\Generated_Source\PSoC5/cyfitter_cfg.c **** #define cy_cfg_addr_table ((const uint32 CYFAR *)0x48000000u)
 135:.\Generated_Source\PSoC5/cyfitter_cfg.c **** #define cy_cfg_data_table ((const cy_cfg_addrvalue_t CYFAR *)0x480000A8u)
 136:.\Generated_Source\PSoC5/cyfitter_cfg.c **** 
 137:.\Generated_Source\PSoC5/cyfitter_cfg.c **** /* IOPORT_7 Address: CYDEV_PRTDSI_PRT12_BASE Size (bytes): 6 */
 138:.\Generated_Source\PSoC5/cyfitter_cfg.c **** #define BS_IOPORT_7_VAL ((const uint8 CYFAR *)0x48000D2Cu)
 139:.\Generated_Source\PSoC5/cyfitter_cfg.c **** 
 140:.\Generated_Source\PSoC5/cyfitter_cfg.c **** /* UCFG_BCTL0 Address: CYREG_BCTL0_MDCLK_EN Size (bytes): 16 */
 141:.\Generated_Source\PSoC5/cyfitter_cfg.c **** #define BS_UCFG_BCTL0_VAL ((const uint8 CYFAR *)0x48000D34u)
 142:.\Generated_Source\PSoC5/cyfitter_cfg.c **** 
 143:.\Generated_Source\PSoC5/cyfitter_cfg.c **** /* IOPINS0_0 Address: CYREG_PRT0_DM0 Size (bytes): 8 */
 144:.\Generated_Source\PSoC5/cyfitter_cfg.c **** #define BS_IOPINS0_0_VAL ((const uint8 CYFAR *)0x48000D44u)
 145:.\Generated_Source\PSoC5/cyfitter_cfg.c **** 
 146:.\Generated_Source\PSoC5/cyfitter_cfg.c **** /* IOPINS0_7 Address: CYREG_PRT12_DR Size (bytes): 10 */
 147:.\Generated_Source\PSoC5/cyfitter_cfg.c **** #define BS_IOPINS0_7_VAL ((const uint8 CYFAR *)0x48000D4Cu)
 148:.\Generated_Source\PSoC5/cyfitter_cfg.c **** 
 149:.\Generated_Source\PSoC5/cyfitter_cfg.c **** /* IOPINS0_8 Address: CYREG_PRT15_DM0 Size (bytes): 8 */
 150:.\Generated_Source\PSoC5/cyfitter_cfg.c **** #define BS_IOPINS0_8_VAL ((const uint8 CYFAR *)0x48000D58u)
 151:.\Generated_Source\PSoC5/cyfitter_cfg.c **** 
 152:.\Generated_Source\PSoC5/cyfitter_cfg.c **** /* IOPINS0_1 Address: CYREG_PRT1_DM0 Size (bytes): 8 */
 153:.\Generated_Source\PSoC5/cyfitter_cfg.c **** #define BS_IOPINS0_1_VAL ((const uint8 CYFAR *)0x48000D60u)
 154:.\Generated_Source\PSoC5/cyfitter_cfg.c **** 
 155:.\Generated_Source\PSoC5/cyfitter_cfg.c **** /* IOPINS0_2 Address: CYREG_PRT2_DM0 Size (bytes): 8 */
 156:.\Generated_Source\PSoC5/cyfitter_cfg.c **** #define BS_IOPINS0_2_VAL ((const uint8 CYFAR *)0x48000D68u)
 157:.\Generated_Source\PSoC5/cyfitter_cfg.c **** 
 158:.\Generated_Source\PSoC5/cyfitter_cfg.c **** /* CYDEV_CLKDIST_ACFG0_CFG0 Address: CYREG_CLKDIST_ACFG0_CFG0 Size (bytes): 4 */
 159:.\Generated_Source\PSoC5/cyfitter_cfg.c **** #define BS_CYDEV_CLKDIST_ACFG0_CFG0_VAL ((const uint8 CYFAR *)0x48000D70u)
 160:.\Generated_Source\PSoC5/cyfitter_cfg.c **** 
 161:.\Generated_Source\PSoC5/cyfitter_cfg.c **** 
 162:.\Generated_Source\PSoC5/cyfitter_cfg.c **** /*******************************************************************************
 163:.\Generated_Source\PSoC5/cyfitter_cfg.c **** * Function Name: cfg_write_bytes32
 164:.\Generated_Source\PSoC5/cyfitter_cfg.c **** ********************************************************************************
 165:.\Generated_Source\PSoC5/cyfitter_cfg.c **** * Summary:
 166:.\Generated_Source\PSoC5/cyfitter_cfg.c **** *  This function is used for setting up the chip configuration areas that
 167:.\Generated_Source\PSoC5/cyfitter_cfg.c **** *  contain relatively sparse data.
 168:.\Generated_Source\PSoC5/cyfitter_cfg.c **** *
 169:.\Generated_Source\PSoC5/cyfitter_cfg.c **** * Parameters:
 170:.\Generated_Source\PSoC5/cyfitter_cfg.c **** *   void
 171:.\Generated_Source\PSoC5/cyfitter_cfg.c **** *
 172:.\Generated_Source\PSoC5/cyfitter_cfg.c **** * Return:
 173:.\Generated_Source\PSoC5/cyfitter_cfg.c **** *   void
 174:.\Generated_Source\PSoC5/cyfitter_cfg.c **** *
 175:.\Generated_Source\PSoC5/cyfitter_cfg.c **** *******************************************************************************/
 176:.\Generated_Source\PSoC5/cyfitter_cfg.c **** static void cfg_write_bytes32(const uint32 addr_table[], const cy_cfg_addrvalue_t data_table[]);
 177:.\Generated_Source\PSoC5/cyfitter_cfg.c **** static void cfg_write_bytes32(const uint32 addr_table[], const cy_cfg_addrvalue_t data_table[])
 178:.\Generated_Source\PSoC5/cyfitter_cfg.c **** {
  46              		.loc 1 178 0
  47              		.cfi_startproc
  48              		@ args = 0, pretend = 0, frame = 0
  49              		@ frame_needed = 0, uses_anonymous_args = 0
  50              		@ link register save eliminated.
ARM GAS  C:\Users\student\AppData\Local\Temp\cc1odf9I.s 			page 5


  51              	.LVL1:
  52 0000 F0B4     		push	{r4, r5, r6, r7}
  53              		.cfi_def_cfa_offset 16
  54              		.cfi_offset 4, -16
  55              		.cfi_offset 5, -12
  56              		.cfi_offset 6, -8
  57              		.cfi_offset 7, -4
  58              	.LVL2:
 179:.\Generated_Source\PSoC5/cyfitter_cfg.c **** 	/* For 32-bit little-endian architectures */
 180:.\Generated_Source\PSoC5/cyfitter_cfg.c **** 	uint32 i, j = 0u;
  59              		.loc 1 180 0
  60 0002 0022     		movs	r2, #0
 181:.\Generated_Source\PSoC5/cyfitter_cfg.c **** 	for (i = 0u; i < CY_CFG_BASE_ADDR_COUNT; i++)
  61              		.loc 1 181 0
  62 0004 1746     		mov	r7, r2
  63 0006 11E0     		b	.L4
  64              	.LVL3:
  65              	.L7:
  66              	.LBB2:
 182:.\Generated_Source\PSoC5/cyfitter_cfg.c **** 	{
 183:.\Generated_Source\PSoC5/cyfitter_cfg.c **** 		uint32 baseAddr = addr_table[i];
  67              		.loc 1 183 0
  68 0008 50F82760 		ldr	r6, [r0, r7, lsl #2]
  69              	.LVL4:
 184:.\Generated_Source\PSoC5/cyfitter_cfg.c **** 		uint8 count = (uint8)baseAddr;
  70              		.loc 1 184 0
  71 000c F3B2     		uxtb	r3, r6
  72              	.LVL5:
 185:.\Generated_Source\PSoC5/cyfitter_cfg.c **** 		baseAddr &= 0xFFFFFF00u;
  73              		.loc 1 185 0
  74 000e 26F0FF06 		bic	r6, r6, #255
  75              	.LVL6:
 186:.\Generated_Source\PSoC5/cyfitter_cfg.c **** 		while (count != 0u)
  76              		.loc 1 186 0
  77 0012 08E0     		b	.L5
  78              	.L6:
 187:.\Generated_Source\PSoC5/cyfitter_cfg.c **** 		{
 188:.\Generated_Source\PSoC5/cyfitter_cfg.c **** 			CY_SET_XTND_REG8((void CYFAR *)(baseAddr + data_table[j].offset), data_table[j].value);
  79              		.loc 1 188 0
  80 0014 01EB4205 		add	r5, r1, r2, lsl #1
  81 0018 11F81240 		ldrb	r4, [r1, r2, lsl #1]	@ zero_extendqisi2
  82 001c 6D78     		ldrb	r5, [r5, #1]	@ zero_extendqisi2
  83 001e A555     		strb	r5, [r4, r6]
 189:.\Generated_Source\PSoC5/cyfitter_cfg.c **** 			j++;
  84              		.loc 1 189 0
  85 0020 0132     		adds	r2, r2, #1
  86              	.LVL7:
 190:.\Generated_Source\PSoC5/cyfitter_cfg.c **** 			count--;
  87              		.loc 1 190 0
  88 0022 013B     		subs	r3, r3, #1
  89              	.LVL8:
  90 0024 DBB2     		uxtb	r3, r3
  91              	.LVL9:
  92              	.L5:
 186:.\Generated_Source\PSoC5/cyfitter_cfg.c **** 		{
  93              		.loc 1 186 0
  94 0026 002B     		cmp	r3, #0
ARM GAS  C:\Users\student\AppData\Local\Temp\cc1odf9I.s 			page 6


  95 0028 F4D1     		bne	.L6
  96              	.LBE2:
 181:.\Generated_Source\PSoC5/cyfitter_cfg.c **** 	{
  97              		.loc 1 181 0 discriminator 2
  98 002a 0137     		adds	r7, r7, #1
  99              	.LVL10:
 100              	.L4:
 181:.\Generated_Source\PSoC5/cyfitter_cfg.c **** 	{
 101              		.loc 1 181 0 is_stmt 0 discriminator 1
 102 002c 292F     		cmp	r7, #41
 103 002e EBD9     		bls	.L7
 191:.\Generated_Source\PSoC5/cyfitter_cfg.c **** 		}
 192:.\Generated_Source\PSoC5/cyfitter_cfg.c **** 	}
 193:.\Generated_Source\PSoC5/cyfitter_cfg.c **** }
 104              		.loc 1 193 0 is_stmt 1
 105 0030 F0BC     		pop	{r4, r5, r6, r7}
 106              		.cfi_restore 7
 107              		.cfi_restore 6
 108              		.cfi_restore 5
 109              		.cfi_restore 4
 110              		.cfi_def_cfa_offset 0
 111              	.LVL11:
 112 0032 7047     		bx	lr
 113              		.cfi_endproc
 114              	.LFE4:
 115              		.size	cfg_write_bytes32, .-cfg_write_bytes32
 116              		.section	.text.CYMEMZERO,"ax",%progbits
 117              		.align	2
 118              		.thumb
 119              		.thumb_func
 120              		.type	CYMEMZERO, %function
 121              	CYMEMZERO:
 122              	.LFB0:
  63:.\Generated_Source\PSoC5/cyfitter_cfg.c **** 	(void)memset(s, 0, n);
 123              		.loc 1 63 0
 124              		.cfi_startproc
 125              		@ args = 0, pretend = 0, frame = 0
 126              		@ frame_needed = 0, uses_anonymous_args = 0
 127              	.LVL12:
 128 0000 08B5     		push	{r3, lr}
 129              		.cfi_def_cfa_offset 8
 130              		.cfi_offset 3, -8
 131              		.cfi_offset 14, -4
 132 0002 0A46     		mov	r2, r1
  64:.\Generated_Source\PSoC5/cyfitter_cfg.c **** }
 133              		.loc 1 64 0
 134 0004 0021     		movs	r1, #0
 135              	.LVL13:
 136 0006 FFF7FEFF 		bl	memset
 137              	.LVL14:
 138 000a 08BD     		pop	{r3, pc}
 139              		.cfi_endproc
 140              	.LFE0:
 141              		.size	CYMEMZERO, .-CYMEMZERO
 142              		.section	.text.AnalogSetDefault,"ax",%progbits
 143              		.align	2
 144              		.thumb
ARM GAS  C:\Users\student\AppData\Local\Temp\cc1odf9I.s 			page 7


 145              		.thumb_func
 146              		.type	AnalogSetDefault, %function
 147              	AnalogSetDefault:
 148              	.LFB6:
 194:.\Generated_Source\PSoC5/cyfitter_cfg.c **** 
 195:.\Generated_Source\PSoC5/cyfitter_cfg.c **** /*******************************************************************************
 196:.\Generated_Source\PSoC5/cyfitter_cfg.c **** * Function Name: ClockSetup
 197:.\Generated_Source\PSoC5/cyfitter_cfg.c **** ********************************************************************************
 198:.\Generated_Source\PSoC5/cyfitter_cfg.c **** *
 199:.\Generated_Source\PSoC5/cyfitter_cfg.c **** * Summary:
 200:.\Generated_Source\PSoC5/cyfitter_cfg.c **** *  Performs the initialization of all of the clocks in the device based on the
 201:.\Generated_Source\PSoC5/cyfitter_cfg.c **** *  settings in the Clock tab of the DWR.  This includes enabling the requested
 202:.\Generated_Source\PSoC5/cyfitter_cfg.c **** *  clocks and setting the necessary dividers to produce the desired frequency. 
 203:.\Generated_Source\PSoC5/cyfitter_cfg.c **** *
 204:.\Generated_Source\PSoC5/cyfitter_cfg.c **** * Parameters:
 205:.\Generated_Source\PSoC5/cyfitter_cfg.c **** *  void
 206:.\Generated_Source\PSoC5/cyfitter_cfg.c **** *
 207:.\Generated_Source\PSoC5/cyfitter_cfg.c **** * Return:
 208:.\Generated_Source\PSoC5/cyfitter_cfg.c **** *  void
 209:.\Generated_Source\PSoC5/cyfitter_cfg.c **** *
 210:.\Generated_Source\PSoC5/cyfitter_cfg.c **** *******************************************************************************/
 211:.\Generated_Source\PSoC5/cyfitter_cfg.c **** static void ClockSetup(void);
 212:.\Generated_Source\PSoC5/cyfitter_cfg.c **** static void ClockSetup(void)
 213:.\Generated_Source\PSoC5/cyfitter_cfg.c **** {
 214:.\Generated_Source\PSoC5/cyfitter_cfg.c **** 	uint32 timeout;
 215:.\Generated_Source\PSoC5/cyfitter_cfg.c **** 	uint8 pllLock;
 216:.\Generated_Source\PSoC5/cyfitter_cfg.c **** 
 217:.\Generated_Source\PSoC5/cyfitter_cfg.c **** 
 218:.\Generated_Source\PSoC5/cyfitter_cfg.c **** 	/* Configure Digital Clocks based on settings from Clock DWR */
 219:.\Generated_Source\PSoC5/cyfitter_cfg.c **** 	CY_SET_XTND_REG16((void CYFAR *)(CYREG_CLKDIST_DCFG0_CFG0), 0x0000u);
 220:.\Generated_Source\PSoC5/cyfitter_cfg.c **** 	CY_SET_XTND_REG8((void CYFAR *)(CYREG_CLKDIST_DCFG0_CFG0 + 0x2u), 0x50u);
 221:.\Generated_Source\PSoC5/cyfitter_cfg.c **** 	CY_SET_XTND_REG16((void CYFAR *)(CYREG_CLKDIST_DCFG1_CFG0), 0x0000u);
 222:.\Generated_Source\PSoC5/cyfitter_cfg.c **** 	CY_SET_XTND_REG8((void CYFAR *)(CYREG_CLKDIST_DCFG1_CFG0 + 0x2u), 0x58u);
 223:.\Generated_Source\PSoC5/cyfitter_cfg.c **** 	CY_SET_XTND_REG16((void CYFAR *)(CYREG_CLKDIST_DCFG2_CFG0), 0x0001u);
 224:.\Generated_Source\PSoC5/cyfitter_cfg.c **** 	CY_SET_XTND_REG8((void CYFAR *)(CYREG_CLKDIST_DCFG2_CFG0 + 0x2u), 0x18u);
 225:.\Generated_Source\PSoC5/cyfitter_cfg.c **** 	CY_SET_XTND_REG16((void CYFAR *)(CYREG_CLKDIST_DCFG3_CFG0), 0x0003u);
 226:.\Generated_Source\PSoC5/cyfitter_cfg.c **** 	CY_SET_XTND_REG8((void CYFAR *)(CYREG_CLKDIST_DCFG3_CFG0 + 0x2u), 0x18u);
 227:.\Generated_Source\PSoC5/cyfitter_cfg.c **** 	CY_SET_XTND_REG16((void CYFAR *)(CYREG_CLKDIST_DCFG4_CFG0), 0x000Bu);
 228:.\Generated_Source\PSoC5/cyfitter_cfg.c **** 	CY_SET_XTND_REG8((void CYFAR *)(CYREG_CLKDIST_DCFG4_CFG0 + 0x2u), 0x18u);
 229:.\Generated_Source\PSoC5/cyfitter_cfg.c **** 
 230:.\Generated_Source\PSoC5/cyfitter_cfg.c **** 	/* Configure Analog Clocks based on settings from Clock DWR */
 231:.\Generated_Source\PSoC5/cyfitter_cfg.c **** 	CYCONFIGCPY((void CYFAR *)(CYREG_CLKDIST_ACFG0_CFG0), (const void CYFAR *)(BS_CYDEV_CLKDIST_ACFG0_
 232:.\Generated_Source\PSoC5/cyfitter_cfg.c **** 
 233:.\Generated_Source\PSoC5/cyfitter_cfg.c **** 	/* Configure ILO based on settings from Clock DWR */
 234:.\Generated_Source\PSoC5/cyfitter_cfg.c **** 	CY_SET_XTND_REG8((void CYFAR *)(CYREG_SLOWCLK_ILO_CR0), 0x02u);
 235:.\Generated_Source\PSoC5/cyfitter_cfg.c **** 	CY_SET_XTND_REG8((void CYFAR *)(CYREG_CLKDIST_CR), 0x08u);
 236:.\Generated_Source\PSoC5/cyfitter_cfg.c **** 
 237:.\Generated_Source\PSoC5/cyfitter_cfg.c **** 	/* Configure IMO based on settings from Clock DWR */
 238:.\Generated_Source\PSoC5/cyfitter_cfg.c **** 	CY_SET_XTND_REG8((void CYFAR *)(CYREG_FASTCLK_IMO_CR), 0x03u);
 239:.\Generated_Source\PSoC5/cyfitter_cfg.c **** 	CY_SET_XTND_REG8((void CYFAR *)(CYREG_IMO_TR1), (CY_GET_XTND_REG8((void CYFAR *)CYREG_FLSHID_CUST_
 240:.\Generated_Source\PSoC5/cyfitter_cfg.c **** 
 241:.\Generated_Source\PSoC5/cyfitter_cfg.c **** 	/* Configure PLL based on settings from Clock DWR */
 242:.\Generated_Source\PSoC5/cyfitter_cfg.c **** 	CY_SET_XTND_REG16((void CYFAR *)(CYREG_FASTCLK_PLL_P), 0x0008u);
 243:.\Generated_Source\PSoC5/cyfitter_cfg.c **** 	CY_SET_XTND_REG16((void CYFAR *)(CYREG_FASTCLK_PLL_CFG0), 0x1251u);
 244:.\Generated_Source\PSoC5/cyfitter_cfg.c **** 	/* Wait up to 250us for the PLL to lock */
 245:.\Generated_Source\PSoC5/cyfitter_cfg.c **** 	pllLock = 0u;
 246:.\Generated_Source\PSoC5/cyfitter_cfg.c **** 	for (timeout = 250u / 10u; (timeout > 0u) && (pllLock != 0x03u); timeout--)
ARM GAS  C:\Users\student\AppData\Local\Temp\cc1odf9I.s 			page 8


 247:.\Generated_Source\PSoC5/cyfitter_cfg.c **** 	{ 
 248:.\Generated_Source\PSoC5/cyfitter_cfg.c **** 		pllLock = 0x03u & ((uint8)((uint8)pllLock << 1) | ((CY_GET_XTND_REG8((void CYFAR *)CYREG_FASTCLK_
 249:.\Generated_Source\PSoC5/cyfitter_cfg.c **** 		CyDelayCycles(10u * 48u); /* Delay 10us based on 48MHz clock */
 250:.\Generated_Source\PSoC5/cyfitter_cfg.c **** 	}
 251:.\Generated_Source\PSoC5/cyfitter_cfg.c **** 	/* If we ran out of time the PLL didn't lock so go to the error function */
 252:.\Generated_Source\PSoC5/cyfitter_cfg.c **** 	if (timeout == 0u)
 253:.\Generated_Source\PSoC5/cyfitter_cfg.c **** 	{
 254:.\Generated_Source\PSoC5/cyfitter_cfg.c **** 		CyClockStartupError(CYCLOCKSTART_PLL_ERROR);
 255:.\Generated_Source\PSoC5/cyfitter_cfg.c **** 	}
 256:.\Generated_Source\PSoC5/cyfitter_cfg.c **** 
 257:.\Generated_Source\PSoC5/cyfitter_cfg.c **** 	/* Configure Bus/Master Clock based on settings from Clock DWR */
 258:.\Generated_Source\PSoC5/cyfitter_cfg.c **** 	CY_SET_XTND_REG16((void CYFAR *)(CYREG_CLKDIST_MSTR0), 0x0100u);
 259:.\Generated_Source\PSoC5/cyfitter_cfg.c **** 	CY_SET_XTND_REG8((void CYFAR *)(CYREG_CLKDIST_MSTR0), 0x07u);
 260:.\Generated_Source\PSoC5/cyfitter_cfg.c **** 	CY_SET_XTND_REG8((void CYFAR *)(CYREG_CLKDIST_BCFG0), 0x00u);
 261:.\Generated_Source\PSoC5/cyfitter_cfg.c **** 	CY_SET_XTND_REG8((void CYFAR *)(CYREG_CLKDIST_BCFG2), 0x48u);
 262:.\Generated_Source\PSoC5/cyfitter_cfg.c **** 	CY_SET_XTND_REG8((void CYFAR *)(CYREG_CLKDIST_MSTR0), 0x00u);
 263:.\Generated_Source\PSoC5/cyfitter_cfg.c **** 	CY_SET_XTND_REG8((void CYFAR *)(CYREG_CLKDIST_LD), 0x02u);
 264:.\Generated_Source\PSoC5/cyfitter_cfg.c **** 	CY_SET_XTND_REG8((void CYFAR *)(CYREG_CLKDIST_DLY1), 0x04u);
 265:.\Generated_Source\PSoC5/cyfitter_cfg.c **** 
 266:.\Generated_Source\PSoC5/cyfitter_cfg.c **** 	CY_SET_XTND_REG8((void CYFAR *)(CYREG_PM_ACT_CFG2), ((CY_GET_XTND_REG8((void CYFAR *)CYREG_PM_ACT_
 267:.\Generated_Source\PSoC5/cyfitter_cfg.c **** 	CY_SET_XTND_REG8((void CYFAR *)(CYREG_PM_ACT_CFG1), ((CY_GET_XTND_REG8((void CYFAR *)CYREG_PM_ACT_
 268:.\Generated_Source\PSoC5/cyfitter_cfg.c **** 	CY_SET_XTND_REG8((void CYFAR *)(CYREG_PM_ACT_CFG0), ((CY_GET_XTND_REG8((void CYFAR *)CYREG_PM_ACT_
 269:.\Generated_Source\PSoC5/cyfitter_cfg.c **** }
 270:.\Generated_Source\PSoC5/cyfitter_cfg.c **** 
 271:.\Generated_Source\PSoC5/cyfitter_cfg.c **** 
 272:.\Generated_Source\PSoC5/cyfitter_cfg.c **** /* Analog API Functions */
 273:.\Generated_Source\PSoC5/cyfitter_cfg.c **** 
 274:.\Generated_Source\PSoC5/cyfitter_cfg.c **** 
 275:.\Generated_Source\PSoC5/cyfitter_cfg.c **** /*******************************************************************************
 276:.\Generated_Source\PSoC5/cyfitter_cfg.c **** * Function Name: AnalogSetDefault
 277:.\Generated_Source\PSoC5/cyfitter_cfg.c **** ********************************************************************************
 278:.\Generated_Source\PSoC5/cyfitter_cfg.c **** *
 279:.\Generated_Source\PSoC5/cyfitter_cfg.c **** * Summary:
 280:.\Generated_Source\PSoC5/cyfitter_cfg.c **** *  Sets up the analog portions of the chip to default values based on chip
 281:.\Generated_Source\PSoC5/cyfitter_cfg.c **** *  configuration options from the project.
 282:.\Generated_Source\PSoC5/cyfitter_cfg.c **** *
 283:.\Generated_Source\PSoC5/cyfitter_cfg.c **** * Parameters:
 284:.\Generated_Source\PSoC5/cyfitter_cfg.c **** *  void
 285:.\Generated_Source\PSoC5/cyfitter_cfg.c **** *
 286:.\Generated_Source\PSoC5/cyfitter_cfg.c **** * Return:
 287:.\Generated_Source\PSoC5/cyfitter_cfg.c **** *  void
 288:.\Generated_Source\PSoC5/cyfitter_cfg.c **** *
 289:.\Generated_Source\PSoC5/cyfitter_cfg.c **** *******************************************************************************/
 290:.\Generated_Source\PSoC5/cyfitter_cfg.c **** static void AnalogSetDefault(void);
 291:.\Generated_Source\PSoC5/cyfitter_cfg.c **** static void AnalogSetDefault(void)
 292:.\Generated_Source\PSoC5/cyfitter_cfg.c **** {
 149              		.loc 1 292 0
 150              		.cfi_startproc
 151              		@ args = 0, pretend = 0, frame = 0
 152              		@ frame_needed = 0, uses_anonymous_args = 0
 153 0000 F8B5     		push	{r3, r4, r5, r6, r7, lr}
 154              		.cfi_def_cfa_offset 24
 155              		.cfi_offset 3, -24
 156              		.cfi_offset 4, -20
 157              		.cfi_offset 5, -16
 158              		.cfi_offset 6, -12
 159              		.cfi_offset 7, -8
ARM GAS  C:\Users\student\AppData\Local\Temp\cc1odf9I.s 			page 9


 160              		.cfi_offset 14, -4
 293:.\Generated_Source\PSoC5/cyfitter_cfg.c **** 	uint8 bg_xover_inl_trim = CY_GET_XTND_REG8((void CYFAR *)(CYREG_FLSHID_MFG_CFG_BG_XOVER_INL_TRIM +
 161              		.loc 1 293 0
 162 0002 194B     		ldr	r3, .L13
 163 0004 1B78     		ldrb	r3, [r3]	@ zero_extendqisi2
 164 0006 DBB2     		uxtb	r3, r3
 165              	.LVL15:
 294:.\Generated_Source\PSoC5/cyfitter_cfg.c **** 	uint8 cr4 = CY_GET_XTND_REG8((void CYFAR *)(CYREG_RESET_CR4));
 166              		.loc 1 294 0
 167 0008 184E     		ldr	r6, .L13+4
 168 000a 3478     		ldrb	r4, [r6]	@ zero_extendqisi2
 169 000c E4B2     		uxtb	r4, r4
 170              	.LVL16:
 295:.\Generated_Source\PSoC5/cyfitter_cfg.c **** 	uint8 cr5 = CY_GET_XTND_REG8((void CYFAR *)(CYREG_RESET_CR5));
 171              		.loc 1 295 0
 172 000e 184F     		ldr	r7, .L13+8
 173 0010 3D78     		ldrb	r5, [r7]	@ zero_extendqisi2
 174 0012 EDB2     		uxtb	r5, r5
 175              	.LVL17:
 296:.\Generated_Source\PSoC5/cyfitter_cfg.c **** 	CY_SET_XTND_REG8((void CYFAR *)(CYREG_BG_DFT0), (bg_xover_inl_trim & 0x07u));
 176              		.loc 1 296 0
 177 0014 03F00701 		and	r1, r3, #7
 178 0018 164A     		ldr	r2, .L13+12
 179 001a 1170     		strb	r1, [r2]
 297:.\Generated_Source\PSoC5/cyfitter_cfg.c **** 	CY_SET_XTND_REG8((void CYFAR *)(CYREG_BG_DFT1), ((bg_xover_inl_trim >> 4) & 0x0Fu));
 180              		.loc 1 297 0
 181 001c 1B09     		lsrs	r3, r3, #4
 182              	.LVL18:
 183 001e 0132     		adds	r2, r2, #1
 184 0020 1370     		strb	r3, [r2]
 298:.\Generated_Source\PSoC5/cyfitter_cfg.c **** 	/* Disable PRES while setting up SAR voltage reference */
 299:.\Generated_Source\PSoC5/cyfitter_cfg.c **** 	CY_SET_XTND_REG8((void CYFAR *)(CYREG_RESET_CR4), (cr4 | 0x03u));
 185              		.loc 1 299 0
 186 0022 44F00303 		orr	r3, r4, #3
 187 0026 3370     		strb	r3, [r6]
 300:.\Generated_Source\PSoC5/cyfitter_cfg.c **** 	CY_SET_XTND_REG8((void CYFAR *)(CYREG_RESET_CR5), (cr5 | 0x03u));
 188              		.loc 1 300 0
 189 0028 45F00303 		orr	r3, r5, #3
 190 002c 3B70     		strb	r3, [r7]
 301:.\Generated_Source\PSoC5/cyfitter_cfg.c **** 	CY_SET_XTND_REG8((void CYFAR *)CYREG_PRT0_AG, 0x18u);
 191              		.loc 1 301 0
 192 002e 1822     		movs	r2, #24
 193 0030 114B     		ldr	r3, .L13+16
 194 0032 1A70     		strb	r2, [r3]
 302:.\Generated_Source\PSoC5/cyfitter_cfg.c **** 	CY_SET_XTND_REG8((void CYFAR *)CYREG_SAR1_CSR1, 0x40u);
 195              		.loc 1 302 0
 196 0034 4023     		movs	r3, #64
 197 0036 114A     		ldr	r2, .L13+20
 198 0038 1370     		strb	r3, [r2]
 303:.\Generated_Source\PSoC5/cyfitter_cfg.c **** 	CY_SET_XTND_REG8((void CYFAR *)CYREG_SAR1_CSR3, 0x40u);
 199              		.loc 1 303 0
 200 003a 0232     		adds	r2, r2, #2
 201 003c 1370     		strb	r3, [r2]
 304:.\Generated_Source\PSoC5/cyfitter_cfg.c **** 	CY_SET_XTND_REG8((void CYFAR *)CYREG_DSM0_SW0, 0x80u);
 202              		.loc 1 304 0
 203 003e 8022     		movs	r2, #128
 204 0040 0F4B     		ldr	r3, .L13+24
ARM GAS  C:\Users\student\AppData\Local\Temp\cc1odf9I.s 			page 10


 205 0042 1A70     		strb	r2, [r3]
 305:.\Generated_Source\PSoC5/cyfitter_cfg.c **** 	CY_SET_XTND_REG8((void CYFAR *)CYREG_SAR1_SW0, 0x10u);
 206              		.loc 1 305 0
 207 0044 1023     		movs	r3, #16
 208 0046 0F4A     		ldr	r2, .L13+28
 209 0048 1370     		strb	r3, [r2]
 306:.\Generated_Source\PSoC5/cyfitter_cfg.c **** 	CY_SET_XTND_REG8((void CYFAR *)CYREG_SAR1_SW3, 0x20u);
 210              		.loc 1 306 0
 211 004a 2021     		movs	r1, #32
 212 004c 0332     		adds	r2, r2, #3
 213 004e 1170     		strb	r1, [r2]
 307:.\Generated_Source\PSoC5/cyfitter_cfg.c **** 	CY_SET_XTND_REG8((void CYFAR *)CYREG_BUS_SW0, 0x10u);
 214              		.loc 1 307 0
 215 0050 2D32     		adds	r2, r2, #45
 216 0052 1370     		strb	r3, [r2]
 308:.\Generated_Source\PSoC5/cyfitter_cfg.c **** 	CyDelayUs(10u); /* Allow vref to settle before re-enabling PRES */
 217              		.loc 1 308 0
 218 0054 0A20     		movs	r0, #10
 219 0056 FFF7FEFF 		bl	CyDelayUs
 220              	.LVL19:
 309:.\Generated_Source\PSoC5/cyfitter_cfg.c **** 	CY_SET_XTND_REG8((void CYFAR *)(CYREG_RESET_CR5), (cr5));
 221              		.loc 1 309 0
 222 005a 3D70     		strb	r5, [r7]
 310:.\Generated_Source\PSoC5/cyfitter_cfg.c **** 	CY_SET_XTND_REG8((void CYFAR *)(CYREG_RESET_CR4), (cr4));
 223              		.loc 1 310 0
 224 005c 3470     		strb	r4, [r6]
 311:.\Generated_Source\PSoC5/cyfitter_cfg.c **** 	CY_SET_XTND_REG8((void CYFAR *)CYREG_PUMP_CR0, 0x44u);
 225              		.loc 1 311 0
 226 005e 4422     		movs	r2, #68
 227 0060 094B     		ldr	r3, .L13+32
 228 0062 1A70     		strb	r2, [r3]
 229 0064 F8BD     		pop	{r3, r4, r5, r6, r7, pc}
 230              	.LVL20:
 231              	.L14:
 232 0066 00BF     		.align	2
 233              	.L13:
 234 0068 CF010049 		.word	1224737231
 235 006c F8460040 		.word	1073759992
 236 0070 F9460040 		.word	1073759993
 237 0074 6E580040 		.word	1073764462
 238 0078 0D510040 		.word	1073762573
 239 007c 09590040 		.word	1073764617
 240 0080 005B0040 		.word	1073765120
 241 0084 285B0040 		.word	1073765160
 242 0088 76580040 		.word	1073764470
 243              		.cfi_endproc
 244              	.LFE6:
 245              		.size	AnalogSetDefault, .-AnalogSetDefault
 246              		.section	.text.CYCONFIGCPY,"ax",%progbits
 247              		.align	2
 248              		.thumb
 249              		.thumb_func
 250              		.type	CYCONFIGCPY, %function
 251              	CYCONFIGCPY:
 252              	.LFB1:
  70:.\Generated_Source\PSoC5/cyfitter_cfg.c **** 	(void)memcpy(dest, src, n);
 253              		.loc 1 70 0
ARM GAS  C:\Users\student\AppData\Local\Temp\cc1odf9I.s 			page 11


 254              		.cfi_startproc
 255              		@ args = 0, pretend = 0, frame = 0
 256              		@ frame_needed = 0, uses_anonymous_args = 0
 257              	.LVL21:
 258 0000 08B5     		push	{r3, lr}
 259              		.cfi_def_cfa_offset 8
 260              		.cfi_offset 3, -8
 261              		.cfi_offset 14, -4
  71:.\Generated_Source\PSoC5/cyfitter_cfg.c **** }
 262              		.loc 1 71 0
 263 0002 FFF7FEFF 		bl	memcpy
 264              	.LVL22:
 265 0006 08BD     		pop	{r3, pc}
 266              		.cfi_endproc
 267              	.LFE1:
 268              		.size	CYCONFIGCPY, .-CYCONFIGCPY
 269              		.section	.text.ClockSetup,"ax",%progbits
 270              		.align	2
 271              		.thumb
 272              		.thumb_func
 273              		.type	ClockSetup, %function
 274              	ClockSetup:
 275              	.LFB5:
 213:.\Generated_Source\PSoC5/cyfitter_cfg.c **** 	uint32 timeout;
 276              		.loc 1 213 0
 277              		.cfi_startproc
 278              		@ args = 0, pretend = 0, frame = 0
 279              		@ frame_needed = 0, uses_anonymous_args = 0
 280 0000 38B5     		push	{r3, r4, r5, lr}
 281              		.cfi_def_cfa_offset 16
 282              		.cfi_offset 3, -16
 283              		.cfi_offset 4, -12
 284              		.cfi_offset 5, -8
 285              		.cfi_offset 14, -4
 219:.\Generated_Source\PSoC5/cyfitter_cfg.c **** 	CY_SET_XTND_REG8((void CYFAR *)(CYREG_CLKDIST_DCFG0_CFG0 + 0x2u), 0x50u);
 286              		.loc 1 219 0
 287 0002 0024     		movs	r4, #0
 288 0004 364B     		ldr	r3, .L23
 289 0006 1C80     		strh	r4, [r3]	@ movhi
 220:.\Generated_Source\PSoC5/cyfitter_cfg.c **** 	CY_SET_XTND_REG16((void CYFAR *)(CYREG_CLKDIST_DCFG1_CFG0), 0x0000u);
 290              		.loc 1 220 0
 291 0008 5022     		movs	r2, #80
 292 000a 0233     		adds	r3, r3, #2
 293 000c 1A70     		strb	r2, [r3]
 221:.\Generated_Source\PSoC5/cyfitter_cfg.c **** 	CY_SET_XTND_REG8((void CYFAR *)(CYREG_CLKDIST_DCFG1_CFG0 + 0x2u), 0x58u);
 294              		.loc 1 221 0
 295 000e 0233     		adds	r3, r3, #2
 296 0010 1C80     		strh	r4, [r3]	@ movhi
 222:.\Generated_Source\PSoC5/cyfitter_cfg.c **** 	CY_SET_XTND_REG16((void CYFAR *)(CYREG_CLKDIST_DCFG2_CFG0), 0x0001u);
 297              		.loc 1 222 0
 298 0012 5822     		movs	r2, #88
 299 0014 0233     		adds	r3, r3, #2
 300 0016 1A70     		strb	r2, [r3]
 223:.\Generated_Source\PSoC5/cyfitter_cfg.c **** 	CY_SET_XTND_REG8((void CYFAR *)(CYREG_CLKDIST_DCFG2_CFG0 + 0x2u), 0x18u);
 301              		.loc 1 223 0
 302 0018 0122     		movs	r2, #1
 303 001a 0233     		adds	r3, r3, #2
ARM GAS  C:\Users\student\AppData\Local\Temp\cc1odf9I.s 			page 12


 304 001c 1A80     		strh	r2, [r3]	@ movhi
 224:.\Generated_Source\PSoC5/cyfitter_cfg.c **** 	CY_SET_XTND_REG16((void CYFAR *)(CYREG_CLKDIST_DCFG3_CFG0), 0x0003u);
 305              		.loc 1 224 0
 306 001e 1823     		movs	r3, #24
 307 0020 304A     		ldr	r2, .L23+4
 308 0022 1370     		strb	r3, [r2]
 225:.\Generated_Source\PSoC5/cyfitter_cfg.c **** 	CY_SET_XTND_REG8((void CYFAR *)(CYREG_CLKDIST_DCFG3_CFG0 + 0x2u), 0x18u);
 309              		.loc 1 225 0
 310 0024 0325     		movs	r5, #3
 311 0026 0232     		adds	r2, r2, #2
 312 0028 1580     		strh	r5, [r2]	@ movhi
 226:.\Generated_Source\PSoC5/cyfitter_cfg.c **** 	CY_SET_XTND_REG16((void CYFAR *)(CYREG_CLKDIST_DCFG4_CFG0), 0x000Bu);
 313              		.loc 1 226 0
 314 002a 0232     		adds	r2, r2, #2
 315 002c 1370     		strb	r3, [r2]
 227:.\Generated_Source\PSoC5/cyfitter_cfg.c **** 	CY_SET_XTND_REG8((void CYFAR *)(CYREG_CLKDIST_DCFG4_CFG0 + 0x2u), 0x18u);
 316              		.loc 1 227 0
 317 002e 0B21     		movs	r1, #11
 318 0030 0232     		adds	r2, r2, #2
 319 0032 1180     		strh	r1, [r2]	@ movhi
 228:.\Generated_Source\PSoC5/cyfitter_cfg.c **** 
 320              		.loc 1 228 0
 321 0034 0232     		adds	r2, r2, #2
 322 0036 1370     		strb	r3, [r2]
 231:.\Generated_Source\PSoC5/cyfitter_cfg.c **** 
 323              		.loc 1 231 0
 324 0038 2B48     		ldr	r0, .L23+8
 325 003a 2C49     		ldr	r1, .L23+12
 326 003c 0422     		movs	r2, #4
 327 003e FFF7FEFF 		bl	CYCONFIGCPY
 328              	.LVL23:
 234:.\Generated_Source\PSoC5/cyfitter_cfg.c **** 	CY_SET_XTND_REG8((void CYFAR *)(CYREG_CLKDIST_CR), 0x08u);
 329              		.loc 1 234 0
 330 0042 0222     		movs	r2, #2
 331 0044 2A4B     		ldr	r3, .L23+16
 332 0046 1A70     		strb	r2, [r3]
 235:.\Generated_Source\PSoC5/cyfitter_cfg.c **** 
 333              		.loc 1 235 0
 334 0048 0822     		movs	r2, #8
 335 004a 4FF04023 		mov	r3, #1073758208
 336 004e 1A70     		strb	r2, [r3]
 238:.\Generated_Source\PSoC5/cyfitter_cfg.c **** 	CY_SET_XTND_REG8((void CYFAR *)(CYREG_IMO_TR1), (CY_GET_XTND_REG8((void CYFAR *)CYREG_FLSHID_CUST_
 337              		.loc 1 238 0
 338 0050 03F50073 		add	r3, r3, #512
 339 0054 1D70     		strb	r5, [r3]
 239:.\Generated_Source\PSoC5/cyfitter_cfg.c **** 
 340              		.loc 1 239 0
 341 0056 274B     		ldr	r3, .L23+20
 342 0058 1B78     		ldrb	r3, [r3]	@ zero_extendqisi2
 343 005a DBB2     		uxtb	r3, r3
 344 005c 2649     		ldr	r1, .L23+24
 345 005e 0B70     		strb	r3, [r1]
 242:.\Generated_Source\PSoC5/cyfitter_cfg.c **** 	CY_SET_XTND_REG16((void CYFAR *)(CYREG_FASTCLK_PLL_CFG0), 0x1251u);
 346              		.loc 1 242 0
 347 0060 264B     		ldr	r3, .L23+28
 348 0062 1A80     		strh	r2, [r3]	@ movhi
 243:.\Generated_Source\PSoC5/cyfitter_cfg.c **** 	/* Wait up to 250us for the PLL to lock */
ARM GAS  C:\Users\student\AppData\Local\Temp\cc1odf9I.s 			page 13


 349              		.loc 1 243 0
 350 0064 41F25122 		movw	r2, #4689
 351 0068 023B     		subs	r3, r3, #2
 352 006a 1A80     		strh	r2, [r3]	@ movhi
 353              	.LVL24:
 246:.\Generated_Source\PSoC5/cyfitter_cfg.c **** 	{ 
 354              		.loc 1 246 0
 355 006c 1925     		movs	r5, #25
 356 006e 0CE0     		b	.L18
 357              	.LVL25:
 358              	.L20:
 248:.\Generated_Source\PSoC5/cyfitter_cfg.c **** 		CyDelayCycles(10u * 48u); /* Delay 10us based on 48MHz clock */
 359              		.loc 1 248 0 discriminator 4
 360 0070 234B     		ldr	r3, .L23+32
 361 0072 1B78     		ldrb	r3, [r3]	@ zero_extendqisi2
 362 0074 03F00103 		and	r3, r3, #1
 363 0078 43EA4404 		orr	r4, r3, r4, lsl #1
 364              	.LVL26:
 365 007c 04F00304 		and	r4, r4, #3
 366              	.LVL27:
 249:.\Generated_Source\PSoC5/cyfitter_cfg.c **** 	}
 367              		.loc 1 249 0 discriminator 4
 368 0080 4FF4F070 		mov	r0, #480
 369 0084 FFF7FEFF 		bl	CyDelayCycles
 370              	.LVL28:
 246:.\Generated_Source\PSoC5/cyfitter_cfg.c **** 	{ 
 371              		.loc 1 246 0 discriminator 4
 372 0088 013D     		subs	r5, r5, #1
 373              	.LVL29:
 374              	.L18:
 246:.\Generated_Source\PSoC5/cyfitter_cfg.c **** 	{ 
 375              		.loc 1 246 0 is_stmt 0 discriminator 1
 376 008a 0DB1     		cbz	r5, .L19
 246:.\Generated_Source\PSoC5/cyfitter_cfg.c **** 	{ 
 377              		.loc 1 246 0 discriminator 3
 378 008c 032C     		cmp	r4, #3
 379 008e EFD1     		bne	.L20
 380              	.L19:
 252:.\Generated_Source\PSoC5/cyfitter_cfg.c **** 	{
 381              		.loc 1 252 0 is_stmt 1
 382 0090 15B9     		cbnz	r5, .L21
 254:.\Generated_Source\PSoC5/cyfitter_cfg.c **** 	}
 383              		.loc 1 254 0
 384 0092 0320     		movs	r0, #3
 385 0094 FFF7FEFF 		bl	CyClockStartupError
 386              	.LVL30:
 387              	.L21:
 258:.\Generated_Source\PSoC5/cyfitter_cfg.c **** 	CY_SET_XTND_REG8((void CYFAR *)(CYREG_CLKDIST_MSTR0), 0x07u);
 388              		.loc 1 258 0
 389 0098 1A4B     		ldr	r3, .L23+36
 390 009a 4FF48072 		mov	r2, #256
 391 009e 1A80     		strh	r2, [r3]	@ movhi
 259:.\Generated_Source\PSoC5/cyfitter_cfg.c **** 	CY_SET_XTND_REG8((void CYFAR *)(CYREG_CLKDIST_BCFG0), 0x00u);
 392              		.loc 1 259 0
 393 00a0 0722     		movs	r2, #7
 394 00a2 1A70     		strb	r2, [r3]
 260:.\Generated_Source\PSoC5/cyfitter_cfg.c **** 	CY_SET_XTND_REG8((void CYFAR *)(CYREG_CLKDIST_BCFG2), 0x48u);
ARM GAS  C:\Users\student\AppData\Local\Temp\cc1odf9I.s 			page 14


 395              		.loc 1 260 0
 396 00a4 0022     		movs	r2, #0
 397 00a6 1849     		ldr	r1, .L23+40
 398 00a8 0A70     		strb	r2, [r1]
 261:.\Generated_Source\PSoC5/cyfitter_cfg.c **** 	CY_SET_XTND_REG8((void CYFAR *)(CYREG_CLKDIST_MSTR0), 0x00u);
 399              		.loc 1 261 0
 400 00aa 4820     		movs	r0, #72
 401 00ac 0231     		adds	r1, r1, #2
 402 00ae 0870     		strb	r0, [r1]
 262:.\Generated_Source\PSoC5/cyfitter_cfg.c **** 	CY_SET_XTND_REG8((void CYFAR *)(CYREG_CLKDIST_LD), 0x02u);
 403              		.loc 1 262 0
 404 00b0 1A70     		strb	r2, [r3]
 263:.\Generated_Source\PSoC5/cyfitter_cfg.c **** 	CY_SET_XTND_REG8((void CYFAR *)(CYREG_CLKDIST_DLY1), 0x04u);
 405              		.loc 1 263 0
 406 00b2 0222     		movs	r2, #2
 407 00b4 033B     		subs	r3, r3, #3
 408 00b6 1A70     		strb	r2, [r3]
 264:.\Generated_Source\PSoC5/cyfitter_cfg.c **** 
 409              		.loc 1 264 0
 410 00b8 0422     		movs	r2, #4
 411 00ba 0A33     		adds	r3, r3, #10
 412 00bc 1A70     		strb	r2, [r3]
 266:.\Generated_Source\PSoC5/cyfitter_cfg.c **** 	CY_SET_XTND_REG8((void CYFAR *)(CYREG_PM_ACT_CFG1), ((CY_GET_XTND_REG8((void CYFAR *)CYREG_PM_ACT_
 413              		.loc 1 266 0
 414 00be 134A     		ldr	r2, .L23+44
 415 00c0 1378     		ldrb	r3, [r2]	@ zero_extendqisi2
 416 00c2 43F01F03 		orr	r3, r3, #31
 417 00c6 1370     		strb	r3, [r2]
 267:.\Generated_Source\PSoC5/cyfitter_cfg.c **** 	CY_SET_XTND_REG8((void CYFAR *)(CYREG_PM_ACT_CFG0), ((CY_GET_XTND_REG8((void CYFAR *)CYREG_PM_ACT_
 418              		.loc 1 267 0
 419 00c8 013A     		subs	r2, r2, #1
 420 00ca 1378     		ldrb	r3, [r2]	@ zero_extendqisi2
 421 00cc 43F00103 		orr	r3, r3, #1
 422 00d0 1370     		strb	r3, [r2]
 268:.\Generated_Source\PSoC5/cyfitter_cfg.c **** }
 423              		.loc 1 268 0
 424 00d2 013A     		subs	r2, r2, #1
 425 00d4 1378     		ldrb	r3, [r2]	@ zero_extendqisi2
 426 00d6 43F08003 		orr	r3, r3, #128
 427 00da 1370     		strb	r3, [r2]
 428 00dc 38BD     		pop	{r3, r4, r5, pc}
 429              	.LVL31:
 430              	.L24:
 431 00de 00BF     		.align	2
 432              	.L23:
 433 00e0 80400040 		.word	1073758336
 434 00e4 8A400040 		.word	1073758346
 435 00e8 00410040 		.word	1073758464
 436 00ec 700D0048 		.word	1207962992
 437 00f0 00430040 		.word	1073758976
 438 00f4 08010049 		.word	1224737032
 439 00f8 A1460040 		.word	1073759905
 440 00fc 22420040 		.word	1073758754
 441 0100 25420040 		.word	1073758757
 442 0104 04400040 		.word	1073758212
 443 0108 06400040 		.word	1073758214
 444 010c A2430040 		.word	1073759138
ARM GAS  C:\Users\student\AppData\Local\Temp\cc1odf9I.s 			page 15


 445              		.cfi_endproc
 446              	.LFE5:
 447              		.size	ClockSetup, .-ClockSetup
 448              		.section	.text.SetAnalogRoutingPumps,"ax",%progbits
 449              		.align	2
 450              		.global	SetAnalogRoutingPumps
 451              		.thumb
 452              		.thumb_func
 453              		.type	SetAnalogRoutingPumps, %function
 454              	SetAnalogRoutingPumps:
 455              	.LFB7:
 312:.\Generated_Source\PSoC5/cyfitter_cfg.c **** }
 313:.\Generated_Source\PSoC5/cyfitter_cfg.c **** 
 314:.\Generated_Source\PSoC5/cyfitter_cfg.c **** 
 315:.\Generated_Source\PSoC5/cyfitter_cfg.c **** /*******************************************************************************
 316:.\Generated_Source\PSoC5/cyfitter_cfg.c **** * Function Name: SetAnalogRoutingPumps
 317:.\Generated_Source\PSoC5/cyfitter_cfg.c **** ********************************************************************************
 318:.\Generated_Source\PSoC5/cyfitter_cfg.c **** *
 319:.\Generated_Source\PSoC5/cyfitter_cfg.c **** * Summary:
 320:.\Generated_Source\PSoC5/cyfitter_cfg.c **** * Enables or disables the analog pumps feeding analog routing switches.
 321:.\Generated_Source\PSoC5/cyfitter_cfg.c **** * Intended to be called at startup, based on the Vdda system configuration;
 322:.\Generated_Source\PSoC5/cyfitter_cfg.c **** * may be called during operation when the user informs us that the Vdda voltage
 323:.\Generated_Source\PSoC5/cyfitter_cfg.c **** * crossed the pump threshold.
 324:.\Generated_Source\PSoC5/cyfitter_cfg.c **** *
 325:.\Generated_Source\PSoC5/cyfitter_cfg.c **** * Parameters:
 326:.\Generated_Source\PSoC5/cyfitter_cfg.c **** *  enabled - 1 to enable the pumps, 0 to disable the pumps
 327:.\Generated_Source\PSoC5/cyfitter_cfg.c **** *
 328:.\Generated_Source\PSoC5/cyfitter_cfg.c **** * Return:
 329:.\Generated_Source\PSoC5/cyfitter_cfg.c **** *  void
 330:.\Generated_Source\PSoC5/cyfitter_cfg.c **** *
 331:.\Generated_Source\PSoC5/cyfitter_cfg.c **** *******************************************************************************/
 332:.\Generated_Source\PSoC5/cyfitter_cfg.c **** void SetAnalogRoutingPumps(uint8 enabled)
 333:.\Generated_Source\PSoC5/cyfitter_cfg.c **** {
 456              		.loc 1 333 0
 457              		.cfi_startproc
 458              		@ args = 0, pretend = 0, frame = 0
 459              		@ frame_needed = 0, uses_anonymous_args = 0
 460              		@ link register save eliminated.
 461              	.LVL32:
 334:.\Generated_Source\PSoC5/cyfitter_cfg.c **** 	uint8 regValue = CY_GET_XTND_REG8((void CYFAR *)CYREG_PUMP_CR0);
 462              		.loc 1 334 0
 463 0000 054B     		ldr	r3, .L28
 464 0002 1B78     		ldrb	r3, [r3]	@ zero_extendqisi2
 465 0004 DBB2     		uxtb	r3, r3
 466              	.LVL33:
 335:.\Generated_Source\PSoC5/cyfitter_cfg.c **** 	if (enabled != 0u)
 467              		.loc 1 335 0
 468 0006 10B1     		cbz	r0, .L26
 336:.\Generated_Source\PSoC5/cyfitter_cfg.c **** 	{
 337:.\Generated_Source\PSoC5/cyfitter_cfg.c **** 		regValue |= 0x22u;
 469              		.loc 1 337 0
 470 0008 43F02203 		orr	r3, r3, #34
 471              	.LVL34:
 472 000c 01E0     		b	.L27
 473              	.L26:
 338:.\Generated_Source\PSoC5/cyfitter_cfg.c **** 	}
 339:.\Generated_Source\PSoC5/cyfitter_cfg.c **** 	else
ARM GAS  C:\Users\student\AppData\Local\Temp\cc1odf9I.s 			page 16


 340:.\Generated_Source\PSoC5/cyfitter_cfg.c **** 	{
 341:.\Generated_Source\PSoC5/cyfitter_cfg.c **** 		regValue &= (uint8)~0x22u;
 474              		.loc 1 341 0
 475 000e 03F0DD03 		and	r3, r3, #221
 476              	.LVL35:
 477              	.L27:
 342:.\Generated_Source\PSoC5/cyfitter_cfg.c **** 	}
 343:.\Generated_Source\PSoC5/cyfitter_cfg.c **** 	CY_SET_XTND_REG8((void CYFAR *)CYREG_PUMP_CR0, regValue);
 478              		.loc 1 343 0
 479 0012 014A     		ldr	r2, .L28
 480 0014 1370     		strb	r3, [r2]
 481 0016 7047     		bx	lr
 482              	.L29:
 483              		.align	2
 484              	.L28:
 485 0018 76580040 		.word	1073764470
 486              		.cfi_endproc
 487              	.LFE7:
 488              		.size	SetAnalogRoutingPumps, .-SetAnalogRoutingPumps
 489              		.section	.text.ADC_FlexSensor_R_AMux_Set,"ax",%progbits
 490              		.align	2
 491              		.global	ADC_FlexSensor_R_AMux_Set
 492              		.thumb
 493              		.thumb_func
 494              		.type	ADC_FlexSensor_R_AMux_Set, %function
 495              	ADC_FlexSensor_R_AMux_Set:
 496              	.LFB8:
 344:.\Generated_Source\PSoC5/cyfitter_cfg.c **** }
 345:.\Generated_Source\PSoC5/cyfitter_cfg.c **** 
 346:.\Generated_Source\PSoC5/cyfitter_cfg.c **** #define CY_AMUX_UNUSED CYREG_BOOST_SR
 347:.\Generated_Source\PSoC5/cyfitter_cfg.c **** /* This is an implementation detail of the AMux. Code that depends on it may be
 348:.\Generated_Source\PSoC5/cyfitter_cfg.c ****    incompatible with other versions of PSoC Creator. */
 349:.\Generated_Source\PSoC5/cyfitter_cfg.c **** uint8 CYXDATA * const CYCODE ADC_FlexSensor_R_AMux__addrTable[2] = {
 350:.\Generated_Source\PSoC5/cyfitter_cfg.c **** 	(uint8 CYXDATA *)CYREG_DSM0_SW3, 
 351:.\Generated_Source\PSoC5/cyfitter_cfg.c **** 	(uint8 CYXDATA *)CY_AMUX_UNUSED, 
 352:.\Generated_Source\PSoC5/cyfitter_cfg.c **** };
 353:.\Generated_Source\PSoC5/cyfitter_cfg.c **** 
 354:.\Generated_Source\PSoC5/cyfitter_cfg.c **** /* This is an implementation detail of the AMux. Code that depends on it may be
 355:.\Generated_Source\PSoC5/cyfitter_cfg.c ****    incompatible with other versions of PSoC Creator. */
 356:.\Generated_Source\PSoC5/cyfitter_cfg.c **** const uint8 CYCODE ADC_FlexSensor_R_AMux__maskTable[2] = {
 357:.\Generated_Source\PSoC5/cyfitter_cfg.c **** 	0x40u, 
 358:.\Generated_Source\PSoC5/cyfitter_cfg.c **** 	0x00u, 
 359:.\Generated_Source\PSoC5/cyfitter_cfg.c **** };
 360:.\Generated_Source\PSoC5/cyfitter_cfg.c **** 
 361:.\Generated_Source\PSoC5/cyfitter_cfg.c **** /*******************************************************************************
 362:.\Generated_Source\PSoC5/cyfitter_cfg.c **** * Function Name: ADC_FlexSensor_R_AMux_Set
 363:.\Generated_Source\PSoC5/cyfitter_cfg.c **** ********************************************************************************
 364:.\Generated_Source\PSoC5/cyfitter_cfg.c **** * Summary:
 365:.\Generated_Source\PSoC5/cyfitter_cfg.c **** *  This function is used to set a particular channel as active on the AMux.
 366:.\Generated_Source\PSoC5/cyfitter_cfg.c **** *
 367:.\Generated_Source\PSoC5/cyfitter_cfg.c **** * Parameters:  
 368:.\Generated_Source\PSoC5/cyfitter_cfg.c **** *   channel - The mux channel input to set as active
 369:.\Generated_Source\PSoC5/cyfitter_cfg.c **** *
 370:.\Generated_Source\PSoC5/cyfitter_cfg.c **** * Return:
 371:.\Generated_Source\PSoC5/cyfitter_cfg.c **** *   void
 372:.\Generated_Source\PSoC5/cyfitter_cfg.c **** *
 373:.\Generated_Source\PSoC5/cyfitter_cfg.c **** *******************************************************************************/
ARM GAS  C:\Users\student\AppData\Local\Temp\cc1odf9I.s 			page 17


 374:.\Generated_Source\PSoC5/cyfitter_cfg.c **** void ADC_FlexSensor_R_AMux_Set(uint8 channel)
 375:.\Generated_Source\PSoC5/cyfitter_cfg.c **** {
 497              		.loc 1 375 0
 498              		.cfi_startproc
 499              		@ args = 0, pretend = 0, frame = 0
 500              		@ frame_needed = 0, uses_anonymous_args = 0
 501              		@ link register save eliminated.
 502              	.LVL36:
 376:.\Generated_Source\PSoC5/cyfitter_cfg.c **** 	if (channel < 2)
 503              		.loc 1 376 0
 504 0000 0128     		cmp	r0, #1
 505 0002 07D8     		bhi	.L30
 377:.\Generated_Source\PSoC5/cyfitter_cfg.c **** 	{
 378:.\Generated_Source\PSoC5/cyfitter_cfg.c **** 		*ADC_FlexSensor_R_AMux__addrTable[channel] |= ADC_FlexSensor_R_AMux__maskTable[channel];
 506              		.loc 1 378 0
 507 0004 044B     		ldr	r3, .L32
 508 0006 53F82020 		ldr	r2, [r3, r0, lsl #2]
 509 000a 1844     		add	r0, r0, r3
 510              	.LVL37:
 511 000c 017A     		ldrb	r1, [r0, #8]	@ zero_extendqisi2
 512 000e 1378     		ldrb	r3, [r2]	@ zero_extendqisi2
 513 0010 0B43     		orrs	r3, r3, r1
 514 0012 1370     		strb	r3, [r2]
 515              	.L30:
 516 0014 7047     		bx	lr
 517              	.L33:
 518 0016 00BF     		.align	2
 519              	.L32:
 520 0018 00000000 		.word	.LANCHOR0
 521              		.cfi_endproc
 522              	.LFE8:
 523              		.size	ADC_FlexSensor_R_AMux_Set, .-ADC_FlexSensor_R_AMux_Set
 524              		.section	.text.ADC_FlexSensor_R_AMux_Unset,"ax",%progbits
 525              		.align	2
 526              		.global	ADC_FlexSensor_R_AMux_Unset
 527              		.thumb
 528              		.thumb_func
 529              		.type	ADC_FlexSensor_R_AMux_Unset, %function
 530              	ADC_FlexSensor_R_AMux_Unset:
 531              	.LFB9:
 379:.\Generated_Source\PSoC5/cyfitter_cfg.c **** 	}
 380:.\Generated_Source\PSoC5/cyfitter_cfg.c **** }
 381:.\Generated_Source\PSoC5/cyfitter_cfg.c **** 
 382:.\Generated_Source\PSoC5/cyfitter_cfg.c **** /*******************************************************************************
 383:.\Generated_Source\PSoC5/cyfitter_cfg.c **** * Function Name: ADC_FlexSensor_R_AMux_Unset
 384:.\Generated_Source\PSoC5/cyfitter_cfg.c **** ********************************************************************************
 385:.\Generated_Source\PSoC5/cyfitter_cfg.c **** * Summary:
 386:.\Generated_Source\PSoC5/cyfitter_cfg.c **** *  This function is used to clear a particular channel from being active on the
 387:.\Generated_Source\PSoC5/cyfitter_cfg.c **** *  AMux.
 388:.\Generated_Source\PSoC5/cyfitter_cfg.c **** *
 389:.\Generated_Source\PSoC5/cyfitter_cfg.c **** * Parameters:  
 390:.\Generated_Source\PSoC5/cyfitter_cfg.c **** *   channel - The mux channel input to mark inactive
 391:.\Generated_Source\PSoC5/cyfitter_cfg.c **** *
 392:.\Generated_Source\PSoC5/cyfitter_cfg.c **** * Return:
 393:.\Generated_Source\PSoC5/cyfitter_cfg.c **** *   void
 394:.\Generated_Source\PSoC5/cyfitter_cfg.c **** *
 395:.\Generated_Source\PSoC5/cyfitter_cfg.c **** *******************************************************************************/
ARM GAS  C:\Users\student\AppData\Local\Temp\cc1odf9I.s 			page 18


 396:.\Generated_Source\PSoC5/cyfitter_cfg.c **** void ADC_FlexSensor_R_AMux_Unset(uint8 channel)
 397:.\Generated_Source\PSoC5/cyfitter_cfg.c **** {
 532              		.loc 1 397 0
 533              		.cfi_startproc
 534              		@ args = 0, pretend = 0, frame = 0
 535              		@ frame_needed = 0, uses_anonymous_args = 0
 536              		@ link register save eliminated.
 537              	.LVL38:
 398:.\Generated_Source\PSoC5/cyfitter_cfg.c **** 	if (channel < 2)
 538              		.loc 1 398 0
 539 0000 0128     		cmp	r0, #1
 540 0002 08D8     		bhi	.L34
 399:.\Generated_Source\PSoC5/cyfitter_cfg.c **** 	{
 400:.\Generated_Source\PSoC5/cyfitter_cfg.c **** 		*ADC_FlexSensor_R_AMux__addrTable[channel] &= (uint8)~ADC_FlexSensor_R_AMux__maskTable[channel];
 541              		.loc 1 400 0
 542 0004 044B     		ldr	r3, .L36
 543 0006 53F82020 		ldr	r2, [r3, r0, lsl #2]
 544 000a 1844     		add	r0, r0, r3
 545              	.LVL39:
 546 000c 017A     		ldrb	r1, [r0, #8]	@ zero_extendqisi2
 547 000e 1378     		ldrb	r3, [r2]	@ zero_extendqisi2
 548 0010 23EA0103 		bic	r3, r3, r1
 549 0014 1370     		strb	r3, [r2]
 550              	.L34:
 551 0016 7047     		bx	lr
 552              	.L37:
 553              		.align	2
 554              	.L36:
 555 0018 00000000 		.word	.LANCHOR0
 556              		.cfi_endproc
 557              	.LFE9:
 558              		.size	ADC_FlexSensor_R_AMux_Unset, .-ADC_FlexSensor_R_AMux_Unset
 559              		.section	.text.cyfitter_cfg,"ax",%progbits
 560              		.align	2
 561              		.global	cyfitter_cfg
 562              		.thumb
 563              		.thumb_func
 564              		.type	cyfitter_cfg, %function
 565              	cyfitter_cfg:
 566              	.LFB10:
 401:.\Generated_Source\PSoC5/cyfitter_cfg.c **** 	}
 402:.\Generated_Source\PSoC5/cyfitter_cfg.c **** }
 403:.\Generated_Source\PSoC5/cyfitter_cfg.c **** 
 404:.\Generated_Source\PSoC5/cyfitter_cfg.c **** 
 405:.\Generated_Source\PSoC5/cyfitter_cfg.c **** 
 406:.\Generated_Source\PSoC5/cyfitter_cfg.c **** /*******************************************************************************
 407:.\Generated_Source\PSoC5/cyfitter_cfg.c **** * Function Name: cyfitter_cfg
 408:.\Generated_Source\PSoC5/cyfitter_cfg.c **** ********************************************************************************
 409:.\Generated_Source\PSoC5/cyfitter_cfg.c **** * Summary:
 410:.\Generated_Source\PSoC5/cyfitter_cfg.c **** *  This function is called by the start-up code for the selected device. It
 411:.\Generated_Source\PSoC5/cyfitter_cfg.c **** *  performs all of the necessary device configuration based on the design
 412:.\Generated_Source\PSoC5/cyfitter_cfg.c **** *  settings.  This includes settings from the Design Wide Resources (DWR) such
 413:.\Generated_Source\PSoC5/cyfitter_cfg.c **** *  as Clocks and Pins as well as any component configuration that is necessary.
 414:.\Generated_Source\PSoC5/cyfitter_cfg.c **** *
 415:.\Generated_Source\PSoC5/cyfitter_cfg.c **** * Parameters:  
 416:.\Generated_Source\PSoC5/cyfitter_cfg.c **** *   void
 417:.\Generated_Source\PSoC5/cyfitter_cfg.c **** *
ARM GAS  C:\Users\student\AppData\Local\Temp\cc1odf9I.s 			page 19


 418:.\Generated_Source\PSoC5/cyfitter_cfg.c **** * Return:
 419:.\Generated_Source\PSoC5/cyfitter_cfg.c **** *   void
 420:.\Generated_Source\PSoC5/cyfitter_cfg.c **** *
 421:.\Generated_Source\PSoC5/cyfitter_cfg.c **** *******************************************************************************/
 422:.\Generated_Source\PSoC5/cyfitter_cfg.c **** 
 423:.\Generated_Source\PSoC5/cyfitter_cfg.c **** void cyfitter_cfg(void)
 424:.\Generated_Source\PSoC5/cyfitter_cfg.c **** {
 567              		.loc 1 424 0
 568              		.cfi_startproc
 569              		@ args = 0, pretend = 0, frame = 0
 570              		@ frame_needed = 0, uses_anonymous_args = 0
 571 0000 38B5     		push	{r3, r4, r5, lr}
 572              		.cfi_def_cfa_offset 16
 573              		.cfi_offset 3, -16
 574              		.cfi_offset 4, -12
 575              		.cfi_offset 5, -8
 576              		.cfi_offset 14, -4
 425:.\Generated_Source\PSoC5/cyfitter_cfg.c **** #ifdef CYGlobalIntDisable
 426:.\Generated_Source\PSoC5/cyfitter_cfg.c **** 	/* Disable interrupts by default. Let user enable if/when they want. */
 427:.\Generated_Source\PSoC5/cyfitter_cfg.c **** 	CYGlobalIntDisable
 577              		.loc 1 427 0
 578              	@ 427 ".\Generated_Source\PSoC5\cyfitter_cfg.c" 1
 579 0002 72B6     		CPSID   i
 580              	@ 0 "" 2
 428:.\Generated_Source\PSoC5/cyfitter_cfg.c **** #endif
 429:.\Generated_Source\PSoC5/cyfitter_cfg.c **** 
 430:.\Generated_Source\PSoC5/cyfitter_cfg.c **** 	/* Enable/Disable Debug functionality based on settings from System DWR */
 431:.\Generated_Source\PSoC5/cyfitter_cfg.c **** 	CY_SET_XTND_REG8((void CYFAR *)CYREG_MLOGIC_DEBUG, (CY_GET_XTND_REG8((void CYFAR *)CYREG_MLOGIC_DE
 581              		.loc 1 431 0
 582              		.thumb
 583 0004 3B4A     		ldr	r2, .L44
 584 0006 1378     		ldrb	r3, [r2]	@ zero_extendqisi2
 585 0008 43F00403 		orr	r3, r3, #4
 586 000c 1370     		strb	r3, [r2]
 587              	.LVL40:
 588              	.LBB3:
 432:.\Generated_Source\PSoC5/cyfitter_cfg.c **** 
 433:.\Generated_Source\PSoC5/cyfitter_cfg.c **** 	{
 434:.\Generated_Source\PSoC5/cyfitter_cfg.c **** 
 435:.\Generated_Source\PSoC5/cyfitter_cfg.c **** 		CYPACKED typedef struct {
 436:.\Generated_Source\PSoC5/cyfitter_cfg.c **** 			void CYFAR *address;
 437:.\Generated_Source\PSoC5/cyfitter_cfg.c **** 			uint16 size;
 438:.\Generated_Source\PSoC5/cyfitter_cfg.c **** 		} CYPACKED_ATTR cfg_memset_t;
 439:.\Generated_Source\PSoC5/cyfitter_cfg.c **** 
 440:.\Generated_Source\PSoC5/cyfitter_cfg.c **** 
 441:.\Generated_Source\PSoC5/cyfitter_cfg.c **** 		CYPACKED typedef struct {
 442:.\Generated_Source\PSoC5/cyfitter_cfg.c **** 			void CYFAR *dest;
 443:.\Generated_Source\PSoC5/cyfitter_cfg.c **** 			const void CYFAR *src;
 444:.\Generated_Source\PSoC5/cyfitter_cfg.c **** 			uint16 size;
 445:.\Generated_Source\PSoC5/cyfitter_cfg.c **** 		} CYPACKED_ATTR cfg_memcpy_t;
 446:.\Generated_Source\PSoC5/cyfitter_cfg.c **** 
 447:.\Generated_Source\PSoC5/cyfitter_cfg.c **** 		static const cfg_memset_t CYCODE cfg_memset_list [] = {
 448:.\Generated_Source\PSoC5/cyfitter_cfg.c **** 			/* address, size */
 449:.\Generated_Source\PSoC5/cyfitter_cfg.c **** 			{(void CYFAR *)(CYREG_I2C_XCFG), 25u},
 450:.\Generated_Source\PSoC5/cyfitter_cfg.c **** 			{(void CYFAR *)(CYREG_TMR0_CFG0), 12u},
 451:.\Generated_Source\PSoC5/cyfitter_cfg.c **** 			{(void CYFAR *)(CYREG_PRT3_DR), 64u},
 452:.\Generated_Source\PSoC5/cyfitter_cfg.c **** 			{(void CYFAR *)(CYDEV_UCFG_B0_P0_U0_BASE), 4096u},
ARM GAS  C:\Users\student\AppData\Local\Temp\cc1odf9I.s 			page 20


 453:.\Generated_Source\PSoC5/cyfitter_cfg.c **** 			{(void CYFAR *)(CYDEV_UCFG_B1_P2_U0_BASE), 2048u},
 454:.\Generated_Source\PSoC5/cyfitter_cfg.c **** 			{(void CYFAR *)(CYDEV_UCFG_DSI0_BASE), 2560u},
 455:.\Generated_Source\PSoC5/cyfitter_cfg.c **** 			{(void CYFAR *)(CYDEV_UCFG_DSI12_BASE), 512u},
 456:.\Generated_Source\PSoC5/cyfitter_cfg.c **** 			{(void CYFAR *)(CYREG_BCTL1_MDCLK_EN), 16u},
 457:.\Generated_Source\PSoC5/cyfitter_cfg.c **** 		};
 458:.\Generated_Source\PSoC5/cyfitter_cfg.c **** 
 459:.\Generated_Source\PSoC5/cyfitter_cfg.c **** 		static const cfg_memcpy_t CYCODE cfg_memcpy_list [] = {
 460:.\Generated_Source\PSoC5/cyfitter_cfg.c **** 			/* dest, src, size */
 461:.\Generated_Source\PSoC5/cyfitter_cfg.c **** 			{(void CYFAR *)(CYDEV_PRTDSI_PRT12_BASE), BS_IOPORT_7_VAL, 6u},
 462:.\Generated_Source\PSoC5/cyfitter_cfg.c **** 			{(void CYFAR *)(CYREG_BCTL0_MDCLK_EN), BS_UCFG_BCTL0_VAL, 16u},
 463:.\Generated_Source\PSoC5/cyfitter_cfg.c **** 		};
 464:.\Generated_Source\PSoC5/cyfitter_cfg.c **** 
 465:.\Generated_Source\PSoC5/cyfitter_cfg.c **** 		uint8 CYDATA i;
 466:.\Generated_Source\PSoC5/cyfitter_cfg.c **** 
 467:.\Generated_Source\PSoC5/cyfitter_cfg.c **** 		/* Zero out critical memory blocks before beginning configuration */
 468:.\Generated_Source\PSoC5/cyfitter_cfg.c **** 		for (i = 0u; i < (sizeof(cfg_memset_list)/sizeof(cfg_memset_list[0])); i++)
 589              		.loc 1 468 0
 590 000e 0024     		movs	r4, #0
 591 0010 0AE0     		b	.L39
 592              	.LVL41:
 593              	.L40:
 594              	.LBB4:
 469:.\Generated_Source\PSoC5/cyfitter_cfg.c **** 		{
 470:.\Generated_Source\PSoC5/cyfitter_cfg.c **** 			const cfg_memset_t CYCODE * CYDATA ms = &cfg_memset_list[i];
 471:.\Generated_Source\PSoC5/cyfitter_cfg.c **** 			CYMEMZERO(ms->address, (size_t)(uint32)(ms->size));
 595              		.loc 1 471 0 discriminator 3
 596 0012 3949     		ldr	r1, .L44+4
 597 0014 6300     		lsls	r3, r4, #1
 598 0016 1A19     		adds	r2, r3, r4
 599 0018 5200     		lsls	r2, r2, #1
 600 001a 0A44     		add	r2, r2, r1
 601 001c D068     		ldr	r0, [r2, #12]	@ unaligned
 602 001e 118A     		ldrh	r1, [r2, #16]
 603 0020 FFF7FEFF 		bl	CYMEMZERO
 604              	.LVL42:
 605              	.LBE4:
 468:.\Generated_Source\PSoC5/cyfitter_cfg.c **** 		{
 606              		.loc 1 468 0 discriminator 3
 607 0024 0134     		adds	r4, r4, #1
 608              	.LVL43:
 609 0026 E4B2     		uxtb	r4, r4
 610              	.LVL44:
 611              	.L39:
 468:.\Generated_Source\PSoC5/cyfitter_cfg.c **** 		{
 612              		.loc 1 468 0 is_stmt 0 discriminator 1
 613 0028 072C     		cmp	r4, #7
 614 002a F2D9     		bls	.L40
 615 002c 0024     		movs	r4, #0
 616              	.LVL45:
 617 002e 10E0     		b	.L41
 618              	.LVL46:
 619              	.L42:
 620              	.LBB5:
 472:.\Generated_Source\PSoC5/cyfitter_cfg.c **** 		}
 473:.\Generated_Source\PSoC5/cyfitter_cfg.c **** 
 474:.\Generated_Source\PSoC5/cyfitter_cfg.c **** 		/* Copy device configuration data into registers */
 475:.\Generated_Source\PSoC5/cyfitter_cfg.c **** 		for (i = 0u; i < (sizeof(cfg_memcpy_list)/sizeof(cfg_memcpy_list[0])); i++)
ARM GAS  C:\Users\student\AppData\Local\Temp\cc1odf9I.s 			page 21


 476:.\Generated_Source\PSoC5/cyfitter_cfg.c **** 		{
 477:.\Generated_Source\PSoC5/cyfitter_cfg.c **** 			const cfg_memcpy_t CYCODE * CYDATA mc = &cfg_memcpy_list[i];
 478:.\Generated_Source\PSoC5/cyfitter_cfg.c **** 			void * CYDATA destPtr = mc->dest;
 621              		.loc 1 478 0 is_stmt 1 discriminator 3
 622 0030 3149     		ldr	r1, .L44+4
 623 0032 A300     		lsls	r3, r4, #2
 624 0034 1A19     		adds	r2, r3, r4
 625 0036 5200     		lsls	r2, r2, #1
 626 0038 0A44     		add	r2, r2, r1
 627 003a 52F83C0F 		ldr	r0, [r2, #60]!	@ unaligned
 628              	.LVL47:
 479:.\Generated_Source\PSoC5/cyfitter_cfg.c **** 			const void * CYDATA srcPtr = mc->src;
 480:.\Generated_Source\PSoC5/cyfitter_cfg.c **** 			uint16 CYDATA numBytes = mc->size;
 629              		.loc 1 480 0 discriminator 3
 630 003e 2344     		add	r3, r3, r4
 631 0040 5B00     		lsls	r3, r3, #1
 632 0042 0B44     		add	r3, r3, r1
 633              	.LVL48:
 481:.\Generated_Source\PSoC5/cyfitter_cfg.c **** 			CYCONFIGCPY(destPtr, srcPtr, numBytes);
 634              		.loc 1 481 0 discriminator 3
 635 0044 5168     		ldr	r1, [r2, #4]	@ unaligned
 636              	.LVL49:
 637 0046 B3F84420 		ldrh	r2, [r3, #68]
 638 004a FFF7FEFF 		bl	CYCONFIGCPY
 639              	.LVL50:
 640              	.LBE5:
 475:.\Generated_Source\PSoC5/cyfitter_cfg.c **** 		{
 641              		.loc 1 475 0 discriminator 3
 642 004e 0134     		adds	r4, r4, #1
 643              	.LVL51:
 644 0050 E4B2     		uxtb	r4, r4
 645              	.LVL52:
 646              	.L41:
 475:.\Generated_Source\PSoC5/cyfitter_cfg.c **** 		{
 647              		.loc 1 475 0 is_stmt 0 discriminator 1
 648 0052 012C     		cmp	r4, #1
 649 0054 ECD9     		bls	.L42
 482:.\Generated_Source\PSoC5/cyfitter_cfg.c **** 		}
 483:.\Generated_Source\PSoC5/cyfitter_cfg.c **** 
 484:.\Generated_Source\PSoC5/cyfitter_cfg.c **** 		cfg_write_bytes32(cy_cfg_addr_table, cy_cfg_data_table);
 650              		.loc 1 484 0 is_stmt 1
 651 0056 4FF09040 		mov	r0, #1207959552
 652 005a 2849     		ldr	r1, .L44+8
 653 005c FFF7FEFF 		bl	cfg_write_bytes32
 654              	.LVL53:
 485:.\Generated_Source\PSoC5/cyfitter_cfg.c **** 
 486:.\Generated_Source\PSoC5/cyfitter_cfg.c **** 		/* Perform normal device configuration. Order is not critical for these items. */
 487:.\Generated_Source\PSoC5/cyfitter_cfg.c **** 		CY_SET_XTND_REG8((void CYFAR *)(CYREG_DSM0_CR3), 0x0Au);
 655              		.loc 1 487 0
 656 0060 0A25     		movs	r5, #10
 657 0062 274B     		ldr	r3, .L44+12
 658 0064 1D70     		strb	r5, [r3]
 488:.\Generated_Source\PSoC5/cyfitter_cfg.c **** 
 489:.\Generated_Source\PSoC5/cyfitter_cfg.c **** 		/* Enable digital routing */
 490:.\Generated_Source\PSoC5/cyfitter_cfg.c **** 		CY_SET_XTND_REG8((void CYFAR *)CYREG_BCTL0_BANK_CTL, CY_GET_XTND_REG8((void CYFAR *)CYREG_BCTL0_B
 659              		.loc 1 490 0
 660 0066 274A     		ldr	r2, .L44+16
ARM GAS  C:\Users\student\AppData\Local\Temp\cc1odf9I.s 			page 22


 661 0068 1378     		ldrb	r3, [r2]	@ zero_extendqisi2
 662 006a 43F00203 		orr	r3, r3, #2
 663 006e 1370     		strb	r3, [r2]
 491:.\Generated_Source\PSoC5/cyfitter_cfg.c **** 		CY_SET_XTND_REG8((void CYFAR *)CYREG_BCTL1_BANK_CTL, CY_GET_XTND_REG8((void CYFAR *)CYREG_BCTL1_B
 664              		.loc 1 491 0
 665 0070 1032     		adds	r2, r2, #16
 666 0072 1378     		ldrb	r3, [r2]	@ zero_extendqisi2
 667 0074 43F00203 		orr	r3, r3, #2
 668 0078 1370     		strb	r3, [r2]
 492:.\Generated_Source\PSoC5/cyfitter_cfg.c **** 
 493:.\Generated_Source\PSoC5/cyfitter_cfg.c **** 		/* Enable UDB array */
 494:.\Generated_Source\PSoC5/cyfitter_cfg.c **** 		CY_SET_XTND_REG8((void CYFAR *)CYREG_PM_ACT_CFG0, CY_GET_XTND_REG8((void CYFAR *)CYREG_PM_ACT_CFG
 669              		.loc 1 494 0
 670 007a 234C     		ldr	r4, .L44+20
 671              	.LVL54:
 672 007c 2378     		ldrb	r3, [r4]	@ zero_extendqisi2
 673 007e 43F04003 		orr	r3, r3, #64
 674 0082 2370     		strb	r3, [r4]
 495:.\Generated_Source\PSoC5/cyfitter_cfg.c **** 		CY_SET_XTND_REG8((void CYFAR *)CYREG_PM_AVAIL_CR2, CY_GET_XTND_REG8((void CYFAR *)CYREG_PM_AVAIL_
 675              		.loc 1 495 0
 676 0084 A2F58632 		sub	r2, r2, #68608
 677 0088 513A     		subs	r2, r2, #81
 678 008a 1378     		ldrb	r3, [r2]	@ zero_extendqisi2
 679 008c 43F01003 		orr	r3, r3, #16
 680 0090 1370     		strb	r3, [r2]
 681              	.LBE3:
 496:.\Generated_Source\PSoC5/cyfitter_cfg.c **** 	}
 497:.\Generated_Source\PSoC5/cyfitter_cfg.c **** 
 498:.\Generated_Source\PSoC5/cyfitter_cfg.c **** 
 499:.\Generated_Source\PSoC5/cyfitter_cfg.c **** 	/* Perform second pass device configuration. These items must be configured in specific order afte
 500:.\Generated_Source\PSoC5/cyfitter_cfg.c **** 	CYCONFIGCPY((void CYFAR *)(CYREG_PRT0_DM0), (const void CYFAR *)(BS_IOPINS0_0_VAL), 8u);
 682              		.loc 1 500 0
 683 0092 1E48     		ldr	r0, .L44+24
 684 0094 1E49     		ldr	r1, .L44+28
 685 0096 0822     		movs	r2, #8
 686 0098 FFF7FEFF 		bl	CYCONFIGCPY
 687              	.LVL55:
 501:.\Generated_Source\PSoC5/cyfitter_cfg.c **** 	CYCONFIGCPY((void CYFAR *)(CYREG_PRT12_DR), (const void CYFAR *)(BS_IOPINS0_7_VAL), 10u);
 688              		.loc 1 501 0
 689 009c 1D48     		ldr	r0, .L44+32
 690 009e 1E49     		ldr	r1, .L44+36
 691 00a0 2A46     		mov	r2, r5
 692 00a2 FFF7FEFF 		bl	CYCONFIGCPY
 693              	.LVL56:
 502:.\Generated_Source\PSoC5/cyfitter_cfg.c **** 	CYCONFIGCPY((void CYFAR *)(CYREG_PRT15_DM0), (const void CYFAR *)(BS_IOPINS0_8_VAL), 8u);
 694              		.loc 1 502 0
 695 00a6 1D48     		ldr	r0, .L44+40
 696 00a8 1D49     		ldr	r1, .L44+44
 697 00aa 0822     		movs	r2, #8
 698 00ac FFF7FEFF 		bl	CYCONFIGCPY
 699              	.LVL57:
 503:.\Generated_Source\PSoC5/cyfitter_cfg.c **** 	CYCONFIGCPY((void CYFAR *)(CYREG_PRT1_DM0), (const void CYFAR *)(BS_IOPINS0_1_VAL), 8u);
 700              		.loc 1 503 0
 701 00b0 1C48     		ldr	r0, .L44+48
 702 00b2 1D49     		ldr	r1, .L44+52
 703 00b4 0822     		movs	r2, #8
 704 00b6 FFF7FEFF 		bl	CYCONFIGCPY
ARM GAS  C:\Users\student\AppData\Local\Temp\cc1odf9I.s 			page 23


 705              	.LVL58:
 504:.\Generated_Source\PSoC5/cyfitter_cfg.c **** 	CYCONFIGCPY((void CYFAR *)(CYREG_PRT2_DM0), (const void CYFAR *)(BS_IOPINS0_2_VAL), 8u);
 706              		.loc 1 504 0
 707 00ba 1C48     		ldr	r0, .L44+56
 708 00bc 1C49     		ldr	r1, .L44+60
 709 00be 0822     		movs	r2, #8
 710 00c0 FFF7FEFF 		bl	CYCONFIGCPY
 711              	.LVL59:
 505:.\Generated_Source\PSoC5/cyfitter_cfg.c **** 	/* Switch Boost to the precision bandgap reference from its internal reference */
 506:.\Generated_Source\PSoC5/cyfitter_cfg.c **** 	CY_SET_REG8((void CYXDATA *)CYREG_BOOST_CR2, (CY_GET_REG8((void CYXDATA *)CYREG_BOOST_CR2) | 0x08u
 712              		.loc 1 506 0
 713 00c4 1B4A     		ldr	r2, .L44+64
 714 00c6 1378     		ldrb	r3, [r2]	@ zero_extendqisi2
 715 00c8 43F00803 		orr	r3, r3, #8
 716 00cc 1370     		strb	r3, [r2]
 507:.\Generated_Source\PSoC5/cyfitter_cfg.c **** 
 508:.\Generated_Source\PSoC5/cyfitter_cfg.c **** 	/* Set Flash Cycles based on max possible frequency in case a glitch occurs during ClockSetup(). *
 509:.\Generated_Source\PSoC5/cyfitter_cfg.c **** 	CY_SET_XTND_REG8((void CYFAR *)(CYREG_CACHE_CC_CTL), (((CYDEV_INSTRUCT_CACHE_ENABLED) != 0) ? 0x61
 717              		.loc 1 509 0
 718 00ce 1A4D     		ldr	r5, .L44+68
 719 00d0 6123     		movs	r3, #97
 720 00d2 2B70     		strb	r3, [r5]
 510:.\Generated_Source\PSoC5/cyfitter_cfg.c **** 	/* Setup clocks based on selections from Clock DWR */
 511:.\Generated_Source\PSoC5/cyfitter_cfg.c **** 	ClockSetup();
 721              		.loc 1 511 0
 722 00d4 FFF7FEFF 		bl	ClockSetup
 723              	.LVL60:
 512:.\Generated_Source\PSoC5/cyfitter_cfg.c **** 	/* Set Flash Cycles based on newly configured 24.00MHz Bus Clock. */
 513:.\Generated_Source\PSoC5/cyfitter_cfg.c **** 	CY_SET_XTND_REG8((void CYFAR *)(CYREG_CACHE_CC_CTL), (((CYDEV_INSTRUCT_CACHE_ENABLED) != 0) ? 0x81
 724              		.loc 1 513 0
 725 00d8 8123     		movs	r3, #129
 726 00da 2B70     		strb	r3, [r5]
 514:.\Generated_Source\PSoC5/cyfitter_cfg.c **** 	CY_SET_XTND_REG8((void CYFAR *)(CYREG_PANTHER_WAITPIPE), 0x01u);
 727              		.loc 1 514 0
 728 00dc 0122     		movs	r2, #1
 729 00de 174B     		ldr	r3, .L44+72
 730 00e0 1A70     		strb	r2, [r3]
 515:.\Generated_Source\PSoC5/cyfitter_cfg.c **** 
 516:.\Generated_Source\PSoC5/cyfitter_cfg.c **** 	/* Perform basic analog initialization to defaults */
 517:.\Generated_Source\PSoC5/cyfitter_cfg.c **** 	AnalogSetDefault();
 731              		.loc 1 517 0
 732 00e2 FFF7FEFF 		bl	AnalogSetDefault
 733              	.LVL61:
 518:.\Generated_Source\PSoC5/cyfitter_cfg.c **** 
 519:.\Generated_Source\PSoC5/cyfitter_cfg.c **** 	/* Configure alternate active mode */
 520:.\Generated_Source\PSoC5/cyfitter_cfg.c **** 	CYCONFIGCPY((void CYFAR *)CYDEV_PM_STBY_BASE, (const void CYFAR *)CYDEV_PM_ACT_BASE, 14u);
 734              		.loc 1 520 0
 735 00e6 1648     		ldr	r0, .L44+76
 736 00e8 2146     		mov	r1, r4
 737 00ea 0E22     		movs	r2, #14
 738 00ec FFF7FEFF 		bl	CYCONFIGCPY
 739              	.LVL62:
 740 00f0 38BD     		pop	{r3, r4, r5, pc}
 741              	.L45:
 742 00f2 00BF     		.align	2
 743              	.L44:
 744 00f4 E8460040 		.word	1073759976
ARM GAS  C:\Users\student\AppData\Local\Temp\cc1odf9I.s 			page 24


 745 00f8 00000000 		.word	.LANCHOR0
 746 00fc A8000048 		.word	1207959720
 747 0100 83580040 		.word	1073764483
 748 0104 03500140 		.word	1073827843
 749 0108 A0430040 		.word	1073759136
 750 010c 02510040 		.word	1073762562
 751 0110 440D0048 		.word	1207962948
 752 0114 C0510040 		.word	1073762752
 753 0118 4C0D0048 		.word	1207962956
 754 011c F2510040 		.word	1073762802
 755 0120 580D0048 		.word	1207962968
 756 0124 12510040 		.word	1073762578
 757 0128 600D0048 		.word	1207962976
 758 012c 22510040 		.word	1073762594
 759 0130 680D0048 		.word	1207962984
 760 0134 22430040 		.word	1073759010
 761 0138 00480040 		.word	1073760256
 762 013c 04000840 		.word	1074266116
 763 0140 B0430040 		.word	1073759152
 764              		.cfi_endproc
 765              	.LFE10:
 766              		.size	cyfitter_cfg, .-cyfitter_cfg
 767              		.global	ADC_FlexSensor_R_AMux__maskTable
 768              		.global	ADC_FlexSensor_R_AMux__addrTable
 769              		.section	.rodata
 770              		.align	2
 771              		.set	.LANCHOR0,. + 0
 772              		.type	ADC_FlexSensor_R_AMux__addrTable, %object
 773              		.size	ADC_FlexSensor_R_AMux__addrTable, 8
 774              	ADC_FlexSensor_R_AMux__addrTable:
 775 0000 035B0040 		.word	1073765123
 776 0004 24430040 		.word	1073759012
 777              		.type	ADC_FlexSensor_R_AMux__maskTable, %object
 778              		.size	ADC_FlexSensor_R_AMux__maskTable, 2
 779              	ADC_FlexSensor_R_AMux__maskTable:
 780 0008 40       		.byte	64
 781 0009 00       		.byte	0
 782 000a 0000     		.space	2
 783              		.type	cfg_memset_list.4901, %object
 784              		.size	cfg_memset_list.4901, 48
 785              	cfg_memset_list.4901:
 786 000c C8490040 		.word	1073760712
 787 0010 1900     		.short	25
 788 0012 004F0040 		.4byte	1073762048
 789 0016 0C00     		.short	12
 790 0018 30510040 		.word	1073762608
 791 001c 4000     		.short	64
 792 001e 00000140 		.4byte	1073807360
 793 0022 0010     		.short	4096
 794 0024 00140140 		.word	1073812480
 795 0028 0008     		.short	2048
 796 002a 00400140 		.4byte	1073823744
 797 002e 000A     		.short	2560
 798 0030 004C0140 		.word	1073826816
 799 0034 0002     		.short	512
 800 0036 10500140 		.4byte	1073827856
 801 003a 1000     		.short	16
ARM GAS  C:\Users\student\AppData\Local\Temp\cc1odf9I.s 			page 25


 802              		.type	cfg_memcpy_list.4902, %object
 803              		.size	cfg_memcpy_list.4902, 20
 804              	cfg_memcpy_list.4902:
 805 003c 60520040 		.word	1073762912
 806 0040 2C0D0048 		.word	1207962924
 807 0044 0600     		.short	6
 808 0046 00500140 		.4byte	1073827840
 809 004a 340D0048 		.4byte	1207962932
 810 004e 1000     		.short	16
 811              		.text
 812              	.Letext0:
 813              		.file 2 "c:\\program files (x86)\\cypress\\psoc creator\\3.3\\psoc creator\\import\\gnu\\arm\\4.9.
 814              		.file 3 ".\\Generated_Source\\PSoC5\\cytypes.h"
 815              		.file 4 ".\\Generated_Source\\PSoC5\\CyLib.h"