ARM GAS  C:\Users\student\AppData\Local\Temp\cc0g5IWC.s 			page 1


   1              		.syntax unified
   2              		.cpu cortex-m3
   3              		.fpu softvfp
   4              		.eabi_attribute 20, 1
   5              		.eabi_attribute 21, 1
   6              		.eabi_attribute 23, 3
   7              		.eabi_attribute 24, 1
   8              		.eabi_attribute 25, 1
   9              		.eabi_attribute 26, 1
  10              		.eabi_attribute 30, 1
  11              		.eabi_attribute 34, 1
  12              		.eabi_attribute 18, 4
  13              		.thumb
  14              		.file	"diskio.c"
  15              		.text
  16              	.Ltext0:
  17              		.cfi_sections	.debug_frame
  18              		.section	.text.disk_status,"ax",%progbits
  19              		.align	2
  20              		.global	disk_status
  21              		.thumb
  22              		.thumb_func
  23              		.type	disk_status, %function
  24              	disk_status:
  25              	.LFB0:
  26              		.file 1 ".\\diskio.c"
   1:.\diskio.c    **** /*-----------------------------------------------------------------------*/
   2:.\diskio.c    **** /* Low level disk I/O module SKELETON for FatFs     (C)ChaN, 2019        */
   3:.\diskio.c    **** /*-----------------------------------------------------------------------*/
   4:.\diskio.c    **** /* If a working storage control module is available, it should be        */
   5:.\diskio.c    **** /* attached to the FatFs via a glue function rather than modifying it.   */
   6:.\diskio.c    **** /* This is an example of glue functions to attach various exsisting      */
   7:.\diskio.c    **** /* storage control modules to the FatFs module with a defined API.       */
   8:.\diskio.c    **** /*-----------------------------------------------------------------------*/
   9:.\diskio.c    **** 
  10:.\diskio.c    **** #include "ff.h"			/* Obtains integer types */
  11:.\diskio.c    **** #include "diskio.h"		/* Declarations of disk functions */
  12:.\diskio.c    **** 
  13:.\diskio.c    **** /* Definitions of physical drive number for each drive */
  14:.\diskio.c    **** #define DEV_RAM		0	/* Example: Map Ramdisk to physical drive 0 */
  15:.\diskio.c    **** #define DEV_MMC		1	/* Example: Map MMC/SD card to physical drive 1 */
  16:.\diskio.c    **** #define DEV_USB		2	/* Example: Map USB MSD to physical drive 2 */
  17:.\diskio.c    **** 
  18:.\diskio.c    **** 
  19:.\diskio.c    **** /*-----------------------------------------------------------------------*/
  20:.\diskio.c    **** /* Get Drive Status                                                      */
  21:.\diskio.c    **** /*-----------------------------------------------------------------------*/
  22:.\diskio.c    **** 
  23:.\diskio.c    **** DSTATUS disk_status (
  24:.\diskio.c    **** 	BYTE pdrv		/* Physical drive nmuber to identify the drive */
  25:.\diskio.c    **** )
  26:.\diskio.c    **** {
  27              		.loc 1 26 0
  28              		.cfi_startproc
  29              		@ args = 0, pretend = 0, frame = 0
  30              		@ frame_needed = 0, uses_anonymous_args = 0
  31              	.LVL0:
ARM GAS  C:\Users\student\AppData\Local\Temp\cc0g5IWC.s 			page 2


  32 0000 08B5     		push	{r3, lr}
  33              		.cfi_def_cfa_offset 8
  34              		.cfi_offset 3, -8
  35              		.cfi_offset 14, -4
  27:.\diskio.c    **** 	DSTATUS stat;
  28:.\diskio.c    **** 	int result;
  29:.\diskio.c    **** 
  30:.\diskio.c    **** 	switch (pdrv) {
  36              		.loc 1 30 0
  37 0002 0128     		cmp	r0, #1
  38 0004 06D0     		beq	.L3
  39 0006 10B1     		cbz	r0, .L4
  40 0008 0228     		cmp	r0, #2
  41 000a 06D0     		beq	.L5
  42 000c 07E0     		b	.L2
  43              	.L4:
  44              	.LBB2:
  31:.\diskio.c    **** 	case DEV_RAM :
  32:.\diskio.c    **** 		result = RAM_disk_status();
  45              		.loc 1 32 0
  46 000e FFF7FEFF 		bl	RAM_disk_status
  47              	.LVL1:
  33:.\diskio.c    **** 
  34:.\diskio.c    **** 		// translate the reslut code here
  35:.\diskio.c    **** 
  36:.\diskio.c    **** 		return stat;
  48              		.loc 1 36 0
  49 0012 04E0     		b	.L2
  50              	.LVL2:
  51              	.L3:
  37:.\diskio.c    **** 
  38:.\diskio.c    **** 	case DEV_MMC :
  39:.\diskio.c    **** 		result = MMC_disk_status();
  52              		.loc 1 39 0
  53 0014 FFF7FEFF 		bl	MMC_disk_status
  54              	.LVL3:
  40:.\diskio.c    **** 
  41:.\diskio.c    **** 		// translate the reslut code here
  42:.\diskio.c    **** 
  43:.\diskio.c    **** 		return stat;
  55              		.loc 1 43 0
  56 0018 01E0     		b	.L2
  57              	.LVL4:
  58              	.L5:
  44:.\diskio.c    **** 
  45:.\diskio.c    **** 	case DEV_USB :
  46:.\diskio.c    **** 		result = USB_disk_status();
  59              		.loc 1 46 0
  60 001a FFF7FEFF 		bl	USB_disk_status
  61              	.LVL5:
  62              	.L2:
  63              	.LBE2:
  47:.\diskio.c    **** 
  48:.\diskio.c    **** 		// translate the reslut code here
  49:.\diskio.c    **** 
  50:.\diskio.c    **** 		return stat;
  51:.\diskio.c    **** 	}
ARM GAS  C:\Users\student\AppData\Local\Temp\cc0g5IWC.s 			page 3


  52:.\diskio.c    **** 	return STA_NOINIT;
  53:.\diskio.c    **** }
  64              		.loc 1 53 0
  65 001e 0120     		movs	r0, #1
  66 0020 08BD     		pop	{r3, pc}
  67              		.cfi_endproc
  68              	.LFE0:
  69              		.size	disk_status, .-disk_status
  70 0022 00BF     		.section	.text.disk_initialize,"ax",%progbits
  71              		.align	2
  72              		.global	disk_initialize
  73              		.thumb
  74              		.thumb_func
  75              		.type	disk_initialize, %function
  76              	disk_initialize:
  77              	.LFB1:
  54:.\diskio.c    **** 
  55:.\diskio.c    **** 
  56:.\diskio.c    **** 
  57:.\diskio.c    **** /*-----------------------------------------------------------------------*/
  58:.\diskio.c    **** /* Inidialize a Drive                                                    */
  59:.\diskio.c    **** /*-----------------------------------------------------------------------*/
  60:.\diskio.c    **** 
  61:.\diskio.c    **** DSTATUS disk_initialize (
  62:.\diskio.c    **** 	BYTE pdrv				/* Physical drive nmuber to identify the drive */
  63:.\diskio.c    **** )
  64:.\diskio.c    **** {
  78              		.loc 1 64 0
  79              		.cfi_startproc
  80              		@ args = 0, pretend = 0, frame = 0
  81              		@ frame_needed = 0, uses_anonymous_args = 0
  82              	.LVL6:
  83 0000 08B5     		push	{r3, lr}
  84              		.cfi_def_cfa_offset 8
  85              		.cfi_offset 3, -8
  86              		.cfi_offset 14, -4
  65:.\diskio.c    **** 	DSTATUS stat;
  66:.\diskio.c    **** 	int result;
  67:.\diskio.c    **** 
  68:.\diskio.c    **** 	switch (pdrv) {
  87              		.loc 1 68 0
  88 0002 0128     		cmp	r0, #1
  89 0004 06D0     		beq	.L9
  90 0006 10B1     		cbz	r0, .L10
  91 0008 0228     		cmp	r0, #2
  92 000a 06D0     		beq	.L11
  93 000c 07E0     		b	.L8
  94              	.L10:
  95              	.LBB3:
  69:.\diskio.c    **** 	case DEV_RAM :
  70:.\diskio.c    **** 		result = RAM_disk_initialize();
  96              		.loc 1 70 0
  97 000e FFF7FEFF 		bl	RAM_disk_initialize
  98              	.LVL7:
  71:.\diskio.c    **** 
  72:.\diskio.c    **** 		// translate the reslut code here
  73:.\diskio.c    **** 
ARM GAS  C:\Users\student\AppData\Local\Temp\cc0g5IWC.s 			page 4


  74:.\diskio.c    **** 		return stat;
  99              		.loc 1 74 0
 100 0012 04E0     		b	.L8
 101              	.LVL8:
 102              	.L9:
  75:.\diskio.c    **** 
  76:.\diskio.c    **** 	case DEV_MMC :
  77:.\diskio.c    **** 		result = MMC_disk_initialize();
 103              		.loc 1 77 0
 104 0014 FFF7FEFF 		bl	MMC_disk_initialize
 105              	.LVL9:
  78:.\diskio.c    **** 
  79:.\diskio.c    **** 		// translate the reslut code here
  80:.\diskio.c    **** 
  81:.\diskio.c    **** 		return stat;
 106              		.loc 1 81 0
 107 0018 01E0     		b	.L8
 108              	.LVL10:
 109              	.L11:
  82:.\diskio.c    **** 
  83:.\diskio.c    **** 	case DEV_USB :
  84:.\diskio.c    **** 		result = USB_disk_initialize();
 110              		.loc 1 84 0
 111 001a FFF7FEFF 		bl	USB_disk_initialize
 112              	.LVL11:
 113              	.L8:
 114              	.LBE3:
  85:.\diskio.c    **** 
  86:.\diskio.c    **** 		// translate the reslut code here
  87:.\diskio.c    **** 
  88:.\diskio.c    **** 		return stat;
  89:.\diskio.c    **** 	}
  90:.\diskio.c    **** 	return STA_NOINIT;
  91:.\diskio.c    **** }
 115              		.loc 1 91 0
 116 001e 0120     		movs	r0, #1
 117 0020 08BD     		pop	{r3, pc}
 118              		.cfi_endproc
 119              	.LFE1:
 120              		.size	disk_initialize, .-disk_initialize
 121 0022 00BF     		.section	.text.disk_read,"ax",%progbits
 122              		.align	2
 123              		.global	disk_read
 124              		.thumb
 125              		.thumb_func
 126              		.type	disk_read, %function
 127              	disk_read:
 128              	.LFB2:
  92:.\diskio.c    **** 
  93:.\diskio.c    **** 
  94:.\diskio.c    **** 
  95:.\diskio.c    **** /*-----------------------------------------------------------------------*/
  96:.\diskio.c    **** /* Read Sector(s)                                                        */
  97:.\diskio.c    **** /*-----------------------------------------------------------------------*/
  98:.\diskio.c    **** 
  99:.\diskio.c    **** DRESULT disk_read (
 100:.\diskio.c    **** 	BYTE pdrv,		/* Physical drive nmuber to identify the drive */
ARM GAS  C:\Users\student\AppData\Local\Temp\cc0g5IWC.s 			page 5


 101:.\diskio.c    **** 	BYTE *buff,		/* Data buffer to store read data */
 102:.\diskio.c    **** 	LBA_t sector,	/* Start sector in LBA */
 103:.\diskio.c    **** 	UINT count		/* Number of sectors to read */
 104:.\diskio.c    **** )
 105:.\diskio.c    **** {
 129              		.loc 1 105 0
 130              		.cfi_startproc
 131              		@ args = 0, pretend = 0, frame = 0
 132              		@ frame_needed = 0, uses_anonymous_args = 0
 133              	.LVL12:
 134 0000 08B5     		push	{r3, lr}
 135              		.cfi_def_cfa_offset 8
 136              		.cfi_offset 3, -8
 137              		.cfi_offset 14, -4
 106:.\diskio.c    **** 	DRESULT res;
 107:.\diskio.c    **** 	int result;
 108:.\diskio.c    **** 
 109:.\diskio.c    **** 	switch (pdrv) {
 138              		.loc 1 109 0
 139 0002 0128     		cmp	r0, #1
 140 0004 09D0     		beq	.L15
 141 0006 10B1     		cbz	r0, .L16
 142 0008 0228     		cmp	r0, #2
 143 000a 0CD0     		beq	.L17
 144 000c 10E0     		b	.L14
 145              	.L16:
 146              	.LBB4:
 110:.\diskio.c    **** 	case DEV_RAM :
 111:.\diskio.c    **** 		// translate the arguments here
 112:.\diskio.c    **** 
 113:.\diskio.c    **** 		result = RAM_disk_read(buff, sector, count);
 147              		.loc 1 113 0
 148 000e 0846     		mov	r0, r1
 149              	.LVL13:
 150 0010 1146     		mov	r1, r2
 151              	.LVL14:
 152 0012 1A46     		mov	r2, r3
 153              	.LVL15:
 154 0014 FFF7FEFF 		bl	RAM_disk_read
 155              	.LVL16:
 114:.\diskio.c    **** 
 115:.\diskio.c    **** 		// translate the reslut code here
 116:.\diskio.c    **** 
 117:.\diskio.c    **** 		return res;
 156              		.loc 1 117 0
 157 0018 0AE0     		b	.L14
 158              	.LVL17:
 159              	.L15:
 118:.\diskio.c    **** 
 119:.\diskio.c    **** 	case DEV_MMC :
 120:.\diskio.c    **** 		// translate the arguments here
 121:.\diskio.c    **** 
 122:.\diskio.c    **** 		result = MMC_disk_read(buff, sector, count);
 160              		.loc 1 122 0
 161 001a 0846     		mov	r0, r1
 162              	.LVL18:
 163 001c 1146     		mov	r1, r2
ARM GAS  C:\Users\student\AppData\Local\Temp\cc0g5IWC.s 			page 6


 164              	.LVL19:
 165 001e 1A46     		mov	r2, r3
 166              	.LVL20:
 167 0020 FFF7FEFF 		bl	MMC_disk_read
 168              	.LVL21:
 123:.\diskio.c    **** 
 124:.\diskio.c    **** 		// translate the reslut code here
 125:.\diskio.c    **** 
 126:.\diskio.c    **** 		return res;
 169              		.loc 1 126 0
 170 0024 04E0     		b	.L14
 171              	.LVL22:
 172              	.L17:
 127:.\diskio.c    **** 
 128:.\diskio.c    **** 	case DEV_USB :
 129:.\diskio.c    **** 		// translate the arguments here
 130:.\diskio.c    **** 
 131:.\diskio.c    **** 		result = USB_disk_read(buff, sector, count);
 173              		.loc 1 131 0
 174 0026 0846     		mov	r0, r1
 175              	.LVL23:
 176 0028 1146     		mov	r1, r2
 177              	.LVL24:
 178 002a 1A46     		mov	r2, r3
 179              	.LVL25:
 180 002c FFF7FEFF 		bl	USB_disk_read
 181              	.LVL26:
 182              	.L14:
 183              	.LBE4:
 132:.\diskio.c    **** 
 133:.\diskio.c    **** 		// translate the reslut code here
 134:.\diskio.c    **** 
 135:.\diskio.c    **** 		return res;
 136:.\diskio.c    **** 	}
 137:.\diskio.c    **** 
 138:.\diskio.c    **** 	return RES_PARERR;
 139:.\diskio.c    **** }
 184              		.loc 1 139 0
 185 0030 0420     		movs	r0, #4
 186 0032 08BD     		pop	{r3, pc}
 187              		.cfi_endproc
 188              	.LFE2:
 189              		.size	disk_read, .-disk_read
 190              		.section	.text.disk_write,"ax",%progbits
 191              		.align	2
 192              		.global	disk_write
 193              		.thumb
 194              		.thumb_func
 195              		.type	disk_write, %function
 196              	disk_write:
 197              	.LFB3:
 140:.\diskio.c    **** 
 141:.\diskio.c    **** 
 142:.\diskio.c    **** 
 143:.\diskio.c    **** /*-----------------------------------------------------------------------*/
 144:.\diskio.c    **** /* Write Sector(s)                                                       */
 145:.\diskio.c    **** /*-----------------------------------------------------------------------*/
ARM GAS  C:\Users\student\AppData\Local\Temp\cc0g5IWC.s 			page 7


 146:.\diskio.c    **** 
 147:.\diskio.c    **** #if FF_FS_READONLY == 0
 148:.\diskio.c    **** 
 149:.\diskio.c    **** DRESULT disk_write (
 150:.\diskio.c    **** 	BYTE pdrv,			/* Physical drive nmuber to identify the drive */
 151:.\diskio.c    **** 	const BYTE *buff,	/* Data to be written */
 152:.\diskio.c    **** 	LBA_t sector,		/* Start sector in LBA */
 153:.\diskio.c    **** 	UINT count			/* Number of sectors to write */
 154:.\diskio.c    **** )
 155:.\diskio.c    **** {
 198              		.loc 1 155 0
 199              		.cfi_startproc
 200              		@ args = 0, pretend = 0, frame = 0
 201              		@ frame_needed = 0, uses_anonymous_args = 0
 202              	.LVL27:
 203 0000 08B5     		push	{r3, lr}
 204              		.cfi_def_cfa_offset 8
 205              		.cfi_offset 3, -8
 206              		.cfi_offset 14, -4
 156:.\diskio.c    **** 	DRESULT res;
 157:.\diskio.c    **** 	int result;
 158:.\diskio.c    **** 
 159:.\diskio.c    **** 	switch (pdrv) {
 207              		.loc 1 159 0
 208 0002 0128     		cmp	r0, #1
 209 0004 09D0     		beq	.L21
 210 0006 10B1     		cbz	r0, .L22
 211 0008 0228     		cmp	r0, #2
 212 000a 0CD0     		beq	.L23
 213 000c 10E0     		b	.L20
 214              	.L22:
 215              	.LBB5:
 160:.\diskio.c    **** 	case DEV_RAM :
 161:.\diskio.c    **** 		// translate the arguments here
 162:.\diskio.c    **** 
 163:.\diskio.c    **** 		result = RAM_disk_write(buff, sector, count);
 216              		.loc 1 163 0
 217 000e 0846     		mov	r0, r1
 218              	.LVL28:
 219 0010 1146     		mov	r1, r2
 220              	.LVL29:
 221 0012 1A46     		mov	r2, r3
 222              	.LVL30:
 223 0014 FFF7FEFF 		bl	RAM_disk_write
 224              	.LVL31:
 164:.\diskio.c    **** 
 165:.\diskio.c    **** 		// translate the reslut code here
 166:.\diskio.c    **** 
 167:.\diskio.c    **** 		return res;
 225              		.loc 1 167 0
 226 0018 0AE0     		b	.L20
 227              	.LVL32:
 228              	.L21:
 168:.\diskio.c    **** 
 169:.\diskio.c    **** 	case DEV_MMC :
 170:.\diskio.c    **** 		// translate the arguments here
 171:.\diskio.c    **** 
ARM GAS  C:\Users\student\AppData\Local\Temp\cc0g5IWC.s 			page 8


 172:.\diskio.c    **** 		result = MMC_disk_write(buff, sector, count);
 229              		.loc 1 172 0
 230 001a 0846     		mov	r0, r1
 231              	.LVL33:
 232 001c 1146     		mov	r1, r2
 233              	.LVL34:
 234 001e 1A46     		mov	r2, r3
 235              	.LVL35:
 236 0020 FFF7FEFF 		bl	MMC_disk_write
 237              	.LVL36:
 173:.\diskio.c    **** 
 174:.\diskio.c    **** 		// translate the reslut code here
 175:.\diskio.c    **** 
 176:.\diskio.c    **** 		return res;
 238              		.loc 1 176 0
 239 0024 04E0     		b	.L20
 240              	.LVL37:
 241              	.L23:
 177:.\diskio.c    **** 
 178:.\diskio.c    **** 	case DEV_USB :
 179:.\diskio.c    **** 		// translate the arguments here
 180:.\diskio.c    **** 
 181:.\diskio.c    **** 		result = USB_disk_write(buff, sector, count);
 242              		.loc 1 181 0
 243 0026 0846     		mov	r0, r1
 244              	.LVL38:
 245 0028 1146     		mov	r1, r2
 246              	.LVL39:
 247 002a 1A46     		mov	r2, r3
 248              	.LVL40:
 249 002c FFF7FEFF 		bl	USB_disk_write
 250              	.LVL41:
 251              	.L20:
 252              	.LBE5:
 182:.\diskio.c    **** 
 183:.\diskio.c    **** 		// translate the reslut code here
 184:.\diskio.c    **** 
 185:.\diskio.c    **** 		return res;
 186:.\diskio.c    **** 	}
 187:.\diskio.c    **** 
 188:.\diskio.c    **** 	return RES_PARERR;
 189:.\diskio.c    **** }
 253              		.loc 1 189 0
 254 0030 0420     		movs	r0, #4
 255 0032 08BD     		pop	{r3, pc}
 256              		.cfi_endproc
 257              	.LFE3:
 258              		.size	disk_write, .-disk_write
 259              		.section	.text.disk_ioctl,"ax",%progbits
 260              		.align	2
 261              		.global	disk_ioctl
 262              		.thumb
 263              		.thumb_func
 264              		.type	disk_ioctl, %function
 265              	disk_ioctl:
 266              	.LFB4:
 190:.\diskio.c    **** 
ARM GAS  C:\Users\student\AppData\Local\Temp\cc0g5IWC.s 			page 9


 191:.\diskio.c    **** #endif
 192:.\diskio.c    **** 
 193:.\diskio.c    **** 
 194:.\diskio.c    **** /*-----------------------------------------------------------------------*/
 195:.\diskio.c    **** /* Miscellaneous Functions                                               */
 196:.\diskio.c    **** /*-----------------------------------------------------------------------*/
 197:.\diskio.c    **** 
 198:.\diskio.c    **** DRESULT disk_ioctl (
 199:.\diskio.c    **** 	BYTE pdrv,		/* Physical drive nmuber (0..) */
 200:.\diskio.c    **** 	BYTE cmd,		/* Control code */
 201:.\diskio.c    **** 	void *buff		/* Buffer to send/receive control data */
 202:.\diskio.c    **** )
 203:.\diskio.c    **** {
 267              		.loc 1 203 0
 268              		.cfi_startproc
 269              		@ args = 0, pretend = 0, frame = 0
 270              		@ frame_needed = 0, uses_anonymous_args = 0
 271              		@ link register save eliminated.
 272              	.LVL42:
 204:.\diskio.c    **** 	DRESULT res;
 205:.\diskio.c    **** 	int result;
 206:.\diskio.c    **** 
 207:.\diskio.c    **** 	switch (pdrv) {
 208:.\diskio.c    **** 	case DEV_RAM :
 209:.\diskio.c    **** 
 210:.\diskio.c    **** 		// Process of the command for the RAM drive
 211:.\diskio.c    **** 
 212:.\diskio.c    **** 		return res;
 213:.\diskio.c    **** 
 214:.\diskio.c    **** 	case DEV_MMC :
 215:.\diskio.c    **** 
 216:.\diskio.c    **** 		// Process of the command for the MMC/SD card
 217:.\diskio.c    **** 
 218:.\diskio.c    **** 		return res;
 219:.\diskio.c    **** 
 220:.\diskio.c    **** 	case DEV_USB :
 221:.\diskio.c    **** 
 222:.\diskio.c    **** 		// Process of the command the USB drive
 223:.\diskio.c    **** 
 224:.\diskio.c    **** 		return res;
 225:.\diskio.c    **** 	}
 226:.\diskio.c    **** 
 227:.\diskio.c    **** 	return RES_PARERR;
 228:.\diskio.c    **** }
 273              		.loc 1 228 0
 274 0000 0420     		movs	r0, #4
 275              	.LVL43:
 276 0002 7047     		bx	lr
 277              		.cfi_endproc
 278              	.LFE4:
 279              		.size	disk_ioctl, .-disk_ioctl
 280              		.text
 281              	.Letext0:
 282              		.file 2 ".\\ff.h"
 283              		.file 3 ".\\diskio.h"