ARM GAS  C:\Users\student\AppData\Local\Temp\ccNQwI6t.s 			page 1


   1              		.syntax unified
   2              		.cpu cortex-m3
   3              		.fpu softvfp
   4              		.eabi_attribute 20, 1
   5              		.eabi_attribute 21, 1
   6              		.eabi_attribute 23, 3
   7              		.eabi_attribute 24, 1
   8              		.eabi_attribute 25, 1
   9              		.eabi_attribute 26, 1
  10              		.eabi_attribute 30, 1
  11              		.eabi_attribute 34, 1
  12              		.eabi_attribute 18, 4
  13              		.thumb
  14              		.file	"ff.c"
  15              		.text
  16              	.Ltext0:
  17              		.cfi_sections	.debug_frame
  18              		.section	.text.ld_word,"ax",%progbits
  19              		.align	2
  20              		.thumb
  21              		.thumb_func
  22              		.type	ld_word, %function
  23              	ld_word:
  24              	.LFB0:
  25              		.file 1 ".\\ff.c"
   1:.\ff.c        **** /*----------------------------------------------------------------------------/
   2:.\ff.c        **** /  FatFs - Generic FAT Filesystem Module  R0.15 w/patch1                      /
   3:.\ff.c        **** /-----------------------------------------------------------------------------/
   4:.\ff.c        **** /
   5:.\ff.c        **** / Copyright (C) 2022, ChaN, all right reserved.
   6:.\ff.c        **** /
   7:.\ff.c        **** / FatFs module is an open source software. Redistribution and use of FatFs in
   8:.\ff.c        **** / source and binary forms, with or without modification, are permitted provided
   9:.\ff.c        **** / that the following condition is met:
  10:.\ff.c        **** /
  11:.\ff.c        **** / 1. Redistributions of source code must retain the above copyright notice,
  12:.\ff.c        **** /    this condition and the following disclaimer.
  13:.\ff.c        **** /
  14:.\ff.c        **** / This software is provided by the copyright holder and contributors "AS IS"
  15:.\ff.c        **** / and any warranties related to this software are DISCLAIMED.
  16:.\ff.c        **** / The copyright owner or contributors be NOT LIABLE for any damages caused
  17:.\ff.c        **** / by use of this software.
  18:.\ff.c        **** /
  19:.\ff.c        **** /----------------------------------------------------------------------------*/
  20:.\ff.c        **** 
  21:.\ff.c        **** 
  22:.\ff.c        **** #include <string.h>
  23:.\ff.c        **** #include "ff.h"			/* Declarations of FatFs API */
  24:.\ff.c        **** #include "diskio.h"		/* Declarations of device I/O functions */
  25:.\ff.c        **** 
  26:.\ff.c        **** 
  27:.\ff.c        **** /*--------------------------------------------------------------------------
  28:.\ff.c        **** 
  29:.\ff.c        ****    Module Private Definitions
  30:.\ff.c        **** 
  31:.\ff.c        **** ---------------------------------------------------------------------------*/
  32:.\ff.c        **** 
ARM GAS  C:\Users\student\AppData\Local\Temp\ccNQwI6t.s 			page 2


  33:.\ff.c        **** #if FF_DEFINED != 80286	/* Revision ID */
  34:.\ff.c        **** #error Wrong include file (ff.h).
  35:.\ff.c        **** #endif
  36:.\ff.c        **** 
  37:.\ff.c        **** 
  38:.\ff.c        **** /* Limits and boundaries */
  39:.\ff.c        **** #define MAX_DIR		0x200000		/* Max size of FAT directory */
  40:.\ff.c        **** #define MAX_DIR_EX	0x10000000		/* Max size of exFAT directory */
  41:.\ff.c        **** #define MAX_FAT12	0xFF5			/* Max FAT12 clusters (differs from specs, but right for real DOS/Windows
  42:.\ff.c        **** #define MAX_FAT16	0xFFF5			/* Max FAT16 clusters (differs from specs, but right for real DOS/Window
  43:.\ff.c        **** #define MAX_FAT32	0x0FFFFFF5		/* Max FAT32 clusters (not specified, practical limit) */
  44:.\ff.c        **** #define MAX_EXFAT	0x7FFFFFFD		/* Max exFAT clusters (differs from specs, implementation limit) */
  45:.\ff.c        **** 
  46:.\ff.c        **** 
  47:.\ff.c        **** /* Character code support macros */
  48:.\ff.c        **** #define IsUpper(c)		((c) >= 'A' && (c) <= 'Z')
  49:.\ff.c        **** #define IsLower(c)		((c) >= 'a' && (c) <= 'z')
  50:.\ff.c        **** #define IsDigit(c)		((c) >= '0' && (c) <= '9')
  51:.\ff.c        **** #define IsSeparator(c)	((c) == '/' || (c) == '\\')
  52:.\ff.c        **** #define IsTerminator(c)	((UINT)(c) < (FF_USE_LFN ? ' ' : '!'))
  53:.\ff.c        **** #define IsSurrogate(c)	((c) >= 0xD800 && (c) <= 0xDFFF)
  54:.\ff.c        **** #define IsSurrogateH(c)	((c) >= 0xD800 && (c) <= 0xDBFF)
  55:.\ff.c        **** #define IsSurrogateL(c)	((c) >= 0xDC00 && (c) <= 0xDFFF)
  56:.\ff.c        **** 
  57:.\ff.c        **** 
  58:.\ff.c        **** /* Additional file access control and file status flags for internal use */
  59:.\ff.c        **** #define FA_SEEKEND	0x20	/* Seek to end of the file on file open */
  60:.\ff.c        **** #define FA_MODIFIED	0x40	/* File has been modified */
  61:.\ff.c        **** #define FA_DIRTY	0x80	/* FIL.buf[] needs to be written-back */
  62:.\ff.c        **** 
  63:.\ff.c        **** 
  64:.\ff.c        **** /* Additional file attribute bits for internal use */
  65:.\ff.c        **** #define AM_VOL		0x08	/* Volume label */
  66:.\ff.c        **** #define AM_LFN		0x0F	/* LFN entry */
  67:.\ff.c        **** #define AM_MASK		0x3F	/* Mask of defined bits in FAT */
  68:.\ff.c        **** #define AM_MASKX	0x37	/* Mask of defined bits in exFAT */
  69:.\ff.c        **** 
  70:.\ff.c        **** 
  71:.\ff.c        **** /* Name status flags in fn[11] */
  72:.\ff.c        **** #define NSFLAG		11		/* Index of the name status byte */
  73:.\ff.c        **** #define NS_LOSS		0x01	/* Out of 8.3 format */
  74:.\ff.c        **** #define NS_LFN		0x02	/* Force to create LFN entry */
  75:.\ff.c        **** #define NS_LAST		0x04	/* Last segment */
  76:.\ff.c        **** #define NS_BODY		0x08	/* Lower case flag (body) */
  77:.\ff.c        **** #define NS_EXT		0x10	/* Lower case flag (ext) */
  78:.\ff.c        **** #define NS_DOT		0x20	/* Dot entry */
  79:.\ff.c        **** #define NS_NOLFN	0x40	/* Do not find LFN */
  80:.\ff.c        **** #define NS_NONAME	0x80	/* Not followed */
  81:.\ff.c        **** 
  82:.\ff.c        **** 
  83:.\ff.c        **** /* exFAT directory entry types */
  84:.\ff.c        **** #define	ET_BITMAP	0x81	/* Allocation bitmap */
  85:.\ff.c        **** #define	ET_UPCASE	0x82	/* Up-case table */
  86:.\ff.c        **** #define	ET_VLABEL	0x83	/* Volume label */
  87:.\ff.c        **** #define	ET_FILEDIR	0x85	/* File and directory */
  88:.\ff.c        **** #define	ET_STREAM	0xC0	/* Stream extension */
  89:.\ff.c        **** #define	ET_FILENAME	0xC1	/* Name extension */
ARM GAS  C:\Users\student\AppData\Local\Temp\ccNQwI6t.s 			page 3


  90:.\ff.c        **** 
  91:.\ff.c        **** 
  92:.\ff.c        **** /* FatFs refers the FAT structure as simple byte array instead of structure member
  93:.\ff.c        **** / because the C structure is not binary compatible between different platforms */
  94:.\ff.c        **** 
  95:.\ff.c        **** #define BS_JmpBoot			0		/* x86 jump instruction (3-byte) */
  96:.\ff.c        **** #define BS_OEMName			3		/* OEM name (8-byte) */
  97:.\ff.c        **** #define BPB_BytsPerSec		11		/* Sector size [byte] (WORD) */
  98:.\ff.c        **** #define BPB_SecPerClus		13		/* Cluster size [sector] (BYTE) */
  99:.\ff.c        **** #define BPB_RsvdSecCnt		14		/* Size of reserved area [sector] (WORD) */
 100:.\ff.c        **** #define BPB_NumFATs			16		/* Number of FATs (BYTE) */
 101:.\ff.c        **** #define BPB_RootEntCnt		17		/* Size of root directory area for FAT [entry] (WORD) */
 102:.\ff.c        **** #define BPB_TotSec16		19		/* Volume size (16-bit) [sector] (WORD) */
 103:.\ff.c        **** #define BPB_Media			21		/* Media descriptor byte (BYTE) */
 104:.\ff.c        **** #define BPB_FATSz16			22		/* FAT size (16-bit) [sector] (WORD) */
 105:.\ff.c        **** #define BPB_SecPerTrk		24		/* Number of sectors per track for int13h [sector] (WORD) */
 106:.\ff.c        **** #define BPB_NumHeads		26		/* Number of heads for int13h (WORD) */
 107:.\ff.c        **** #define BPB_HiddSec			28		/* Volume offset from top of the drive (DWORD) */
 108:.\ff.c        **** #define BPB_TotSec32		32		/* Volume size (32-bit) [sector] (DWORD) */
 109:.\ff.c        **** #define BS_DrvNum			36		/* Physical drive number for int13h (BYTE) */
 110:.\ff.c        **** #define BS_NTres			37		/* WindowsNT error flag (BYTE) */
 111:.\ff.c        **** #define BS_BootSig			38		/* Extended boot signature (BYTE) */
 112:.\ff.c        **** #define BS_VolID			39		/* Volume serial number (DWORD) */
 113:.\ff.c        **** #define BS_VolLab			43		/* Volume label string (8-byte) */
 114:.\ff.c        **** #define BS_FilSysType		54		/* Filesystem type string (8-byte) */
 115:.\ff.c        **** #define BS_BootCode			62		/* Boot code (448-byte) */
 116:.\ff.c        **** #define BS_55AA				510		/* Signature word (WORD) */
 117:.\ff.c        **** 
 118:.\ff.c        **** #define BPB_FATSz32			36		/* FAT32: FAT size [sector] (DWORD) */
 119:.\ff.c        **** #define BPB_ExtFlags32		40		/* FAT32: Extended flags (WORD) */
 120:.\ff.c        **** #define BPB_FSVer32			42		/* FAT32: Filesystem version (WORD) */
 121:.\ff.c        **** #define BPB_RootClus32		44		/* FAT32: Root directory cluster (DWORD) */
 122:.\ff.c        **** #define BPB_FSInfo32		48		/* FAT32: Offset of FSINFO sector (WORD) */
 123:.\ff.c        **** #define BPB_BkBootSec32		50		/* FAT32: Offset of backup boot sector (WORD) */
 124:.\ff.c        **** #define BS_DrvNum32			64		/* FAT32: Physical drive number for int13h (BYTE) */
 125:.\ff.c        **** #define BS_NTres32			65		/* FAT32: Error flag (BYTE) */
 126:.\ff.c        **** #define BS_BootSig32		66		/* FAT32: Extended boot signature (BYTE) */
 127:.\ff.c        **** #define BS_VolID32			67		/* FAT32: Volume serial number (DWORD) */
 128:.\ff.c        **** #define BS_VolLab32			71		/* FAT32: Volume label string (8-byte) */
 129:.\ff.c        **** #define BS_FilSysType32		82		/* FAT32: Filesystem type string (8-byte) */
 130:.\ff.c        **** #define BS_BootCode32		90		/* FAT32: Boot code (420-byte) */
 131:.\ff.c        **** 
 132:.\ff.c        **** #define BPB_ZeroedEx		11		/* exFAT: MBZ field (53-byte) */
 133:.\ff.c        **** #define BPB_VolOfsEx		64		/* exFAT: Volume offset from top of the drive [sector] (QWORD) */
 134:.\ff.c        **** #define BPB_TotSecEx		72		/* exFAT: Volume size [sector] (QWORD) */
 135:.\ff.c        **** #define BPB_FatOfsEx		80		/* exFAT: FAT offset from top of the volume [sector] (DWORD) */
 136:.\ff.c        **** #define BPB_FatSzEx			84		/* exFAT: FAT size [sector] (DWORD) */
 137:.\ff.c        **** #define BPB_DataOfsEx		88		/* exFAT: Data offset from top of the volume [sector] (DWORD) */
 138:.\ff.c        **** #define BPB_NumClusEx		92		/* exFAT: Number of clusters (DWORD) */
 139:.\ff.c        **** #define BPB_RootClusEx		96		/* exFAT: Root directory start cluster (DWORD) */
 140:.\ff.c        **** #define BPB_VolIDEx			100		/* exFAT: Volume serial number (DWORD) */
 141:.\ff.c        **** #define BPB_FSVerEx			104		/* exFAT: Filesystem version (WORD) */
 142:.\ff.c        **** #define BPB_VolFlagEx		106		/* exFAT: Volume flags (WORD) */
 143:.\ff.c        **** #define BPB_BytsPerSecEx	108		/* exFAT: Log2 of sector size in unit of byte (BYTE) */
 144:.\ff.c        **** #define BPB_SecPerClusEx	109		/* exFAT: Log2 of cluster size in unit of sector (BYTE) */
 145:.\ff.c        **** #define BPB_NumFATsEx		110		/* exFAT: Number of FATs (BYTE) */
 146:.\ff.c        **** #define BPB_DrvNumEx		111		/* exFAT: Physical drive number for int13h (BYTE) */
ARM GAS  C:\Users\student\AppData\Local\Temp\ccNQwI6t.s 			page 4


 147:.\ff.c        **** #define BPB_PercInUseEx		112		/* exFAT: Percent in use (BYTE) */
 148:.\ff.c        **** #define BPB_RsvdEx			113		/* exFAT: Reserved (7-byte) */
 149:.\ff.c        **** #define BS_BootCodeEx		120		/* exFAT: Boot code (390-byte) */
 150:.\ff.c        **** 
 151:.\ff.c        **** #define DIR_Name			0		/* Short file name (11-byte) */
 152:.\ff.c        **** #define DIR_Attr			11		/* Attribute (BYTE) */
 153:.\ff.c        **** #define DIR_NTres			12		/* Lower case flag (BYTE) */
 154:.\ff.c        **** #define DIR_CrtTime10		13		/* Created time sub-second (BYTE) */
 155:.\ff.c        **** #define DIR_CrtTime			14		/* Created time (DWORD) */
 156:.\ff.c        **** #define DIR_LstAccDate		18		/* Last accessed date (WORD) */
 157:.\ff.c        **** #define DIR_FstClusHI		20		/* Higher 16-bit of first cluster (WORD) */
 158:.\ff.c        **** #define DIR_ModTime			22		/* Modified time (DWORD) */
 159:.\ff.c        **** #define DIR_FstClusLO		26		/* Lower 16-bit of first cluster (WORD) */
 160:.\ff.c        **** #define DIR_FileSize		28		/* File size (DWORD) */
 161:.\ff.c        **** #define LDIR_Ord			0		/* LFN: LFN order and LLE flag (BYTE) */
 162:.\ff.c        **** #define LDIR_Attr			11		/* LFN: LFN attribute (BYTE) */
 163:.\ff.c        **** #define LDIR_Type			12		/* LFN: Entry type (BYTE) */
 164:.\ff.c        **** #define LDIR_Chksum			13		/* LFN: Checksum of the SFN (BYTE) */
 165:.\ff.c        **** #define LDIR_FstClusLO		26		/* LFN: MBZ field (WORD) */
 166:.\ff.c        **** #define XDIR_Type			0		/* exFAT: Type of exFAT directory entry (BYTE) */
 167:.\ff.c        **** #define XDIR_NumLabel		1		/* exFAT: Number of volume label characters (BYTE) */
 168:.\ff.c        **** #define XDIR_Label			2		/* exFAT: Volume label (11-WORD) */
 169:.\ff.c        **** #define XDIR_CaseSum		4		/* exFAT: Sum of case conversion table (DWORD) */
 170:.\ff.c        **** #define XDIR_NumSec			1		/* exFAT: Number of secondary entries (BYTE) */
 171:.\ff.c        **** #define XDIR_SetSum			2		/* exFAT: Sum of the set of directory entries (WORD) */
 172:.\ff.c        **** #define XDIR_Attr			4		/* exFAT: File attribute (WORD) */
 173:.\ff.c        **** #define XDIR_CrtTime		8		/* exFAT: Created time (DWORD) */
 174:.\ff.c        **** #define XDIR_ModTime		12		/* exFAT: Modified time (DWORD) */
 175:.\ff.c        **** #define XDIR_AccTime		16		/* exFAT: Last accessed time (DWORD) */
 176:.\ff.c        **** #define XDIR_CrtTime10		20		/* exFAT: Created time subsecond (BYTE) */
 177:.\ff.c        **** #define XDIR_ModTime10		21		/* exFAT: Modified time subsecond (BYTE) */
 178:.\ff.c        **** #define XDIR_CrtTZ			22		/* exFAT: Created timezone (BYTE) */
 179:.\ff.c        **** #define XDIR_ModTZ			23		/* exFAT: Modified timezone (BYTE) */
 180:.\ff.c        **** #define XDIR_AccTZ			24		/* exFAT: Last accessed timezone (BYTE) */
 181:.\ff.c        **** #define XDIR_GenFlags		33		/* exFAT: General secondary flags (BYTE) */
 182:.\ff.c        **** #define XDIR_NumName		35		/* exFAT: Number of file name characters (BYTE) */
 183:.\ff.c        **** #define XDIR_NameHash		36		/* exFAT: Hash of file name (WORD) */
 184:.\ff.c        **** #define XDIR_ValidFileSize	40		/* exFAT: Valid file size (QWORD) */
 185:.\ff.c        **** #define XDIR_FstClus		52		/* exFAT: First cluster of the file data (DWORD) */
 186:.\ff.c        **** #define XDIR_FileSize		56		/* exFAT: File/Directory size (QWORD) */
 187:.\ff.c        **** 
 188:.\ff.c        **** #define SZDIRE				32		/* Size of a directory entry */
 189:.\ff.c        **** #define DDEM				0xE5	/* Deleted directory entry mark set to DIR_Name[0] */
 190:.\ff.c        **** #define RDDEM				0x05	/* Replacement of the character collides with DDEM */
 191:.\ff.c        **** #define LLEF				0x40	/* Last long entry flag in LDIR_Ord */
 192:.\ff.c        **** 
 193:.\ff.c        **** #define FSI_LeadSig			0		/* FAT32 FSI: Leading signature (DWORD) */
 194:.\ff.c        **** #define FSI_StrucSig		484		/* FAT32 FSI: Structure signature (DWORD) */
 195:.\ff.c        **** #define FSI_Free_Count		488		/* FAT32 FSI: Number of free clusters (DWORD) */
 196:.\ff.c        **** #define FSI_Nxt_Free		492		/* FAT32 FSI: Last allocated cluster (DWORD) */
 197:.\ff.c        **** 
 198:.\ff.c        **** #define MBR_Table			446		/* MBR: Offset of partition table in the MBR */
 199:.\ff.c        **** #define SZ_PTE				16		/* MBR: Size of a partition table entry */
 200:.\ff.c        **** #define PTE_Boot			0		/* MBR PTE: Boot indicator */
 201:.\ff.c        **** #define PTE_StHead			1		/* MBR PTE: Start head */
 202:.\ff.c        **** #define PTE_StSec			2		/* MBR PTE: Start sector */
 203:.\ff.c        **** #define PTE_StCyl			3		/* MBR PTE: Start cylinder */
ARM GAS  C:\Users\student\AppData\Local\Temp\ccNQwI6t.s 			page 5


 204:.\ff.c        **** #define PTE_System			4		/* MBR PTE: System ID */
 205:.\ff.c        **** #define PTE_EdHead			5		/* MBR PTE: End head */
 206:.\ff.c        **** #define PTE_EdSec			6		/* MBR PTE: End sector */
 207:.\ff.c        **** #define PTE_EdCyl			7		/* MBR PTE: End cylinder */
 208:.\ff.c        **** #define PTE_StLba			8		/* MBR PTE: Start in LBA */
 209:.\ff.c        **** #define PTE_SizLba			12		/* MBR PTE: Size in LBA */
 210:.\ff.c        **** 
 211:.\ff.c        **** #define GPTH_Sign			0		/* GPT HDR: Signature (8-byte) */
 212:.\ff.c        **** #define GPTH_Rev			8		/* GPT HDR: Revision (DWORD) */
 213:.\ff.c        **** #define GPTH_Size			12		/* GPT HDR: Header size (DWORD) */
 214:.\ff.c        **** #define GPTH_Bcc			16		/* GPT HDR: Header BCC (DWORD) */
 215:.\ff.c        **** #define GPTH_CurLba			24		/* GPT HDR: This header LBA (QWORD) */
 216:.\ff.c        **** #define GPTH_BakLba			32		/* GPT HDR: Another header LBA (QWORD) */
 217:.\ff.c        **** #define GPTH_FstLba			40		/* GPT HDR: First LBA for partition data (QWORD) */
 218:.\ff.c        **** #define GPTH_LstLba			48		/* GPT HDR: Last LBA for partition data (QWORD) */
 219:.\ff.c        **** #define GPTH_DskGuid		56		/* GPT HDR: Disk GUID (16-byte) */
 220:.\ff.c        **** #define GPTH_PtOfs			72		/* GPT HDR: Partition table LBA (QWORD) */
 221:.\ff.c        **** #define GPTH_PtNum			80		/* GPT HDR: Number of table entries (DWORD) */
 222:.\ff.c        **** #define GPTH_PteSize		84		/* GPT HDR: Size of table entry (DWORD) */
 223:.\ff.c        **** #define GPTH_PtBcc			88		/* GPT HDR: Partition table BCC (DWORD) */
 224:.\ff.c        **** #define SZ_GPTE				128		/* GPT PTE: Size of partition table entry */
 225:.\ff.c        **** #define GPTE_PtGuid			0		/* GPT PTE: Partition type GUID (16-byte) */
 226:.\ff.c        **** #define GPTE_UpGuid			16		/* GPT PTE: Partition unique GUID (16-byte) */
 227:.\ff.c        **** #define GPTE_FstLba			32		/* GPT PTE: First LBA of partition (QWORD) */
 228:.\ff.c        **** #define GPTE_LstLba			40		/* GPT PTE: Last LBA of partition (QWORD) */
 229:.\ff.c        **** #define GPTE_Flags			48		/* GPT PTE: Partition flags (QWORD) */
 230:.\ff.c        **** #define GPTE_Name			56		/* GPT PTE: Partition name */
 231:.\ff.c        **** 
 232:.\ff.c        **** 
 233:.\ff.c        **** /* Post process on fatal error in the file operations */
 234:.\ff.c        **** #define ABORT(fs, res)		{ fp->err = (BYTE)(res); LEAVE_FF(fs, res); }
 235:.\ff.c        **** 
 236:.\ff.c        **** 
 237:.\ff.c        **** /* Re-entrancy related */
 238:.\ff.c        **** #if FF_FS_REENTRANT
 239:.\ff.c        **** #if FF_USE_LFN == 1
 240:.\ff.c        **** #error Static LFN work area cannot be used in thread-safe configuration
 241:.\ff.c        **** #endif
 242:.\ff.c        **** #define LEAVE_FF(fs, res)	{ unlock_volume(fs, res); return res; }
 243:.\ff.c        **** #else
 244:.\ff.c        **** #define LEAVE_FF(fs, res)	return res
 245:.\ff.c        **** #endif
 246:.\ff.c        **** 
 247:.\ff.c        **** 
 248:.\ff.c        **** /* Definitions of logical drive - physical location conversion */
 249:.\ff.c        **** #if FF_MULTI_PARTITION
 250:.\ff.c        **** #define LD2PD(vol) VolToPart[vol].pd	/* Get physical drive number */
 251:.\ff.c        **** #define LD2PT(vol) VolToPart[vol].pt	/* Get partition number (0:auto search, 1..:forced partition n
 252:.\ff.c        **** #else
 253:.\ff.c        **** #define LD2PD(vol) (BYTE)(vol)	/* Each logical drive is associated with the same physical drive num
 254:.\ff.c        **** #define LD2PT(vol) 0			/* Auto partition search */
 255:.\ff.c        **** #endif
 256:.\ff.c        **** 
 257:.\ff.c        **** 
 258:.\ff.c        **** /* Definitions of sector size */
 259:.\ff.c        **** #if (FF_MAX_SS < FF_MIN_SS) || (FF_MAX_SS != 512 && FF_MAX_SS != 1024 && FF_MAX_SS != 2048 && FF_MA
 260:.\ff.c        **** #error Wrong sector size configuration
ARM GAS  C:\Users\student\AppData\Local\Temp\ccNQwI6t.s 			page 6


 261:.\ff.c        **** #endif
 262:.\ff.c        **** #if FF_MAX_SS == FF_MIN_SS
 263:.\ff.c        **** #define SS(fs)	((UINT)FF_MAX_SS)	/* Fixed sector size */
 264:.\ff.c        **** #else
 265:.\ff.c        **** #define SS(fs)	((fs)->ssize)	/* Variable sector size */
 266:.\ff.c        **** #endif
 267:.\ff.c        **** 
 268:.\ff.c        **** 
 269:.\ff.c        **** /* Timestamp */
 270:.\ff.c        **** #if FF_FS_NORTC == 1
 271:.\ff.c        **** #if FF_NORTC_YEAR < 1980 || FF_NORTC_YEAR > 2107 || FF_NORTC_MON < 1 || FF_NORTC_MON > 12 || FF_NOR
 272:.\ff.c        **** #error Invalid FF_FS_NORTC settings
 273:.\ff.c        **** #endif
 274:.\ff.c        **** #define GET_FATTIME()	((DWORD)(FF_NORTC_YEAR - 1980) << 25 | (DWORD)FF_NORTC_MON << 21 | (DWORD)FF_
 275:.\ff.c        **** #else
 276:.\ff.c        **** #define GET_FATTIME()	get_fattime()
 277:.\ff.c        **** #endif
 278:.\ff.c        **** 
 279:.\ff.c        **** 
 280:.\ff.c        **** /* File lock controls */
 281:.\ff.c        **** #if FF_FS_LOCK
 282:.\ff.c        **** #if FF_FS_READONLY
 283:.\ff.c        **** #error FF_FS_LOCK must be 0 at read-only configuration
 284:.\ff.c        **** #endif
 285:.\ff.c        **** typedef struct {
 286:.\ff.c        **** 	FATFS* fs;		/* Object ID 1, volume (NULL:blank entry) */
 287:.\ff.c        **** 	DWORD clu;		/* Object ID 2, containing directory (0:root) */
 288:.\ff.c        **** 	DWORD ofs;		/* Object ID 3, offset in the directory */
 289:.\ff.c        **** 	UINT ctr;		/* Object open counter, 0:none, 0x01..0xFF:read mode open count, 0x100:write mode */
 290:.\ff.c        **** } FILESEM;
 291:.\ff.c        **** #endif
 292:.\ff.c        **** 
 293:.\ff.c        **** 
 294:.\ff.c        **** /* SBCS up-case tables (\x80-\xFF) */
 295:.\ff.c        **** #define TBL_CT437  {0x80,0x9A,0x45,0x41,0x8E,0x41,0x8F,0x80,0x45,0x45,0x45,0x49,0x49,0x49,0x8E,0x8F
 296:.\ff.c        **** 					0x90,0x92,0x92,0x4F,0x99,0x4F,0x55,0x55,0x59,0x99,0x9A,0x9B,0x9C,0x9D,0x9E,0x9F, \
 297:.\ff.c        **** 					0x41,0x49,0x4F,0x55,0xA5,0xA5,0xA6,0xA7,0xA8,0xA9,0xAA,0xAB,0xAC,0xAD,0xAE,0xAF, \
 298:.\ff.c        **** 					0xB0,0xB1,0xB2,0xB3,0xB4,0xB5,0xB6,0xB7,0xB8,0xB9,0xBA,0xBB,0xBC,0xBD,0xBE,0xBF, \
 299:.\ff.c        **** 					0xC0,0xC1,0xC2,0xC3,0xC4,0xC5,0xC6,0xC7,0xC8,0xC9,0xCA,0xCB,0xCC,0xCD,0xCE,0xCF, \
 300:.\ff.c        **** 					0xD0,0xD1,0xD2,0xD3,0xD4,0xD5,0xD6,0xD7,0xD8,0xD9,0xDA,0xDB,0xDC,0xDD,0xDE,0xDF, \
 301:.\ff.c        **** 					0xE0,0xE1,0xE2,0xE3,0xE4,0xE5,0xE6,0xE7,0xE8,0xE9,0xEA,0xEB,0xEC,0xED,0xEE,0xEF, \
 302:.\ff.c        **** 					0xF0,0xF1,0xF2,0xF3,0xF4,0xF5,0xF6,0xF7,0xF8,0xF9,0xFA,0xFB,0xFC,0xFD,0xFE,0xFF}
 303:.\ff.c        **** #define TBL_CT720  {0x80,0x81,0x82,0x83,0x84,0x85,0x86,0x87,0x88,0x89,0x8A,0x8B,0x8C,0x8D,0x8E,0x8F
 304:.\ff.c        **** 					0x90,0x91,0x92,0x93,0x94,0x95,0x96,0x97,0x98,0x99,0x9A,0x9B,0x9C,0x9D,0x9E,0x9F, \
 305:.\ff.c        **** 					0xA0,0xA1,0xA2,0xA3,0xA4,0xA5,0xA6,0xA7,0xA8,0xA9,0xAA,0xAB,0xAC,0xAD,0xAE,0xAF, \
 306:.\ff.c        **** 					0xB0,0xB1,0xB2,0xB3,0xB4,0xB5,0xB6,0xB7,0xB8,0xB9,0xBA,0xBB,0xBC,0xBD,0xBE,0xBF, \
 307:.\ff.c        **** 					0xC0,0xC1,0xC2,0xC3,0xC4,0xC5,0xC6,0xC7,0xC8,0xC9,0xCA,0xCB,0xCC,0xCD,0xCE,0xCF, \
 308:.\ff.c        **** 					0xD0,0xD1,0xD2,0xD3,0xD4,0xD5,0xD6,0xD7,0xD8,0xD9,0xDA,0xDB,0xDC,0xDD,0xDE,0xDF, \
 309:.\ff.c        **** 					0xE0,0xE1,0xE2,0xE3,0xE4,0xE5,0xE6,0xE7,0xE8,0xE9,0xEA,0xEB,0xEC,0xED,0xEE,0xEF, \
 310:.\ff.c        **** 					0xF0,0xF1,0xF2,0xF3,0xF4,0xF5,0xF6,0xF7,0xF8,0xF9,0xFA,0xFB,0xFC,0xFD,0xFE,0xFF}
 311:.\ff.c        **** #define TBL_CT737  {0x80,0x81,0x82,0x83,0x84,0x85,0x86,0x87,0x88,0x89,0x8A,0x8B,0x8C,0x8D,0x8E,0x8F
 312:.\ff.c        **** 					0x90,0x92,0x92,0x93,0x94,0x95,0x96,0x97,0x80,0x81,0x82,0x83,0x84,0x85,0x86,0x87, \
 313:.\ff.c        **** 					0x88,0x89,0x8A,0x8B,0x8C,0x8D,0x8E,0x8F,0x90,0x91,0xAA,0x92,0x93,0x94,0x95,0x96, \
 314:.\ff.c        **** 					0xB0,0xB1,0xB2,0xB3,0xB4,0xB5,0xB6,0xB7,0xB8,0xB9,0xBA,0xBB,0xBC,0xBD,0xBE,0xBF, \
 315:.\ff.c        **** 					0xC0,0xC1,0xC2,0xC3,0xC4,0xC5,0xC6,0xC7,0xC8,0xC9,0xCA,0xCB,0xCC,0xCD,0xCE,0xCF, \
 316:.\ff.c        **** 					0xD0,0xD1,0xD2,0xD3,0xD4,0xD5,0xD6,0xD7,0xD8,0xD9,0xDA,0xDB,0xDC,0xDD,0xDE,0xDF, \
 317:.\ff.c        **** 					0x97,0xEA,0xEB,0xEC,0xE4,0xED,0xEE,0xEF,0xF5,0xF0,0xEA,0xEB,0xEC,0xED,0xEE,0xEF, \
ARM GAS  C:\Users\student\AppData\Local\Temp\ccNQwI6t.s 			page 7


 318:.\ff.c        **** 					0xF0,0xF1,0xF2,0xF3,0xF4,0xF5,0xF6,0xF7,0xF8,0xF9,0xFA,0xFB,0xFC,0xFD,0xFE,0xFF}
 319:.\ff.c        **** #define TBL_CT771  {0x80,0x81,0x82,0x83,0x84,0x85,0x86,0x87,0x88,0x89,0x8A,0x8B,0x8C,0x8D,0x8E,0x8F
 320:.\ff.c        **** 					0x90,0x91,0x92,0x93,0x94,0x95,0x96,0x97,0x98,0x99,0x9A,0x9B,0x9C,0x9D,0x9E,0x9F, \
 321:.\ff.c        **** 					0x80,0x81,0x82,0x83,0x84,0x85,0x86,0x87,0x88,0x89,0x8A,0x8B,0x8C,0x8D,0x8E,0x8F, \
 322:.\ff.c        **** 					0xB0,0xB1,0xB2,0xB3,0xB4,0xB5,0xB6,0xB7,0xB8,0xB9,0xBA,0xBB,0xBC,0xBD,0xBE,0xBF, \
 323:.\ff.c        **** 					0xC0,0xC1,0xC2,0xC3,0xC4,0xC5,0xC6,0xC7,0xC8,0xC9,0xCA,0xCB,0xCC,0xCD,0xCE,0xCF, \
 324:.\ff.c        **** 					0xD0,0xD1,0xD2,0xD3,0xD4,0xD5,0xD6,0xD7,0xD8,0xD9,0xDA,0xDB,0xDC,0xDC,0xDE,0xDE, \
 325:.\ff.c        **** 					0x90,0x91,0x92,0x93,0x94,0x95,0x96,0x97,0x98,0x99,0x9A,0x9B,0x9C,0x9D,0x9E,0x9F, \
 326:.\ff.c        **** 					0xF0,0xF0,0xF2,0xF2,0xF4,0xF4,0xF6,0xF6,0xF8,0xF8,0xFA,0xFA,0xFC,0xFC,0xFE,0xFF}
 327:.\ff.c        **** #define TBL_CT775  {0x80,0x9A,0x91,0xA0,0x8E,0x95,0x8F,0x80,0xAD,0xED,0x8A,0x8A,0xA1,0x8D,0x8E,0x8F
 328:.\ff.c        **** 					0x90,0x92,0x92,0xE2,0x99,0x95,0x96,0x97,0x97,0x99,0x9A,0x9D,0x9C,0x9D,0x9E,0x9F, \
 329:.\ff.c        **** 					0xA0,0xA1,0xE0,0xA3,0xA3,0xA5,0xA6,0xA7,0xA8,0xA9,0xAA,0xAB,0xAC,0xAD,0xAE,0xAF, \
 330:.\ff.c        **** 					0xB0,0xB1,0xB2,0xB3,0xB4,0xB5,0xB6,0xB7,0xB8,0xB9,0xBA,0xBB,0xBC,0xBD,0xBE,0xBF, \
 331:.\ff.c        **** 					0xC0,0xC1,0xC2,0xC3,0xC4,0xC5,0xC6,0xC7,0xC8,0xC9,0xCA,0xCB,0xCC,0xCD,0xCE,0xCF, \
 332:.\ff.c        **** 					0xB5,0xB6,0xB7,0xB8,0xBD,0xBE,0xC6,0xC7,0xA5,0xD9,0xDA,0xDB,0xDC,0xDD,0xDE,0xDF, \
 333:.\ff.c        **** 					0xE0,0xE1,0xE2,0xE3,0xE5,0xE5,0xE6,0xE3,0xE8,0xE8,0xEA,0xEA,0xEE,0xED,0xEE,0xEF, \
 334:.\ff.c        **** 					0xF0,0xF1,0xF2,0xF3,0xF4,0xF5,0xF6,0xF7,0xF8,0xF9,0xFA,0xFB,0xFC,0xFD,0xFE,0xFF}
 335:.\ff.c        **** #define TBL_CT850  {0x43,0x55,0x45,0x41,0x41,0x41,0x41,0x43,0x45,0x45,0x45,0x49,0x49,0x49,0x41,0x41
 336:.\ff.c        **** 					0x45,0x92,0x92,0x4F,0x4F,0x4F,0x55,0x55,0x59,0x4F,0x55,0x4F,0x9C,0x4F,0x9E,0x9F, \
 337:.\ff.c        **** 					0x41,0x49,0x4F,0x55,0xA5,0xA5,0xA6,0xA7,0xA8,0xA9,0xAA,0xAB,0xAC,0xAD,0xAE,0xAF, \
 338:.\ff.c        **** 					0xB0,0xB1,0xB2,0xB3,0xB4,0x41,0x41,0x41,0xB8,0xB9,0xBA,0xBB,0xBC,0xBD,0xBE,0xBF, \
 339:.\ff.c        **** 					0xC0,0xC1,0xC2,0xC3,0xC4,0xC5,0x41,0x41,0xC8,0xC9,0xCA,0xCB,0xCC,0xCD,0xCE,0xCF, \
 340:.\ff.c        **** 					0xD1,0xD1,0x45,0x45,0x45,0x49,0x49,0x49,0x49,0xD9,0xDA,0xDB,0xDC,0xDD,0x49,0xDF, \
 341:.\ff.c        **** 					0x4F,0xE1,0x4F,0x4F,0x4F,0x4F,0xE6,0xE8,0xE8,0x55,0x55,0x55,0x59,0x59,0xEE,0xEF, \
 342:.\ff.c        **** 					0xF0,0xF1,0xF2,0xF3,0xF4,0xF5,0xF6,0xF7,0xF8,0xF9,0xFA,0xFB,0xFC,0xFD,0xFE,0xFF}
 343:.\ff.c        **** #define TBL_CT852  {0x80,0x9A,0x90,0xB6,0x8E,0xDE,0x8F,0x80,0x9D,0xD3,0x8A,0x8A,0xD7,0x8D,0x8E,0x8F
 344:.\ff.c        **** 					0x90,0x91,0x91,0xE2,0x99,0x95,0x95,0x97,0x97,0x99,0x9A,0x9B,0x9B,0x9D,0x9E,0xAC, \
 345:.\ff.c        **** 					0xB5,0xD6,0xE0,0xE9,0xA4,0xA4,0xA6,0xA6,0xA8,0xA8,0xAA,0x8D,0xAC,0xB8,0xAE,0xAF, \
 346:.\ff.c        **** 					0xB0,0xB1,0xB2,0xB3,0xB4,0xB5,0xB6,0xB7,0xB8,0xB9,0xBA,0xBB,0xBC,0xBD,0xBD,0xBF, \
 347:.\ff.c        **** 					0xC0,0xC1,0xC2,0xC3,0xC4,0xC5,0xC6,0xC6,0xC8,0xC9,0xCA,0xCB,0xCC,0xCD,0xCE,0xCF, \
 348:.\ff.c        **** 					0xD1,0xD1,0xD2,0xD3,0xD2,0xD5,0xD6,0xD7,0xB7,0xD9,0xDA,0xDB,0xDC,0xDD,0xDE,0xDF, \
 349:.\ff.c        **** 					0xE0,0xE1,0xE2,0xE3,0xE3,0xD5,0xE6,0xE6,0xE8,0xE9,0xE8,0xEB,0xED,0xED,0xDD,0xEF, \
 350:.\ff.c        **** 					0xF0,0xF1,0xF2,0xF3,0xF4,0xF5,0xF6,0xF7,0xF8,0xF9,0xFA,0xEB,0xFC,0xFC,0xFE,0xFF}
 351:.\ff.c        **** #define TBL_CT855  {0x81,0x81,0x83,0x83,0x85,0x85,0x87,0x87,0x89,0x89,0x8B,0x8B,0x8D,0x8D,0x8F,0x8F
 352:.\ff.c        **** 					0x91,0x91,0x93,0x93,0x95,0x95,0x97,0x97,0x99,0x99,0x9B,0x9B,0x9D,0x9D,0x9F,0x9F, \
 353:.\ff.c        **** 					0xA1,0xA1,0xA3,0xA3,0xA5,0xA5,0xA7,0xA7,0xA9,0xA9,0xAB,0xAB,0xAD,0xAD,0xAE,0xAF, \
 354:.\ff.c        **** 					0xB0,0xB1,0xB2,0xB3,0xB4,0xB6,0xB6,0xB8,0xB8,0xB9,0xBA,0xBB,0xBC,0xBE,0xBE,0xBF, \
 355:.\ff.c        **** 					0xC0,0xC1,0xC2,0xC3,0xC4,0xC5,0xC7,0xC7,0xC8,0xC9,0xCA,0xCB,0xCC,0xCD,0xCE,0xCF, \
 356:.\ff.c        **** 					0xD1,0xD1,0xD3,0xD3,0xD5,0xD5,0xD7,0xD7,0xDD,0xD9,0xDA,0xDB,0xDC,0xDD,0xE0,0xDF, \
 357:.\ff.c        **** 					0xE0,0xE2,0xE2,0xE4,0xE4,0xE6,0xE6,0xE8,0xE8,0xEA,0xEA,0xEC,0xEC,0xEE,0xEE,0xEF, \
 358:.\ff.c        **** 					0xF0,0xF2,0xF2,0xF4,0xF4,0xF6,0xF6,0xF8,0xF8,0xFA,0xFA,0xFC,0xFC,0xFD,0xFE,0xFF}
 359:.\ff.c        **** #define TBL_CT857  {0x80,0x9A,0x90,0xB6,0x8E,0xB7,0x8F,0x80,0xD2,0xD3,0xD4,0xD8,0xD7,0x49,0x8E,0x8F
 360:.\ff.c        **** 					0x90,0x92,0x92,0xE2,0x99,0xE3,0xEA,0xEB,0x98,0x99,0x9A,0x9D,0x9C,0x9D,0x9E,0x9E, \
 361:.\ff.c        **** 					0xB5,0xD6,0xE0,0xE9,0xA5,0xA5,0xA6,0xA6,0xA8,0xA9,0xAA,0xAB,0xAC,0xAD,0xAE,0xAF, \
 362:.\ff.c        **** 					0xB0,0xB1,0xB2,0xB3,0xB4,0xB5,0xB6,0xB7,0xB8,0xB9,0xBA,0xBB,0xBC,0xBD,0xBE,0xBF, \
 363:.\ff.c        **** 					0xC0,0xC1,0xC2,0xC3,0xC4,0xC5,0xC7,0xC7,0xC8,0xC9,0xCA,0xCB,0xCC,0xCD,0xCE,0xCF, \
 364:.\ff.c        **** 					0xD0,0xD1,0xD2,0xD3,0xD4,0x49,0xD6,0xD7,0xD8,0xD9,0xDA,0xDB,0xDC,0xDD,0xDE,0xDF, \
 365:.\ff.c        **** 					0xE0,0xE1,0xE2,0xE3,0xE5,0xE5,0xE6,0xE7,0xE8,0xE9,0xEA,0xEB,0xDE,0xED,0xEE,0xEF, \
 366:.\ff.c        **** 					0xF0,0xF1,0xF2,0xF3,0xF4,0xF5,0xF6,0xF7,0xF8,0xF9,0xFA,0xFB,0xFC,0xFD,0xFE,0xFF}
 367:.\ff.c        **** #define TBL_CT860  {0x80,0x9A,0x90,0x8F,0x8E,0x91,0x86,0x80,0x89,0x89,0x92,0x8B,0x8C,0x98,0x8E,0x8F
 368:.\ff.c        **** 					0x90,0x91,0x92,0x8C,0x99,0xA9,0x96,0x9D,0x98,0x99,0x9A,0x9B,0x9C,0x9D,0x9E,0x9F, \
 369:.\ff.c        **** 					0x86,0x8B,0x9F,0x96,0xA5,0xA5,0xA6,0xA7,0xA8,0xA9,0xAA,0xAB,0xAC,0xAD,0xAE,0xAF, \
 370:.\ff.c        **** 					0xB0,0xB1,0xB2,0xB3,0xB4,0xB5,0xB6,0xB7,0xB8,0xB9,0xBA,0xBB,0xBC,0xBD,0xBE,0xBF, \
 371:.\ff.c        **** 					0xC0,0xC1,0xC2,0xC3,0xC4,0xC5,0xC6,0xC7,0xC8,0xC9,0xCA,0xCB,0xCC,0xCD,0xCE,0xCF, \
 372:.\ff.c        **** 					0xD0,0xD1,0xD2,0xD3,0xD4,0xD5,0xD6,0xD7,0xD8,0xD9,0xDA,0xDB,0xDC,0xDD,0xDE,0xDF, \
 373:.\ff.c        **** 					0xE0,0xE1,0xE2,0xE3,0xE4,0xE5,0xE6,0xE7,0xE8,0xE9,0xEA,0xEB,0xEC,0xED,0xEE,0xEF, \
 374:.\ff.c        **** 					0xF0,0xF1,0xF2,0xF3,0xF4,0xF5,0xF6,0xF7,0xF8,0xF9,0xFA,0xFB,0xFC,0xFD,0xFE,0xFF}
ARM GAS  C:\Users\student\AppData\Local\Temp\ccNQwI6t.s 			page 8


 375:.\ff.c        **** #define TBL_CT861  {0x80,0x9A,0x90,0x41,0x8E,0x41,0x8F,0x80,0x45,0x45,0x45,0x8B,0x8B,0x8D,0x8E,0x8F
 376:.\ff.c        **** 					0x90,0x92,0x92,0x4F,0x99,0x8D,0x55,0x97,0x97,0x99,0x9A,0x9D,0x9C,0x9D,0x9E,0x9F, \
 377:.\ff.c        **** 					0xA4,0xA5,0xA6,0xA7,0xA4,0xA5,0xA6,0xA7,0xA8,0xA9,0xAA,0xAB,0xAC,0xAD,0xAE,0xAF, \
 378:.\ff.c        **** 					0xB0,0xB1,0xB2,0xB3,0xB4,0xB5,0xB6,0xB7,0xB8,0xB9,0xBA,0xBB,0xBC,0xBD,0xBE,0xBF, \
 379:.\ff.c        **** 					0xC0,0xC1,0xC2,0xC3,0xC4,0xC5,0xC6,0xC7,0xC8,0xC9,0xCA,0xCB,0xCC,0xCD,0xCE,0xCF, \
 380:.\ff.c        **** 					0xD0,0xD1,0xD2,0xD3,0xD4,0xD5,0xD6,0xD7,0xD8,0xD9,0xDA,0xDB,0xDC,0xDD,0xDE,0xDF, \
 381:.\ff.c        **** 					0xE0,0xE1,0xE2,0xE3,0xE4,0xE5,0xE6,0xE7,0xE8,0xE9,0xEA,0xEB,0xEC,0xED,0xEE,0xEF, \
 382:.\ff.c        **** 					0xF0,0xF1,0xF2,0xF3,0xF4,0xF5,0xF6,0xF7,0xF8,0xF9,0xFA,0xFB,0xFC,0xFD,0xFE,0xFF}
 383:.\ff.c        **** #define TBL_CT862  {0x80,0x81,0x82,0x83,0x84,0x85,0x86,0x87,0x88,0x89,0x8A,0x8B,0x8C,0x8D,0x8E,0x8F
 384:.\ff.c        **** 					0x90,0x91,0x92,0x93,0x94,0x95,0x96,0x97,0x98,0x99,0x9A,0x9B,0x9C,0x9D,0x9E,0x9F, \
 385:.\ff.c        **** 					0x41,0x49,0x4F,0x55,0xA5,0xA5,0xA6,0xA7,0xA8,0xA9,0xAA,0xAB,0xAC,0xAD,0xAE,0xAF, \
 386:.\ff.c        **** 					0xB0,0xB1,0xB2,0xB3,0xB4,0xB5,0xB6,0xB7,0xB8,0xB9,0xBA,0xBB,0xBC,0xBD,0xBE,0xBF, \
 387:.\ff.c        **** 					0xC0,0xC1,0xC2,0xC3,0xC4,0xC5,0xC6,0xC7,0xC8,0xC9,0xCA,0xCB,0xCC,0xCD,0xCE,0xCF, \
 388:.\ff.c        **** 					0xD0,0xD1,0xD2,0xD3,0xD4,0xD5,0xD6,0xD7,0xD8,0xD9,0xDA,0xDB,0xDC,0xDD,0xDE,0xDF, \
 389:.\ff.c        **** 					0xE0,0xE1,0xE2,0xE3,0xE4,0xE5,0xE6,0xE7,0xE8,0xE9,0xEA,0xEB,0xEC,0xED,0xEE,0xEF, \
 390:.\ff.c        **** 					0xF0,0xF1,0xF2,0xF3,0xF4,0xF5,0xF6,0xF7,0xF8,0xF9,0xFA,0xFB,0xFC,0xFD,0xFE,0xFF}
 391:.\ff.c        **** #define TBL_CT863  {0x43,0x55,0x45,0x41,0x41,0x41,0x86,0x43,0x45,0x45,0x45,0x49,0x49,0x8D,0x41,0x8F
 392:.\ff.c        **** 					0x45,0x45,0x45,0x4F,0x45,0x49,0x55,0x55,0x98,0x4F,0x55,0x9B,0x9C,0x55,0x55,0x9F, \
 393:.\ff.c        **** 					0xA0,0xA1,0x4F,0x55,0xA4,0xA5,0xA6,0xA7,0x49,0xA9,0xAA,0xAB,0xAC,0xAD,0xAE,0xAF, \
 394:.\ff.c        **** 					0xB0,0xB1,0xB2,0xB3,0xB4,0xB5,0xB6,0xB7,0xB8,0xB9,0xBA,0xBB,0xBC,0xBD,0xBE,0xBF, \
 395:.\ff.c        **** 					0xC0,0xC1,0xC2,0xC3,0xC4,0xC5,0xC6,0xC7,0xC8,0xC9,0xCA,0xCB,0xCC,0xCD,0xCE,0xCF, \
 396:.\ff.c        **** 					0xD0,0xD1,0xD2,0xD3,0xD4,0xD5,0xD6,0xD7,0xD8,0xD9,0xDA,0xDB,0xDC,0xDD,0xDE,0xDF, \
 397:.\ff.c        **** 					0xE0,0xE1,0xE2,0xE3,0xE4,0xE5,0xE6,0xE7,0xE8,0xE9,0xEA,0xEB,0xEC,0xED,0xEE,0xEF, \
 398:.\ff.c        **** 					0xF0,0xF1,0xF2,0xF3,0xF4,0xF5,0xF6,0xF7,0xF8,0xF9,0xFA,0xFB,0xFC,0xFD,0xFE,0xFF}
 399:.\ff.c        **** #define TBL_CT864  {0x80,0x9A,0x45,0x41,0x8E,0x41,0x8F,0x80,0x45,0x45,0x45,0x49,0x49,0x49,0x8E,0x8F
 400:.\ff.c        **** 					0x90,0x92,0x92,0x4F,0x99,0x4F,0x55,0x55,0x59,0x99,0x9A,0x9B,0x9C,0x9D,0x9E,0x9F, \
 401:.\ff.c        **** 					0x41,0x49,0x4F,0x55,0xA5,0xA5,0xA6,0xA7,0xA8,0xA9,0xAA,0xAB,0xAC,0xAD,0xAE,0xAF, \
 402:.\ff.c        **** 					0xB0,0xB1,0xB2,0xB3,0xB4,0xB5,0xB6,0xB7,0xB8,0xB9,0xBA,0xBB,0xBC,0xBD,0xBE,0xBF, \
 403:.\ff.c        **** 					0xC0,0xC1,0xC2,0xC3,0xC4,0xC5,0xC6,0xC7,0xC8,0xC9,0xCA,0xCB,0xCC,0xCD,0xCE,0xCF, \
 404:.\ff.c        **** 					0xD0,0xD1,0xD2,0xD3,0xD4,0xD5,0xD6,0xD7,0xD8,0xD9,0xDA,0xDB,0xDC,0xDD,0xDE,0xDF, \
 405:.\ff.c        **** 					0xE0,0xE1,0xE2,0xE3,0xE4,0xE5,0xE6,0xE7,0xE8,0xE9,0xEA,0xEB,0xEC,0xED,0xEE,0xEF, \
 406:.\ff.c        **** 					0xF0,0xF1,0xF2,0xF3,0xF4,0xF5,0xF6,0xF7,0xF8,0xF9,0xFA,0xFB,0xFC,0xFD,0xFE,0xFF}
 407:.\ff.c        **** #define TBL_CT865  {0x80,0x9A,0x90,0x41,0x8E,0x41,0x8F,0x80,0x45,0x45,0x45,0x49,0x49,0x49,0x8E,0x8F
 408:.\ff.c        **** 					0x90,0x92,0x92,0x4F,0x99,0x4F,0x55,0x55,0x59,0x99,0x9A,0x9B,0x9C,0x9D,0x9E,0x9F, \
 409:.\ff.c        **** 					0x41,0x49,0x4F,0x55,0xA5,0xA5,0xA6,0xA7,0xA8,0xA9,0xAA,0xAB,0xAC,0xAD,0xAE,0xAF, \
 410:.\ff.c        **** 					0xB0,0xB1,0xB2,0xB3,0xB4,0xB5,0xB6,0xB7,0xB8,0xB9,0xBA,0xBB,0xBC,0xBD,0xBE,0xBF, \
 411:.\ff.c        **** 					0xC0,0xC1,0xC2,0xC3,0xC4,0xC5,0xC6,0xC7,0xC8,0xC9,0xCA,0xCB,0xCC,0xCD,0xCE,0xCF, \
 412:.\ff.c        **** 					0xD0,0xD1,0xD2,0xD3,0xD4,0xD5,0xD6,0xD7,0xD8,0xD9,0xDA,0xDB,0xDC,0xDD,0xDE,0xDF, \
 413:.\ff.c        **** 					0xE0,0xE1,0xE2,0xE3,0xE4,0xE5,0xE6,0xE7,0xE8,0xE9,0xEA,0xEB,0xEC,0xED,0xEE,0xEF, \
 414:.\ff.c        **** 					0xF0,0xF1,0xF2,0xF3,0xF4,0xF5,0xF6,0xF7,0xF8,0xF9,0xFA,0xFB,0xFC,0xFD,0xFE,0xFF}
 415:.\ff.c        **** #define TBL_CT866  {0x80,0x81,0x82,0x83,0x84,0x85,0x86,0x87,0x88,0x89,0x8A,0x8B,0x8C,0x8D,0x8E,0x8F
 416:.\ff.c        **** 					0x90,0x91,0x92,0x93,0x94,0x95,0x96,0x97,0x98,0x99,0x9A,0x9B,0x9C,0x9D,0x9E,0x9F, \
 417:.\ff.c        **** 					0x80,0x81,0x82,0x83,0x84,0x85,0x86,0x87,0x88,0x89,0x8A,0x8B,0x8C,0x8D,0x8E,0x8F, \
 418:.\ff.c        **** 					0xB0,0xB1,0xB2,0xB3,0xB4,0xB5,0xB6,0xB7,0xB8,0xB9,0xBA,0xBB,0xBC,0xBD,0xBE,0xBF, \
 419:.\ff.c        **** 					0xC0,0xC1,0xC2,0xC3,0xC4,0xC5,0xC6,0xC7,0xC8,0xC9,0xCA,0xCB,0xCC,0xCD,0xCE,0xCF, \
 420:.\ff.c        **** 					0xD0,0xD1,0xD2,0xD3,0xD4,0xD5,0xD6,0xD7,0xD8,0xD9,0xDA,0xDB,0xDC,0xDD,0xDE,0xDF, \
 421:.\ff.c        **** 					0x90,0x91,0x92,0x93,0x94,0x95,0x96,0x97,0x98,0x99,0x9A,0x9B,0x9C,0x9D,0x9E,0x9F, \
 422:.\ff.c        **** 					0xF0,0xF0,0xF2,0xF2,0xF4,0xF4,0xF6,0xF6,0xF8,0xF9,0xFA,0xFB,0xFC,0xFD,0xFE,0xFF}
 423:.\ff.c        **** #define TBL_CT869  {0x80,0x81,0x82,0x83,0x84,0x85,0x86,0x87,0x88,0x89,0x8A,0x8B,0x8C,0x8D,0x8E,0x8F
 424:.\ff.c        **** 					0x90,0x91,0x92,0x93,0x94,0x95,0x96,0x97,0x98,0x99,0x9A,0x86,0x9C,0x8D,0x8F,0x90, \
 425:.\ff.c        **** 					0x91,0x90,0x92,0x95,0xA4,0xA5,0xA6,0xA7,0xA8,0xA9,0xAA,0xAB,0xAC,0xAD,0xAE,0xAF, \
 426:.\ff.c        **** 					0xB0,0xB1,0xB2,0xB3,0xB4,0xB5,0xB6,0xB7,0xB8,0xB9,0xBA,0xBB,0xBC,0xBD,0xBE,0xBF, \
 427:.\ff.c        **** 					0xC0,0xC1,0xC2,0xC3,0xC4,0xC5,0xC6,0xC7,0xC8,0xC9,0xCA,0xCB,0xCC,0xCD,0xCE,0xCF, \
 428:.\ff.c        **** 					0xD0,0xD1,0xD2,0xD3,0xD4,0xD5,0xA4,0xA5,0xA6,0xD9,0xDA,0xDB,0xDC,0xA7,0xA8,0xDF, \
 429:.\ff.c        **** 					0xA9,0xAA,0xAC,0xAD,0xB5,0xB6,0xB7,0xB8,0xBD,0xBE,0xC6,0xC7,0xCF,0xCF,0xD0,0xEF, \
 430:.\ff.c        **** 					0xF0,0xF1,0xD1,0xD2,0xD3,0xF5,0xD4,0xF7,0xF8,0xF9,0xD5,0x96,0x95,0x98,0xFE,0xFF}
 431:.\ff.c        **** 
ARM GAS  C:\Users\student\AppData\Local\Temp\ccNQwI6t.s 			page 9


 432:.\ff.c        **** 
 433:.\ff.c        **** /* DBCS code range |----- 1st byte -----|  |----------- 2nd byte -----------| */
 434:.\ff.c        **** /*                  <------>    <------>    <------>    <------>    <------>  */
 435:.\ff.c        **** #define TBL_DC932 {0x81, 0x9F, 0xE0, 0xFC, 0x40, 0x7E, 0x80, 0xFC, 0x00, 0x00}
 436:.\ff.c        **** #define TBL_DC936 {0x81, 0xFE, 0x00, 0x00, 0x40, 0x7E, 0x80, 0xFE, 0x00, 0x00}
 437:.\ff.c        **** #define TBL_DC949 {0x81, 0xFE, 0x00, 0x00, 0x41, 0x5A, 0x61, 0x7A, 0x81, 0xFE}
 438:.\ff.c        **** #define TBL_DC950 {0x81, 0xFE, 0x00, 0x00, 0x40, 0x7E, 0xA1, 0xFE, 0x00, 0x00}
 439:.\ff.c        **** 
 440:.\ff.c        **** 
 441:.\ff.c        **** /* Macros for table definitions */
 442:.\ff.c        **** #define MERGE_2STR(a, b) a ## b
 443:.\ff.c        **** #define MKCVTBL(hd, cp) MERGE_2STR(hd, cp)
 444:.\ff.c        **** 
 445:.\ff.c        **** 
 446:.\ff.c        **** 
 447:.\ff.c        **** 
 448:.\ff.c        **** /*--------------------------------------------------------------------------
 449:.\ff.c        **** 
 450:.\ff.c        ****    Module Private Work Area
 451:.\ff.c        **** 
 452:.\ff.c        **** ---------------------------------------------------------------------------*/
 453:.\ff.c        **** /* Remark: Variables defined here without initial value shall be guaranteed
 454:.\ff.c        **** /  zero/null at start-up. If not, the linker option or start-up routine is
 455:.\ff.c        **** /  not compliance with C standard. */
 456:.\ff.c        **** 
 457:.\ff.c        **** /*--------------------------------*/
 458:.\ff.c        **** /* File/Volume controls           */
 459:.\ff.c        **** /*--------------------------------*/
 460:.\ff.c        **** 
 461:.\ff.c        **** #if FF_VOLUMES < 1 || FF_VOLUMES > 10
 462:.\ff.c        **** #error Wrong FF_VOLUMES setting
 463:.\ff.c        **** #endif
 464:.\ff.c        **** static FATFS *FatFs[FF_VOLUMES];	/* Pointer to the filesystem objects (logical drives) */
 465:.\ff.c        **** static WORD Fsid;					/* Filesystem mount ID */
 466:.\ff.c        **** 
 467:.\ff.c        **** #if FF_FS_RPATH != 0
 468:.\ff.c        **** static BYTE CurrVol;				/* Current drive set by f_chdrive() */
 469:.\ff.c        **** #endif
 470:.\ff.c        **** 
 471:.\ff.c        **** #if FF_FS_LOCK != 0
 472:.\ff.c        **** static FILESEM Files[FF_FS_LOCK];	/* Open object lock semaphores */
 473:.\ff.c        **** #if FF_FS_REENTRANT
 474:.\ff.c        **** static BYTE SysLock;				/* System lock flag (0:no mutex, 1:unlocked, 2:locked) */
 475:.\ff.c        **** #endif
 476:.\ff.c        **** #endif
 477:.\ff.c        **** 
 478:.\ff.c        **** #if FF_STR_VOLUME_ID
 479:.\ff.c        **** #ifdef FF_VOLUME_STRS
 480:.\ff.c        **** static const char *const VolumeStr[FF_VOLUMES] = {FF_VOLUME_STRS};	/* Pre-defined volume ID */
 481:.\ff.c        **** #endif
 482:.\ff.c        **** #endif
 483:.\ff.c        **** 
 484:.\ff.c        **** #if FF_LBA64
 485:.\ff.c        **** #if FF_MIN_GPT > 0x100000000
 486:.\ff.c        **** #error Wrong FF_MIN_GPT setting
 487:.\ff.c        **** #endif
 488:.\ff.c        **** static const BYTE GUID_MS_Basic[16] = {0xA2,0xA0,0xD0,0xEB,0xE5,0xB9,0x33,0x44,0x87,0xC0,0x68,0xB6,
ARM GAS  C:\Users\student\AppData\Local\Temp\ccNQwI6t.s 			page 10


 489:.\ff.c        **** #endif
 490:.\ff.c        **** 
 491:.\ff.c        **** 
 492:.\ff.c        **** 
 493:.\ff.c        **** /*--------------------------------*/
 494:.\ff.c        **** /* LFN/Directory working buffer   */
 495:.\ff.c        **** /*--------------------------------*/
 496:.\ff.c        **** 
 497:.\ff.c        **** #if FF_USE_LFN == 0		/* Non-LFN configuration */
 498:.\ff.c        **** #if FF_FS_EXFAT
 499:.\ff.c        **** #error LFN must be enabled when enable exFAT
 500:.\ff.c        **** #endif
 501:.\ff.c        **** #define DEF_NAMBUF
 502:.\ff.c        **** #define INIT_NAMBUF(fs)
 503:.\ff.c        **** #define FREE_NAMBUF()
 504:.\ff.c        **** #define LEAVE_MKFS(res)	return res
 505:.\ff.c        **** 
 506:.\ff.c        **** #else					/* LFN configurations */
 507:.\ff.c        **** #if FF_MAX_LFN < 12 || FF_MAX_LFN > 255
 508:.\ff.c        **** #error Wrong setting of FF_MAX_LFN
 509:.\ff.c        **** #endif
 510:.\ff.c        **** #if FF_LFN_BUF < FF_SFN_BUF || FF_SFN_BUF < 12
 511:.\ff.c        **** #error Wrong setting of FF_LFN_BUF or FF_SFN_BUF
 512:.\ff.c        **** #endif
 513:.\ff.c        **** #if FF_LFN_UNICODE < 0 || FF_LFN_UNICODE > 3
 514:.\ff.c        **** #error Wrong setting of FF_LFN_UNICODE
 515:.\ff.c        **** #endif
 516:.\ff.c        **** static const BYTE LfnOfs[] = {1,3,5,7,9,14,16,18,20,22,24,28,30};	/* FAT: Offset of LFN characters 
 517:.\ff.c        **** #define MAXDIRB(nc)	((nc + 44U) / 15 * SZDIRE)	/* exFAT: Size of directory entry block scratchpad b
 518:.\ff.c        **** 
 519:.\ff.c        **** #if FF_USE_LFN == 1		/* LFN enabled with static working buffer */
 520:.\ff.c        **** #if FF_FS_EXFAT
 521:.\ff.c        **** static BYTE	DirBuf[MAXDIRB(FF_MAX_LFN)];	/* Directory entry block scratchpad buffer */
 522:.\ff.c        **** #endif
 523:.\ff.c        **** static WCHAR LfnBuf[FF_MAX_LFN + 1];		/* LFN working buffer */
 524:.\ff.c        **** #define DEF_NAMBUF
 525:.\ff.c        **** #define INIT_NAMBUF(fs)
 526:.\ff.c        **** #define FREE_NAMBUF()
 527:.\ff.c        **** #define LEAVE_MKFS(res)	return res
 528:.\ff.c        **** 
 529:.\ff.c        **** #elif FF_USE_LFN == 2 	/* LFN enabled with dynamic working buffer on the stack */
 530:.\ff.c        **** #if FF_FS_EXFAT
 531:.\ff.c        **** #define DEF_NAMBUF		WCHAR lbuf[FF_MAX_LFN+1]; BYTE dbuf[MAXDIRB(FF_MAX_LFN)];	/* LFN working buffer
 532:.\ff.c        **** #define INIT_NAMBUF(fs)	{ (fs)->lfnbuf = lbuf; (fs)->dirbuf = dbuf; }
 533:.\ff.c        **** #define FREE_NAMBUF()
 534:.\ff.c        **** #else
 535:.\ff.c        **** #define DEF_NAMBUF		WCHAR lbuf[FF_MAX_LFN+1];	/* LFN working buffer */
 536:.\ff.c        **** #define INIT_NAMBUF(fs)	{ (fs)->lfnbuf = lbuf; }
 537:.\ff.c        **** #define FREE_NAMBUF()
 538:.\ff.c        **** #endif
 539:.\ff.c        **** #define LEAVE_MKFS(res)	return res
 540:.\ff.c        **** 
 541:.\ff.c        **** #elif FF_USE_LFN == 3 	/* LFN enabled with dynamic working buffer on the heap */
 542:.\ff.c        **** #if FF_FS_EXFAT
 543:.\ff.c        **** #define DEF_NAMBUF		WCHAR *lfn;	/* Pointer to LFN working buffer and directory entry block scratchp
 544:.\ff.c        **** #define INIT_NAMBUF(fs)	{ lfn = ff_memalloc((FF_MAX_LFN+1)*2 + MAXDIRB(FF_MAX_LFN)); if (!lfn) LEAV
 545:.\ff.c        **** #define FREE_NAMBUF()	ff_memfree(lfn)
ARM GAS  C:\Users\student\AppData\Local\Temp\ccNQwI6t.s 			page 11


 546:.\ff.c        **** #else
 547:.\ff.c        **** #define DEF_NAMBUF		WCHAR *lfn;	/* Pointer to LFN working buffer */
 548:.\ff.c        **** #define INIT_NAMBUF(fs)	{ lfn = ff_memalloc((FF_MAX_LFN+1)*2); if (!lfn) LEAVE_FF(fs, FR_NOT_ENOUGH
 549:.\ff.c        **** #define FREE_NAMBUF()	ff_memfree(lfn)
 550:.\ff.c        **** #endif
 551:.\ff.c        **** #define LEAVE_MKFS(res)	{ if (!work) ff_memfree(buf); return res; }
 552:.\ff.c        **** #define MAX_MALLOC	0x8000	/* Must be >=FF_MAX_SS */
 553:.\ff.c        **** 
 554:.\ff.c        **** #else
 555:.\ff.c        **** #error Wrong setting of FF_USE_LFN
 556:.\ff.c        **** 
 557:.\ff.c        **** #endif	/* FF_USE_LFN == 1 */
 558:.\ff.c        **** #endif	/* FF_USE_LFN == 0 */
 559:.\ff.c        **** 
 560:.\ff.c        **** 
 561:.\ff.c        **** 
 562:.\ff.c        **** /*--------------------------------*/
 563:.\ff.c        **** /* Code conversion tables         */
 564:.\ff.c        **** /*--------------------------------*/
 565:.\ff.c        **** 
 566:.\ff.c        **** #if FF_CODE_PAGE == 0	/* Run-time code page configuration */
 567:.\ff.c        **** #define CODEPAGE CodePage
 568:.\ff.c        **** static WORD CodePage;	/* Current code page */
 569:.\ff.c        **** static const BYTE* ExCvt;	/* Ptr to SBCS up-case table Ct???[] (null:not used) */
 570:.\ff.c        **** static const BYTE* DbcTbl;	/* Ptr to DBCS code range table Dc???[] (null:not used) */
 571:.\ff.c        **** 
 572:.\ff.c        **** static const BYTE Ct437[] = TBL_CT437;
 573:.\ff.c        **** static const BYTE Ct720[] = TBL_CT720;
 574:.\ff.c        **** static const BYTE Ct737[] = TBL_CT737;
 575:.\ff.c        **** static const BYTE Ct771[] = TBL_CT771;
 576:.\ff.c        **** static const BYTE Ct775[] = TBL_CT775;
 577:.\ff.c        **** static const BYTE Ct850[] = TBL_CT850;
 578:.\ff.c        **** static const BYTE Ct852[] = TBL_CT852;
 579:.\ff.c        **** static const BYTE Ct855[] = TBL_CT855;
 580:.\ff.c        **** static const BYTE Ct857[] = TBL_CT857;
 581:.\ff.c        **** static const BYTE Ct860[] = TBL_CT860;
 582:.\ff.c        **** static const BYTE Ct861[] = TBL_CT861;
 583:.\ff.c        **** static const BYTE Ct862[] = TBL_CT862;
 584:.\ff.c        **** static const BYTE Ct863[] = TBL_CT863;
 585:.\ff.c        **** static const BYTE Ct864[] = TBL_CT864;
 586:.\ff.c        **** static const BYTE Ct865[] = TBL_CT865;
 587:.\ff.c        **** static const BYTE Ct866[] = TBL_CT866;
 588:.\ff.c        **** static const BYTE Ct869[] = TBL_CT869;
 589:.\ff.c        **** static const BYTE Dc932[] = TBL_DC932;
 590:.\ff.c        **** static const BYTE Dc936[] = TBL_DC936;
 591:.\ff.c        **** static const BYTE Dc949[] = TBL_DC949;
 592:.\ff.c        **** static const BYTE Dc950[] = TBL_DC950;
 593:.\ff.c        **** 
 594:.\ff.c        **** #elif FF_CODE_PAGE < 900	/* Static code page configuration (SBCS) */
 595:.\ff.c        **** #define CODEPAGE FF_CODE_PAGE
 596:.\ff.c        **** static const BYTE ExCvt[] = MKCVTBL(TBL_CT, FF_CODE_PAGE);
 597:.\ff.c        **** 
 598:.\ff.c        **** #else					/* Static code page configuration (DBCS) */
 599:.\ff.c        **** #define CODEPAGE FF_CODE_PAGE
 600:.\ff.c        **** static const BYTE DbcTbl[] = MKCVTBL(TBL_DC, FF_CODE_PAGE);
 601:.\ff.c        **** 
 602:.\ff.c        **** #endif
ARM GAS  C:\Users\student\AppData\Local\Temp\ccNQwI6t.s 			page 12


 603:.\ff.c        **** 
 604:.\ff.c        **** 
 605:.\ff.c        **** 
 606:.\ff.c        **** 
 607:.\ff.c        **** /*--------------------------------------------------------------------------
 608:.\ff.c        **** 
 609:.\ff.c        ****    Module Private Functions
 610:.\ff.c        **** 
 611:.\ff.c        **** ---------------------------------------------------------------------------*/
 612:.\ff.c        **** 
 613:.\ff.c        **** 
 614:.\ff.c        **** /*-----------------------------------------------------------------------*/
 615:.\ff.c        **** /* Load/Store multi-byte word in the FAT structure                       */
 616:.\ff.c        **** /*-----------------------------------------------------------------------*/
 617:.\ff.c        **** 
 618:.\ff.c        **** static WORD ld_word (const BYTE* ptr)	/*	 Load a 2-byte little-endian word */
 619:.\ff.c        **** {
  26              		.loc 1 619 0
  27              		.cfi_startproc
  28              		@ args = 0, pretend = 0, frame = 0
  29              		@ frame_needed = 0, uses_anonymous_args = 0
  30              		@ link register save eliminated.
  31              	.LVL0:
 620:.\ff.c        **** 	WORD rv;
 621:.\ff.c        **** 
 622:.\ff.c        **** 	rv = ptr[1];
  32              		.loc 1 622 0
  33 0000 4278     		ldrb	r2, [r0, #1]	@ zero_extendqisi2
  34              	.LVL1:
 623:.\ff.c        **** 	rv = rv << 8 | ptr[0];
  35              		.loc 1 623 0
  36 0002 0078     		ldrb	r0, [r0]	@ zero_extendqisi2
  37              	.LVL2:
 624:.\ff.c        **** 	return rv;
 625:.\ff.c        **** }
  38              		.loc 1 625 0
  39 0004 40EA0220 		orr	r0, r0, r2, lsl #8
  40              	.LVL3:
  41 0008 7047     		bx	lr
  42              		.cfi_endproc
  43              	.LFE0:
  44              		.size	ld_word, .-ld_word
  45 000a 00BF     		.section	.text.ld_dword,"ax",%progbits
  46              		.align	2
  47              		.thumb
  48              		.thumb_func
  49              		.type	ld_dword, %function
  50              	ld_dword:
  51              	.LFB1:
 626:.\ff.c        **** 
 627:.\ff.c        **** static DWORD ld_dword (const BYTE* ptr)	/* Load a 4-byte little-endian word */
 628:.\ff.c        **** {
  52              		.loc 1 628 0
  53              		.cfi_startproc
  54              		@ args = 0, pretend = 0, frame = 0
  55              		@ frame_needed = 0, uses_anonymous_args = 0
  56              		@ link register save eliminated.
ARM GAS  C:\Users\student\AppData\Local\Temp\ccNQwI6t.s 			page 13


  57              	.LVL4:
 629:.\ff.c        **** 	DWORD rv;
 630:.\ff.c        **** 
 631:.\ff.c        **** 	rv = ptr[3];
  58              		.loc 1 631 0
  59 0000 C278     		ldrb	r2, [r0, #3]	@ zero_extendqisi2
  60              	.LVL5:
 632:.\ff.c        **** 	rv = rv << 8 | ptr[2];
  61              		.loc 1 632 0
  62 0002 8378     		ldrb	r3, [r0, #2]	@ zero_extendqisi2
  63 0004 43EA0222 		orr	r2, r3, r2, lsl #8
  64              	.LVL6:
 633:.\ff.c        **** 	rv = rv << 8 | ptr[1];
  65              		.loc 1 633 0
  66 0008 4378     		ldrb	r3, [r0, #1]	@ zero_extendqisi2
  67 000a 43EA0223 		orr	r3, r3, r2, lsl #8
  68              	.LVL7:
 634:.\ff.c        **** 	rv = rv << 8 | ptr[0];
  69              		.loc 1 634 0
  70 000e 0078     		ldrb	r0, [r0]	@ zero_extendqisi2
  71              	.LVL8:
 635:.\ff.c        **** 	return rv;
 636:.\ff.c        **** }
  72              		.loc 1 636 0
  73 0010 40EA0320 		orr	r0, r0, r3, lsl #8
  74              	.LVL9:
  75 0014 7047     		bx	lr
  76              		.cfi_endproc
  77              	.LFE1:
  78              		.size	ld_dword, .-ld_dword
  79 0016 00BF     		.section	.text.st_word,"ax",%progbits
  80              		.align	2
  81              		.thumb
  82              		.thumb_func
  83              		.type	st_word, %function
  84              	st_word:
  85              	.LFB2:
 637:.\ff.c        **** 
 638:.\ff.c        **** #if FF_FS_EXFAT
 639:.\ff.c        **** static QWORD ld_qword (const BYTE* ptr)	/* Load an 8-byte little-endian word */
 640:.\ff.c        **** {
 641:.\ff.c        **** 	QWORD rv;
 642:.\ff.c        **** 
 643:.\ff.c        **** 	rv = ptr[7];
 644:.\ff.c        **** 	rv = rv << 8 | ptr[6];
 645:.\ff.c        **** 	rv = rv << 8 | ptr[5];
 646:.\ff.c        **** 	rv = rv << 8 | ptr[4];
 647:.\ff.c        **** 	rv = rv << 8 | ptr[3];
 648:.\ff.c        **** 	rv = rv << 8 | ptr[2];
 649:.\ff.c        **** 	rv = rv << 8 | ptr[1];
 650:.\ff.c        **** 	rv = rv << 8 | ptr[0];
 651:.\ff.c        **** 	return rv;
 652:.\ff.c        **** }
 653:.\ff.c        **** #endif
 654:.\ff.c        **** 
 655:.\ff.c        **** #if !FF_FS_READONLY
 656:.\ff.c        **** static void st_word (BYTE* ptr, WORD val)	/* Store a 2-byte word in little-endian */
ARM GAS  C:\Users\student\AppData\Local\Temp\ccNQwI6t.s 			page 14


 657:.\ff.c        **** {
  86              		.loc 1 657 0
  87              		.cfi_startproc
  88              		@ args = 0, pretend = 0, frame = 0
  89              		@ frame_needed = 0, uses_anonymous_args = 0
  90              		@ link register save eliminated.
  91              	.LVL10:
 658:.\ff.c        **** 	*ptr++ = (BYTE)val; val >>= 8;
  92              		.loc 1 658 0
  93 0000 0170     		strb	r1, [r0]
  94              	.LVL11:
 659:.\ff.c        **** 	*ptr++ = (BYTE)val;
  95              		.loc 1 659 0
  96 0002 090A     		lsrs	r1, r1, #8
  97              	.LVL12:
  98 0004 4170     		strb	r1, [r0, #1]
  99 0006 7047     		bx	lr
 100              		.cfi_endproc
 101              	.LFE2:
 102              		.size	st_word, .-st_word
 103              		.section	.text.st_dword,"ax",%progbits
 104              		.align	2
 105              		.thumb
 106              		.thumb_func
 107              		.type	st_dword, %function
 108              	st_dword:
 109              	.LFB3:
 660:.\ff.c        **** }
 661:.\ff.c        **** 
 662:.\ff.c        **** static void st_dword (BYTE* ptr, DWORD val)	/* Store a 4-byte word in little-endian */
 663:.\ff.c        **** {
 110              		.loc 1 663 0
 111              		.cfi_startproc
 112              		@ args = 0, pretend = 0, frame = 0
 113              		@ frame_needed = 0, uses_anonymous_args = 0
 114              		@ link register save eliminated.
 115              	.LVL13:
 664:.\ff.c        **** 	*ptr++ = (BYTE)val; val >>= 8;
 116              		.loc 1 664 0
 117 0000 0170     		strb	r1, [r0]
 118              	.LVL14:
 665:.\ff.c        **** 	*ptr++ = (BYTE)val; val >>= 8;
 119              		.loc 1 665 0
 120 0002 C1F30723 		ubfx	r3, r1, #8, #8
 121 0006 4370     		strb	r3, [r0, #1]
 122              	.LVL15:
 666:.\ff.c        **** 	*ptr++ = (BYTE)val; val >>= 8;
 123              		.loc 1 666 0
 124 0008 C1F30743 		ubfx	r3, r1, #16, #8
 125 000c 8370     		strb	r3, [r0, #2]
 126              	.LVL16:
 667:.\ff.c        **** 	*ptr++ = (BYTE)val;
 127              		.loc 1 667 0
 128 000e 090E     		lsrs	r1, r1, #24
 129              	.LVL17:
 130 0010 C170     		strb	r1, [r0, #3]
 131 0012 7047     		bx	lr
ARM GAS  C:\Users\student\AppData\Local\Temp\ccNQwI6t.s 			page 15


 132              		.cfi_endproc
 133              	.LFE3:
 134              		.size	st_dword, .-st_dword
 135              		.section	.text.dbc_1st,"ax",%progbits
 136              		.align	2
 137              		.thumb
 138              		.thumb_func
 139              		.type	dbc_1st, %function
 140              	dbc_1st:
 141              	.LFB4:
 668:.\ff.c        **** }
 669:.\ff.c        **** 
 670:.\ff.c        **** #if FF_FS_EXFAT
 671:.\ff.c        **** static void st_qword (BYTE* ptr, QWORD val)	/* Store an 8-byte word in little-endian */
 672:.\ff.c        **** {
 673:.\ff.c        **** 	*ptr++ = (BYTE)val; val >>= 8;
 674:.\ff.c        **** 	*ptr++ = (BYTE)val; val >>= 8;
 675:.\ff.c        **** 	*ptr++ = (BYTE)val; val >>= 8;
 676:.\ff.c        **** 	*ptr++ = (BYTE)val; val >>= 8;
 677:.\ff.c        **** 	*ptr++ = (BYTE)val; val >>= 8;
 678:.\ff.c        **** 	*ptr++ = (BYTE)val; val >>= 8;
 679:.\ff.c        **** 	*ptr++ = (BYTE)val; val >>= 8;
 680:.\ff.c        **** 	*ptr++ = (BYTE)val;
 681:.\ff.c        **** }
 682:.\ff.c        **** #endif
 683:.\ff.c        **** #endif	/* !FF_FS_READONLY */
 684:.\ff.c        **** 
 685:.\ff.c        **** 
 686:.\ff.c        **** 
 687:.\ff.c        **** /*-----------------------------------------------------------------------*/
 688:.\ff.c        **** /* String functions                                                      */
 689:.\ff.c        **** /*-----------------------------------------------------------------------*/
 690:.\ff.c        **** 
 691:.\ff.c        **** /* Test if the byte is DBC 1st byte */
 692:.\ff.c        **** static int dbc_1st (BYTE c)
 693:.\ff.c        **** {
 142              		.loc 1 693 0
 143              		.cfi_startproc
 144              		@ args = 0, pretend = 0, frame = 0
 145              		@ frame_needed = 0, uses_anonymous_args = 0
 146              		@ link register save eliminated.
 147              	.LVL18:
 694:.\ff.c        **** #if FF_CODE_PAGE == 0		/* Variable code page */
 695:.\ff.c        **** 	if (DbcTbl && c >= DbcTbl[0]) {
 696:.\ff.c        **** 		if (c <= DbcTbl[1]) return 1;					/* 1st byte range 1 */
 697:.\ff.c        **** 		if (c >= DbcTbl[2] && c <= DbcTbl[3]) return 1;	/* 1st byte range 2 */
 698:.\ff.c        **** 	}
 699:.\ff.c        **** #elif FF_CODE_PAGE >= 900	/* DBCS fixed code page */
 700:.\ff.c        **** 	if (c >= DbcTbl[0]) {
 148              		.loc 1 700 0
 149 0000 8028     		cmp	r0, #128
 150 0002 07D9     		bls	.L7
 701:.\ff.c        **** 		if (c <= DbcTbl[1]) return 1;
 151              		.loc 1 701 0
 152 0004 9F28     		cmp	r0, #159
 153 0006 07D9     		bls	.L8
 702:.\ff.c        **** 		if (c >= DbcTbl[2] && c <= DbcTbl[3]) return 1;
ARM GAS  C:\Users\student\AppData\Local\Temp\ccNQwI6t.s 			page 16


 154              		.loc 1 702 0
 155 0008 DF28     		cmp	r0, #223
 156 000a 07D9     		bls	.L9
 157              		.loc 1 702 0 is_stmt 0 discriminator 1
 158 000c FC28     		cmp	r0, #252
 159 000e 07D9     		bls	.L10
 703:.\ff.c        **** 	}
 704:.\ff.c        **** #else						/* SBCS fixed code page */
 705:.\ff.c        **** 	if (c != 0) return 0;	/* Always false */
 706:.\ff.c        **** #endif
 707:.\ff.c        **** 	return 0;
 160              		.loc 1 707 0 is_stmt 1
 161 0010 0020     		movs	r0, #0
 162              	.LVL19:
 163 0012 7047     		bx	lr
 164              	.LVL20:
 165              	.L7:
 166 0014 0020     		movs	r0, #0
 167              	.LVL21:
 168 0016 7047     		bx	lr
 169              	.LVL22:
 170              	.L8:
 701:.\ff.c        **** 		if (c >= DbcTbl[2] && c <= DbcTbl[3]) return 1;
 171              		.loc 1 701 0
 172 0018 0120     		movs	r0, #1
 173              	.LVL23:
 174 001a 7047     		bx	lr
 175              	.LVL24:
 176              	.L9:
 177              		.loc 1 707 0
 178 001c 0020     		movs	r0, #0
 179              	.LVL25:
 180 001e 7047     		bx	lr
 181              	.LVL26:
 182              	.L10:
 702:.\ff.c        **** 		if (c >= DbcTbl[2] && c <= DbcTbl[3]) return 1;
 183              		.loc 1 702 0
 184 0020 0120     		movs	r0, #1
 185              	.LVL27:
 708:.\ff.c        **** }
 186              		.loc 1 708 0
 187 0022 7047     		bx	lr
 188              		.cfi_endproc
 189              	.LFE4:
 190              		.size	dbc_1st, .-dbc_1st
 191              		.section	.text.dbc_2nd,"ax",%progbits
 192              		.align	2
 193              		.thumb
 194              		.thumb_func
 195              		.type	dbc_2nd, %function
 196              	dbc_2nd:
 197              	.LFB5:
 709:.\ff.c        **** 
 710:.\ff.c        **** 
 711:.\ff.c        **** /* Test if the byte is DBC 2nd byte */
 712:.\ff.c        **** static int dbc_2nd (BYTE c)
 713:.\ff.c        **** {
ARM GAS  C:\Users\student\AppData\Local\Temp\ccNQwI6t.s 			page 17


 198              		.loc 1 713 0
 199              		.cfi_startproc
 200              		@ args = 0, pretend = 0, frame = 0
 201              		@ frame_needed = 0, uses_anonymous_args = 0
 202              		@ link register save eliminated.
 203              	.LVL28:
 714:.\ff.c        **** #if FF_CODE_PAGE == 0		/* Variable code page */
 715:.\ff.c        **** 	if (DbcTbl && c >= DbcTbl[4]) {
 716:.\ff.c        **** 		if (c <= DbcTbl[5]) return 1;					/* 2nd byte range 1 */
 717:.\ff.c        **** 		if (c >= DbcTbl[6] && c <= DbcTbl[7]) return 1;	/* 2nd byte range 2 */
 718:.\ff.c        **** 		if (c >= DbcTbl[8] && c <= DbcTbl[9]) return 1;	/* 2nd byte range 3 */
 719:.\ff.c        **** 	}
 720:.\ff.c        **** #elif FF_CODE_PAGE >= 900	/* DBCS fixed code page */
 721:.\ff.c        **** 	if (c >= DbcTbl[4]) {
 204              		.loc 1 721 0
 205 0000 3F28     		cmp	r0, #63
 206 0002 08D9     		bls	.L14
 722:.\ff.c        **** 		if (c <= DbcTbl[5]) return 1;
 207              		.loc 1 722 0
 208 0004 7E28     		cmp	r0, #126
 209 0006 08D9     		bls	.L15
 723:.\ff.c        **** 		if (c >= DbcTbl[6] && c <= DbcTbl[7]) return 1;
 210              		.loc 1 723 0
 211 0008 8028     		cmp	r0, #128
 212 000a 01D3     		bcc	.L13
 213              		.loc 1 723 0 is_stmt 0 discriminator 1
 214 000c FC28     		cmp	r0, #252
 215 000e 06D9     		bls	.L16
 216              	.L13:
 724:.\ff.c        **** 		if (c >= DbcTbl[8] && c <= DbcTbl[9]) return 1;
 217              		.loc 1 724 0 is_stmt 1 discriminator 1
 218 0010 38B1     		cbz	r0, .L17
 725:.\ff.c        **** 	}
 726:.\ff.c        **** #else						/* SBCS fixed code page */
 727:.\ff.c        **** 	if (c != 0) return 0;	/* Always false */
 728:.\ff.c        **** #endif
 729:.\ff.c        **** 	return 0;
 219              		.loc 1 729 0
 220 0012 0020     		movs	r0, #0
 221              	.LVL29:
 222 0014 7047     		bx	lr
 223              	.LVL30:
 224              	.L14:
 225 0016 0020     		movs	r0, #0
 226              	.LVL31:
 227 0018 7047     		bx	lr
 228              	.LVL32:
 229              	.L15:
 722:.\ff.c        **** 		if (c >= DbcTbl[6] && c <= DbcTbl[7]) return 1;
 230              		.loc 1 722 0
 231 001a 0120     		movs	r0, #1
 232              	.LVL33:
 233 001c 7047     		bx	lr
 234              	.LVL34:
 235              	.L16:
 723:.\ff.c        **** 		if (c >= DbcTbl[8] && c <= DbcTbl[9]) return 1;
 236              		.loc 1 723 0
ARM GAS  C:\Users\student\AppData\Local\Temp\ccNQwI6t.s 			page 18


 237 001e 0120     		movs	r0, #1
 238              	.LVL35:
 239 0020 7047     		bx	lr
 240              	.LVL36:
 241              	.L17:
 724:.\ff.c        **** 	}
 242              		.loc 1 724 0
 243 0022 0120     		movs	r0, #1
 244              	.LVL37:
 730:.\ff.c        **** }
 245              		.loc 1 730 0
 246 0024 7047     		bx	lr
 247              		.cfi_endproc
 248              	.LFE5:
 249              		.size	dbc_2nd, .-dbc_2nd
 250 0026 00BF     		.section	.text.clst2sect,"ax",%progbits
 251              		.align	2
 252              		.thumb
 253              		.thumb_func
 254              		.type	clst2sect, %function
 255              	clst2sect:
 256              	.LFB9:
 731:.\ff.c        **** 
 732:.\ff.c        **** 
 733:.\ff.c        **** #if FF_USE_LFN
 734:.\ff.c        **** 
 735:.\ff.c        **** /* Get a Unicode code point from the TCHAR string in defined API encodeing */
 736:.\ff.c        **** static DWORD tchar2uni (	/* Returns a character in UTF-16 encoding (>=0x10000 on surrogate pair, 0x
 737:.\ff.c        **** 	const TCHAR** str		/* Pointer to pointer to TCHAR string in configured encoding */
 738:.\ff.c        **** )
 739:.\ff.c        **** {
 740:.\ff.c        **** 	DWORD uc;
 741:.\ff.c        **** 	const TCHAR *p = *str;
 742:.\ff.c        **** 
 743:.\ff.c        **** #if FF_LFN_UNICODE == 1		/* UTF-16 input */
 744:.\ff.c        **** 	WCHAR wc;
 745:.\ff.c        **** 
 746:.\ff.c        **** 	uc = *p++;	/* Get a unit */
 747:.\ff.c        **** 	if (IsSurrogate(uc)) {	/* Surrogate? */
 748:.\ff.c        **** 		wc = *p++;		/* Get low surrogate */
 749:.\ff.c        **** 		if (!IsSurrogateH(uc) || !IsSurrogateL(wc)) return 0xFFFFFFFF;	/* Wrong surrogate? */
 750:.\ff.c        **** 		uc = uc << 16 | wc;
 751:.\ff.c        **** 	}
 752:.\ff.c        **** 
 753:.\ff.c        **** #elif FF_LFN_UNICODE == 2	/* UTF-8 input */
 754:.\ff.c        **** 	BYTE b;
 755:.\ff.c        **** 	int nf;
 756:.\ff.c        **** 
 757:.\ff.c        **** 	uc = (BYTE)*p++;	/* Get an encoding unit */
 758:.\ff.c        **** 	if (uc & 0x80) {	/* Multiple byte code? */
 759:.\ff.c        **** 		if        ((uc & 0xE0) == 0xC0) {	/* 2-byte sequence? */
 760:.\ff.c        **** 			uc &= 0x1F; nf = 1;
 761:.\ff.c        **** 		} else if ((uc & 0xF0) == 0xE0) {	/* 3-byte sequence? */
 762:.\ff.c        **** 			uc &= 0x0F; nf = 2;
 763:.\ff.c        **** 		} else if ((uc & 0xF8) == 0xF0) {	/* 4-byte sequence? */
 764:.\ff.c        **** 			uc &= 0x07; nf = 3;
 765:.\ff.c        **** 		} else {							/* Wrong sequence */
ARM GAS  C:\Users\student\AppData\Local\Temp\ccNQwI6t.s 			page 19


 766:.\ff.c        **** 			return 0xFFFFFFFF;
 767:.\ff.c        **** 		}
 768:.\ff.c        **** 		do {	/* Get trailing bytes */
 769:.\ff.c        **** 			b = (BYTE)*p++;
 770:.\ff.c        **** 			if ((b & 0xC0) != 0x80) return 0xFFFFFFFF;	/* Wrong sequence? */
 771:.\ff.c        **** 			uc = uc << 6 | (b & 0x3F);
 772:.\ff.c        **** 		} while (--nf != 0);
 773:.\ff.c        **** 		if (uc < 0x80 || IsSurrogate(uc) || uc >= 0x110000) return 0xFFFFFFFF;	/* Wrong code? */
 774:.\ff.c        **** 		if (uc >= 0x010000) uc = 0xD800DC00 | ((uc - 0x10000) << 6 & 0x3FF0000) | (uc & 0x3FF);	/* Make a
 775:.\ff.c        **** 	}
 776:.\ff.c        **** 
 777:.\ff.c        **** #elif FF_LFN_UNICODE == 3	/* UTF-32 input */
 778:.\ff.c        **** 	uc = (TCHAR)*p++;	/* Get a unit */
 779:.\ff.c        **** 	if (uc >= 0x110000 || IsSurrogate(uc)) return 0xFFFFFFFF;	/* Wrong code? */
 780:.\ff.c        **** 	if (uc >= 0x010000) uc = 0xD800DC00 | ((uc - 0x10000) << 6 & 0x3FF0000) | (uc & 0x3FF);	/* Make a 
 781:.\ff.c        **** 
 782:.\ff.c        **** #else		/* ANSI/OEM input */
 783:.\ff.c        **** 	BYTE b;
 784:.\ff.c        **** 	WCHAR wc;
 785:.\ff.c        **** 
 786:.\ff.c        **** 	wc = (BYTE)*p++;			/* Get a byte */
 787:.\ff.c        **** 	if (dbc_1st((BYTE)wc)) {	/* Is it a DBC 1st byte? */
 788:.\ff.c        **** 		b = (BYTE)*p++;			/* Get 2nd byte */
 789:.\ff.c        **** 		if (!dbc_2nd(b)) return 0xFFFFFFFF;	/* Invalid code? */
 790:.\ff.c        **** 		wc = (wc << 8) + b;		/* Make a DBC */
 791:.\ff.c        **** 	}
 792:.\ff.c        **** 	if (wc != 0) {
 793:.\ff.c        **** 		wc = ff_oem2uni(wc, CODEPAGE);	/* ANSI/OEM ==> Unicode */
 794:.\ff.c        **** 		if (wc == 0) return 0xFFFFFFFF;	/* Invalid code? */
 795:.\ff.c        **** 	}
 796:.\ff.c        **** 	uc = wc;
 797:.\ff.c        **** 
 798:.\ff.c        **** #endif
 799:.\ff.c        **** 	*str = p;	/* Next read pointer */
 800:.\ff.c        **** 	return uc;
 801:.\ff.c        **** }
 802:.\ff.c        **** 
 803:.\ff.c        **** 
 804:.\ff.c        **** /* Store a Unicode char in defined API encoding */
 805:.\ff.c        **** static UINT put_utf (	/* Returns number of encoding units written (0:buffer overflow or wrong encod
 806:.\ff.c        **** 	DWORD chr,	/* UTF-16 encoded character (Surrogate pair if >=0x10000) */
 807:.\ff.c        **** 	TCHAR* buf,	/* Output buffer */
 808:.\ff.c        **** 	UINT szb	/* Size of the buffer */
 809:.\ff.c        **** )
 810:.\ff.c        **** {
 811:.\ff.c        **** #if FF_LFN_UNICODE == 1	/* UTF-16 output */
 812:.\ff.c        **** 	WCHAR hs, wc;
 813:.\ff.c        **** 
 814:.\ff.c        **** 	hs = (WCHAR)(chr >> 16);
 815:.\ff.c        **** 	wc = (WCHAR)chr;
 816:.\ff.c        **** 	if (hs == 0) {	/* Single encoding unit? */
 817:.\ff.c        **** 		if (szb < 1 || IsSurrogate(wc)) return 0;	/* Buffer overflow or wrong code? */
 818:.\ff.c        **** 		*buf = wc;
 819:.\ff.c        **** 		return 1;
 820:.\ff.c        **** 	}
 821:.\ff.c        **** 	if (szb < 2 || !IsSurrogateH(hs) || !IsSurrogateL(wc)) return 0;	/* Buffer overflow or wrong surro
 822:.\ff.c        **** 	*buf++ = hs;
ARM GAS  C:\Users\student\AppData\Local\Temp\ccNQwI6t.s 			page 20


 823:.\ff.c        **** 	*buf++ = wc;
 824:.\ff.c        **** 	return 2;
 825:.\ff.c        **** 
 826:.\ff.c        **** #elif FF_LFN_UNICODE == 2	/* UTF-8 output */
 827:.\ff.c        **** 	DWORD hc;
 828:.\ff.c        **** 
 829:.\ff.c        **** 	if (chr < 0x80) {	/* Single byte code? */
 830:.\ff.c        **** 		if (szb < 1) return 0;	/* Buffer overflow? */
 831:.\ff.c        **** 		*buf = (TCHAR)chr;
 832:.\ff.c        **** 		return 1;
 833:.\ff.c        **** 	}
 834:.\ff.c        **** 	if (chr < 0x800) {	/* 2-byte sequence? */
 835:.\ff.c        **** 		if (szb < 2) return 0;	/* Buffer overflow? */
 836:.\ff.c        **** 		*buf++ = (TCHAR)(0xC0 | (chr >> 6 & 0x1F));
 837:.\ff.c        **** 		*buf++ = (TCHAR)(0x80 | (chr >> 0 & 0x3F));
 838:.\ff.c        **** 		return 2;
 839:.\ff.c        **** 	}
 840:.\ff.c        **** 	if (chr < 0x10000) {	/* 3-byte sequence? */
 841:.\ff.c        **** 		if (szb < 3 || IsSurrogate(chr)) return 0;	/* Buffer overflow or wrong code? */
 842:.\ff.c        **** 		*buf++ = (TCHAR)(0xE0 | (chr >> 12 & 0x0F));
 843:.\ff.c        **** 		*buf++ = (TCHAR)(0x80 | (chr >> 6 & 0x3F));
 844:.\ff.c        **** 		*buf++ = (TCHAR)(0x80 | (chr >> 0 & 0x3F));
 845:.\ff.c        **** 		return 3;
 846:.\ff.c        **** 	}
 847:.\ff.c        **** 	/* 4-byte sequence */
 848:.\ff.c        **** 	if (szb < 4) return 0;	/* Buffer overflow? */
 849:.\ff.c        **** 	hc = ((chr & 0xFFFF0000) - 0xD8000000) >> 6;	/* Get high 10 bits */
 850:.\ff.c        **** 	chr = (chr & 0xFFFF) - 0xDC00;					/* Get low 10 bits */
 851:.\ff.c        **** 	if (hc >= 0x100000 || chr >= 0x400) return 0;	/* Wrong surrogate? */
 852:.\ff.c        **** 	chr = (hc | chr) + 0x10000;
 853:.\ff.c        **** 	*buf++ = (TCHAR)(0xF0 | (chr >> 18 & 0x07));
 854:.\ff.c        **** 	*buf++ = (TCHAR)(0x80 | (chr >> 12 & 0x3F));
 855:.\ff.c        **** 	*buf++ = (TCHAR)(0x80 | (chr >> 6 & 0x3F));
 856:.\ff.c        **** 	*buf++ = (TCHAR)(0x80 | (chr >> 0 & 0x3F));
 857:.\ff.c        **** 	return 4;
 858:.\ff.c        **** 
 859:.\ff.c        **** #elif FF_LFN_UNICODE == 3	/* UTF-32 output */
 860:.\ff.c        **** 	DWORD hc;
 861:.\ff.c        **** 
 862:.\ff.c        **** 	if (szb < 1) return 0;	/* Buffer overflow? */
 863:.\ff.c        **** 	if (chr >= 0x10000) {	/* Out of BMP? */
 864:.\ff.c        **** 		hc = ((chr & 0xFFFF0000) - 0xD8000000) >> 6;	/* Get high 10 bits */
 865:.\ff.c        **** 		chr = (chr & 0xFFFF) - 0xDC00;					/* Get low 10 bits */
 866:.\ff.c        **** 		if (hc >= 0x100000 || chr >= 0x400) return 0;	/* Wrong surrogate? */
 867:.\ff.c        **** 		chr = (hc | chr) + 0x10000;
 868:.\ff.c        **** 	}
 869:.\ff.c        **** 	*buf++ = (TCHAR)chr;
 870:.\ff.c        **** 	return 1;
 871:.\ff.c        **** 
 872:.\ff.c        **** #else						/* ANSI/OEM output */
 873:.\ff.c        **** 	WCHAR wc;
 874:.\ff.c        **** 
 875:.\ff.c        **** 	wc = ff_uni2oem(chr, CODEPAGE);
 876:.\ff.c        **** 	if (wc >= 0x100) {	/* Is this a DBC? */
 877:.\ff.c        **** 		if (szb < 2) return 0;
 878:.\ff.c        **** 		*buf++ = (char)(wc >> 8);	/* Store DBC 1st byte */
 879:.\ff.c        **** 		*buf++ = (TCHAR)wc;			/* Store DBC 2nd byte */
ARM GAS  C:\Users\student\AppData\Local\Temp\ccNQwI6t.s 			page 21


 880:.\ff.c        **** 		return 2;
 881:.\ff.c        **** 	}
 882:.\ff.c        **** 	if (wc == 0 || szb < 1) return 0;	/* Invalid char or buffer overflow? */
 883:.\ff.c        **** 	*buf++ = (TCHAR)wc;					/* Store the character */
 884:.\ff.c        **** 	return 1;
 885:.\ff.c        **** #endif
 886:.\ff.c        **** }
 887:.\ff.c        **** #endif	/* FF_USE_LFN */
 888:.\ff.c        **** 
 889:.\ff.c        **** 
 890:.\ff.c        **** #if FF_FS_REENTRANT
 891:.\ff.c        **** /*-----------------------------------------------------------------------*/
 892:.\ff.c        **** /* Request/Release grant to access the volume                            */
 893:.\ff.c        **** /*-----------------------------------------------------------------------*/
 894:.\ff.c        **** 
 895:.\ff.c        **** static int lock_volume (	/* 1:Ok, 0:timeout */
 896:.\ff.c        **** 	FATFS* fs,				/* Filesystem object to lock */
 897:.\ff.c        **** 	int syslock				/* System lock required */
 898:.\ff.c        **** )
 899:.\ff.c        **** {
 900:.\ff.c        **** 	int rv;
 901:.\ff.c        **** 
 902:.\ff.c        **** 
 903:.\ff.c        **** #if FF_FS_LOCK
 904:.\ff.c        **** 	rv = ff_mutex_take(fs->ldrv);	/* Lock the volume */
 905:.\ff.c        **** 	if (rv && syslock) {			/* System lock reqiered? */
 906:.\ff.c        **** 		rv = ff_mutex_take(FF_VOLUMES);	/* Lock the system */
 907:.\ff.c        **** 		if (rv) {
 908:.\ff.c        **** 			SysLock = 2;				/* System lock succeeded */
 909:.\ff.c        **** 		} else {
 910:.\ff.c        **** 			ff_mutex_give(fs->ldrv);	/* Failed system lock */
 911:.\ff.c        **** 		}
 912:.\ff.c        **** 	}
 913:.\ff.c        **** #else
 914:.\ff.c        **** 	rv = syslock ? ff_mutex_take(fs->ldrv) : ff_mutex_take(fs->ldrv);	/* Lock the volume (this is to p
 915:.\ff.c        **** #endif
 916:.\ff.c        **** 	return rv;
 917:.\ff.c        **** }
 918:.\ff.c        **** 
 919:.\ff.c        **** 
 920:.\ff.c        **** static void unlock_volume (
 921:.\ff.c        **** 	FATFS* fs,		/* Filesystem object */
 922:.\ff.c        **** 	FRESULT res		/* Result code to be returned */
 923:.\ff.c        **** )
 924:.\ff.c        **** {
 925:.\ff.c        **** 	if (fs && res != FR_NOT_ENABLED && res != FR_INVALID_DRIVE && res != FR_TIMEOUT) {
 926:.\ff.c        **** #if FF_FS_LOCK
 927:.\ff.c        **** 		if (SysLock == 2) {	/* Is the system locked? */
 928:.\ff.c        **** 			SysLock = 1;
 929:.\ff.c        **** 			ff_mutex_give(FF_VOLUMES);
 930:.\ff.c        **** 		}
 931:.\ff.c        **** #endif
 932:.\ff.c        **** 		ff_mutex_give(fs->ldrv);	/* Unlock the volume */
 933:.\ff.c        **** 	}
 934:.\ff.c        **** }
 935:.\ff.c        **** 
 936:.\ff.c        **** #endif
ARM GAS  C:\Users\student\AppData\Local\Temp\ccNQwI6t.s 			page 22


 937:.\ff.c        **** 
 938:.\ff.c        **** 
 939:.\ff.c        **** 
 940:.\ff.c        **** #if FF_FS_LOCK
 941:.\ff.c        **** /*-----------------------------------------------------------------------*/
 942:.\ff.c        **** /* File shareing control functions                                       */
 943:.\ff.c        **** /*-----------------------------------------------------------------------*/
 944:.\ff.c        **** 
 945:.\ff.c        **** static FRESULT chk_share (	/* Check if the file can be accessed */
 946:.\ff.c        **** 	DIR* dp,		/* Directory object pointing the file to be checked */
 947:.\ff.c        **** 	int acc			/* Desired access type (0:Read mode open, 1:Write mode open, 2:Delete or rename) */
 948:.\ff.c        **** )
 949:.\ff.c        **** {
 950:.\ff.c        **** 	UINT i, be;
 951:.\ff.c        **** 
 952:.\ff.c        **** 	/* Search open object table for the object */
 953:.\ff.c        **** 	be = 0;
 954:.\ff.c        **** 	for (i = 0; i < FF_FS_LOCK; i++) {
 955:.\ff.c        **** 		if (Files[i].fs) {	/* Existing entry */
 956:.\ff.c        **** 			if (Files[i].fs == dp->obj.fs &&	 	/* Check if the object matches with an open object */
 957:.\ff.c        **** 				Files[i].clu == dp->obj.sclust &&
 958:.\ff.c        **** 				Files[i].ofs == dp->dptr) break;
 959:.\ff.c        **** 		} else {			/* Blank entry */
 960:.\ff.c        **** 			be = 1;
 961:.\ff.c        **** 		}
 962:.\ff.c        **** 	}
 963:.\ff.c        **** 	if (i == FF_FS_LOCK) {	/* The object has not been opened */
 964:.\ff.c        **** 		return (!be && acc != 2) ? FR_TOO_MANY_OPEN_FILES : FR_OK;	/* Is there a blank entry for new obje
 965:.\ff.c        **** 	}
 966:.\ff.c        **** 
 967:.\ff.c        **** 	/* The object was opened. Reject any open against writing file and all write mode open */
 968:.\ff.c        **** 	return (acc != 0 || Files[i].ctr == 0x100) ? FR_LOCKED : FR_OK;
 969:.\ff.c        **** }
 970:.\ff.c        **** 
 971:.\ff.c        **** 
 972:.\ff.c        **** static int enq_share (void)	/* Check if an entry is available for a new object */
 973:.\ff.c        **** {
 974:.\ff.c        **** 	UINT i;
 975:.\ff.c        **** 
 976:.\ff.c        **** 	for (i = 0; i < FF_FS_LOCK && Files[i].fs; i++) ;	/* Find a free entry */
 977:.\ff.c        **** 	return (i == FF_FS_LOCK) ? 0 : 1;
 978:.\ff.c        **** }
 979:.\ff.c        **** 
 980:.\ff.c        **** 
 981:.\ff.c        **** static UINT inc_share (	/* Increment object open counter and returns its index (0:Internal error) *
 982:.\ff.c        **** 	DIR* dp,	/* Directory object pointing the file to register or increment */
 983:.\ff.c        **** 	int acc		/* Desired access (0:Read, 1:Write, 2:Delete/Rename) */
 984:.\ff.c        **** )
 985:.\ff.c        **** {
 986:.\ff.c        **** 	UINT i;
 987:.\ff.c        **** 
 988:.\ff.c        **** 
 989:.\ff.c        **** 	for (i = 0; i < FF_FS_LOCK; i++) {	/* Find the object */
 990:.\ff.c        **** 		if (Files[i].fs == dp->obj.fs
 991:.\ff.c        **** 		 && Files[i].clu == dp->obj.sclust
 992:.\ff.c        **** 		 && Files[i].ofs == dp->dptr) break;
 993:.\ff.c        **** 	}
ARM GAS  C:\Users\student\AppData\Local\Temp\ccNQwI6t.s 			page 23


 994:.\ff.c        **** 
 995:.\ff.c        **** 	if (i == FF_FS_LOCK) {			/* Not opened. Register it as new. */
 996:.\ff.c        **** 		for (i = 0; i < FF_FS_LOCK && Files[i].fs; i++) ;	/* Find a free entry */
 997:.\ff.c        **** 		if (i == FF_FS_LOCK) return 0;	/* No free entry to register (int err) */
 998:.\ff.c        **** 		Files[i].fs = dp->obj.fs;
 999:.\ff.c        **** 		Files[i].clu = dp->obj.sclust;
1000:.\ff.c        **** 		Files[i].ofs = dp->dptr;
1001:.\ff.c        **** 		Files[i].ctr = 0;
1002:.\ff.c        **** 	}
1003:.\ff.c        **** 
1004:.\ff.c        **** 	if (acc >= 1 && Files[i].ctr) return 0;	/* Access violation (int err) */
1005:.\ff.c        **** 
1006:.\ff.c        **** 	Files[i].ctr = acc ? 0x100 : Files[i].ctr + 1;	/* Set semaphore value */
1007:.\ff.c        **** 
1008:.\ff.c        **** 	return i + 1;	/* Index number origin from 1 */
1009:.\ff.c        **** }
1010:.\ff.c        **** 
1011:.\ff.c        **** 
1012:.\ff.c        **** static FRESULT dec_share (	/* Decrement object open counter */
1013:.\ff.c        **** 	UINT i			/* Semaphore index (1..) */
1014:.\ff.c        **** )
1015:.\ff.c        **** {
1016:.\ff.c        **** 	UINT n;
1017:.\ff.c        **** 	FRESULT res;
1018:.\ff.c        **** 
1019:.\ff.c        **** 
1020:.\ff.c        **** 	if (--i < FF_FS_LOCK) {	/* Index number origin from 0 */
1021:.\ff.c        **** 		n = Files[i].ctr;
1022:.\ff.c        **** 		if (n == 0x100) n = 0;	/* If write mode open, delete the object semaphore */
1023:.\ff.c        **** 		if (n > 0) n--;			/* Decrement read mode open count */
1024:.\ff.c        **** 		Files[i].ctr = n;
1025:.\ff.c        **** 		if (n == 0) {			/* Delete the object semaphore if open count becomes zero */
1026:.\ff.c        **** 			Files[i].fs = 0;	/* Free the entry <<<If this memory write operation is not in atomic, FF_FS_REE
1027:.\ff.c        **** 		}
1028:.\ff.c        **** 		res = FR_OK;
1029:.\ff.c        **** 	} else {
1030:.\ff.c        **** 		res = FR_INT_ERR;		/* Invalid index number */
1031:.\ff.c        **** 	}
1032:.\ff.c        **** 	return res;
1033:.\ff.c        **** }
1034:.\ff.c        **** 
1035:.\ff.c        **** 
1036:.\ff.c        **** static void clear_share (	/* Clear all lock entries of the volume */
1037:.\ff.c        **** 	FATFS* fs
1038:.\ff.c        **** )
1039:.\ff.c        **** {
1040:.\ff.c        **** 	UINT i;
1041:.\ff.c        **** 
1042:.\ff.c        **** 	for (i = 0; i < FF_FS_LOCK; i++) {
1043:.\ff.c        **** 		if (Files[i].fs == fs) Files[i].fs = 0;
1044:.\ff.c        **** 	}
1045:.\ff.c        **** }
1046:.\ff.c        **** 
1047:.\ff.c        **** #endif	/* FF_FS_LOCK */
1048:.\ff.c        **** 
1049:.\ff.c        **** 
1050:.\ff.c        **** 
ARM GAS  C:\Users\student\AppData\Local\Temp\ccNQwI6t.s 			page 24


1051:.\ff.c        **** /*-----------------------------------------------------------------------*/
1052:.\ff.c        **** /* Move/Flush disk access window in the filesystem object                */
1053:.\ff.c        **** /*-----------------------------------------------------------------------*/
1054:.\ff.c        **** #if !FF_FS_READONLY
1055:.\ff.c        **** static FRESULT sync_window (	/* Returns FR_OK or FR_DISK_ERR */
1056:.\ff.c        **** 	FATFS* fs			/* Filesystem object */
1057:.\ff.c        **** )
1058:.\ff.c        **** {
1059:.\ff.c        **** 	FRESULT res = FR_OK;
1060:.\ff.c        **** 
1061:.\ff.c        **** 
1062:.\ff.c        **** 	if (fs->wflag) {	/* Is the disk access window dirty? */
1063:.\ff.c        **** 		if (disk_write(fs->pdrv, fs->win, fs->winsect, 1) == RES_OK) {	/* Write it back into the volume *
1064:.\ff.c        **** 			fs->wflag = 0;	/* Clear window dirty flag */
1065:.\ff.c        **** 			if (fs->winsect - fs->fatbase < fs->fsize) {	/* Is it in the 1st FAT? */
1066:.\ff.c        **** 				if (fs->n_fats == 2) disk_write(fs->pdrv, fs->win, fs->winsect + fs->fsize, 1);	/* Reflect it t
1067:.\ff.c        **** 			}
1068:.\ff.c        **** 		} else {
1069:.\ff.c        **** 			res = FR_DISK_ERR;
1070:.\ff.c        **** 		}
1071:.\ff.c        **** 	}
1072:.\ff.c        **** 	return res;
1073:.\ff.c        **** }
1074:.\ff.c        **** #endif
1075:.\ff.c        **** 
1076:.\ff.c        **** 
1077:.\ff.c        **** static FRESULT move_window (	/* Returns FR_OK or FR_DISK_ERR */
1078:.\ff.c        **** 	FATFS* fs,		/* Filesystem object */
1079:.\ff.c        **** 	LBA_t sect		/* Sector LBA to make appearance in the fs->win[] */
1080:.\ff.c        **** )
1081:.\ff.c        **** {
1082:.\ff.c        **** 	FRESULT res = FR_OK;
1083:.\ff.c        **** 
1084:.\ff.c        **** 
1085:.\ff.c        **** 	if (sect != fs->winsect) {	/* Window offset changed? */
1086:.\ff.c        **** #if !FF_FS_READONLY
1087:.\ff.c        **** 		res = sync_window(fs);		/* Flush the window */
1088:.\ff.c        **** #endif
1089:.\ff.c        **** 		if (res == FR_OK) {			/* Fill sector window with new data */
1090:.\ff.c        **** 			if (disk_read(fs->pdrv, fs->win, sect, 1) != RES_OK) {
1091:.\ff.c        **** 				sect = (LBA_t)0 - 1;	/* Invalidate window if read data is not valid */
1092:.\ff.c        **** 				res = FR_DISK_ERR;
1093:.\ff.c        **** 			}
1094:.\ff.c        **** 			fs->winsect = sect;
1095:.\ff.c        **** 		}
1096:.\ff.c        **** 	}
1097:.\ff.c        **** 	return res;
1098:.\ff.c        **** }
1099:.\ff.c        **** 
1100:.\ff.c        **** 
1101:.\ff.c        **** 
1102:.\ff.c        **** 
1103:.\ff.c        **** #if !FF_FS_READONLY
1104:.\ff.c        **** /*-----------------------------------------------------------------------*/
1105:.\ff.c        **** /* Synchronize filesystem and data on the storage                        */
1106:.\ff.c        **** /*-----------------------------------------------------------------------*/
1107:.\ff.c        **** 
ARM GAS  C:\Users\student\AppData\Local\Temp\ccNQwI6t.s 			page 25


1108:.\ff.c        **** static FRESULT sync_fs (	/* Returns FR_OK or FR_DISK_ERR */
1109:.\ff.c        **** 	FATFS* fs		/* Filesystem object */
1110:.\ff.c        **** )
1111:.\ff.c        **** {
1112:.\ff.c        **** 	FRESULT res;
1113:.\ff.c        **** 
1114:.\ff.c        **** 
1115:.\ff.c        **** 	res = sync_window(fs);
1116:.\ff.c        **** 	if (res == FR_OK) {
1117:.\ff.c        **** 		if (fs->fs_type == FS_FAT32 && fs->fsi_flag == 1) {	/* FAT32: Update FSInfo sector if needed */
1118:.\ff.c        **** 			/* Create FSInfo structure */
1119:.\ff.c        **** 			memset(fs->win, 0, sizeof fs->win);
1120:.\ff.c        **** 			st_word(fs->win + BS_55AA, 0xAA55);					/* Boot signature */
1121:.\ff.c        **** 			st_dword(fs->win + FSI_LeadSig, 0x41615252);		/* Leading signature */
1122:.\ff.c        **** 			st_dword(fs->win + FSI_StrucSig, 0x61417272);		/* Structure signature */
1123:.\ff.c        **** 			st_dword(fs->win + FSI_Free_Count, fs->free_clst);	/* Number of free clusters */
1124:.\ff.c        **** 			st_dword(fs->win + FSI_Nxt_Free, fs->last_clst);	/* Last allocated culuster */
1125:.\ff.c        **** 			fs->winsect = fs->volbase + 1;						/* Write it into the FSInfo sector (Next to VBR) */
1126:.\ff.c        **** 			disk_write(fs->pdrv, fs->win, fs->winsect, 1);
1127:.\ff.c        **** 			fs->fsi_flag = 0;
1128:.\ff.c        **** 		}
1129:.\ff.c        **** 		/* Make sure that no pending write process in the lower layer */
1130:.\ff.c        **** 		if (disk_ioctl(fs->pdrv, CTRL_SYNC, 0) != RES_OK) res = FR_DISK_ERR;
1131:.\ff.c        **** 	}
1132:.\ff.c        **** 
1133:.\ff.c        **** 	return res;
1134:.\ff.c        **** }
1135:.\ff.c        **** 
1136:.\ff.c        **** #endif
1137:.\ff.c        **** 
1138:.\ff.c        **** 
1139:.\ff.c        **** 
1140:.\ff.c        **** /*-----------------------------------------------------------------------*/
1141:.\ff.c        **** /* Get physical sector number from cluster number                        */
1142:.\ff.c        **** /*-----------------------------------------------------------------------*/
1143:.\ff.c        **** 
1144:.\ff.c        **** static LBA_t clst2sect (	/* !=0:Sector number, 0:Failed (invalid cluster#) */
1145:.\ff.c        **** 	FATFS* fs,		/* Filesystem object */
1146:.\ff.c        **** 	DWORD clst		/* Cluster# to be converted */
1147:.\ff.c        **** )
1148:.\ff.c        **** {
 257              		.loc 1 1148 0
 258              		.cfi_startproc
 259              		@ args = 0, pretend = 0, frame = 0
 260              		@ frame_needed = 0, uses_anonymous_args = 0
 261              		@ link register save eliminated.
 262              	.LVL38:
1149:.\ff.c        **** 	clst -= 2;		/* Cluster number is origin from 2 */
 263              		.loc 1 1149 0
 264 0000 0239     		subs	r1, r1, #2
 265              	.LVL39:
1150:.\ff.c        **** 	if (clst >= fs->n_fatent - 2) return 0;		/* Is it invalid cluster number? */
 266              		.loc 1 1150 0
 267 0002 4369     		ldr	r3, [r0, #20]
 268 0004 023B     		subs	r3, r3, #2
 269 0006 8B42     		cmp	r3, r1
 270 0008 04D9     		bls	.L20
ARM GAS  C:\Users\student\AppData\Local\Temp\ccNQwI6t.s 			page 26


1151:.\ff.c        **** 	return fs->database + (LBA_t)fs->csize * clst;	/* Start sector number of the cluster */
 271              		.loc 1 1151 0
 272 000a 826A     		ldr	r2, [r0, #40]
 273 000c 4389     		ldrh	r3, [r0, #10]
 274 000e 01FB0320 		mla	r0, r1, r3, r2
 275              	.LVL40:
 276 0012 7047     		bx	lr
 277              	.LVL41:
 278              	.L20:
1150:.\ff.c        **** 	if (clst >= fs->n_fatent - 2) return 0;		/* Is it invalid cluster number? */
 279              		.loc 1 1150 0
 280 0014 0020     		movs	r0, #0
 281              	.LVL42:
1152:.\ff.c        **** }
 282              		.loc 1 1152 0
 283 0016 7047     		bx	lr
 284              		.cfi_endproc
 285              	.LFE9:
 286              		.size	clst2sect, .-clst2sect
 287              		.section	.text.ld_clust,"ax",%progbits
 288              		.align	2
 289              		.thumb
 290              		.thumb_func
 291              		.type	ld_clust, %function
 292              	ld_clust:
 293              	.LFB18:
1153:.\ff.c        **** 
1154:.\ff.c        **** 
1155:.\ff.c        **** 
1156:.\ff.c        **** 
1157:.\ff.c        **** /*-----------------------------------------------------------------------*/
1158:.\ff.c        **** /* FAT access - Read value of an FAT entry                               */
1159:.\ff.c        **** /*-----------------------------------------------------------------------*/
1160:.\ff.c        **** 
1161:.\ff.c        **** static DWORD get_fat (		/* 0xFFFFFFFF:Disk error, 1:Internal error, 2..0x7FFFFFFF:Cluster status */
1162:.\ff.c        **** 	FFOBJID* obj,	/* Corresponding object */
1163:.\ff.c        **** 	DWORD clst		/* Cluster number to get the value */
1164:.\ff.c        **** )
1165:.\ff.c        **** {
1166:.\ff.c        **** 	UINT wc, bc;
1167:.\ff.c        **** 	DWORD val;
1168:.\ff.c        **** 	FATFS *fs = obj->fs;
1169:.\ff.c        **** 
1170:.\ff.c        **** 
1171:.\ff.c        **** 	if (clst < 2 || clst >= fs->n_fatent) {	/* Check if in valid range */
1172:.\ff.c        **** 		val = 1;	/* Internal error */
1173:.\ff.c        **** 
1174:.\ff.c        **** 	} else {
1175:.\ff.c        **** 		val = 0xFFFFFFFF;	/* Default value falls on disk error */
1176:.\ff.c        **** 
1177:.\ff.c        **** 		switch (fs->fs_type) {
1178:.\ff.c        **** 		case FS_FAT12 :
1179:.\ff.c        **** 			bc = (UINT)clst; bc += bc / 2;
1180:.\ff.c        **** 			if (move_window(fs, fs->fatbase + (bc / SS(fs))) != FR_OK) break;
1181:.\ff.c        **** 			wc = fs->win[bc++ % SS(fs)];		/* Get 1st byte of the entry */
1182:.\ff.c        **** 			if (move_window(fs, fs->fatbase + (bc / SS(fs))) != FR_OK) break;
1183:.\ff.c        **** 			wc |= fs->win[bc % SS(fs)] << 8;	/* Merge 2nd byte of the entry */
ARM GAS  C:\Users\student\AppData\Local\Temp\ccNQwI6t.s 			page 27


1184:.\ff.c        **** 			val = (clst & 1) ? (wc >> 4) : (wc & 0xFFF);	/* Adjust bit position */
1185:.\ff.c        **** 			break;
1186:.\ff.c        **** 
1187:.\ff.c        **** 		case FS_FAT16 :
1188:.\ff.c        **** 			if (move_window(fs, fs->fatbase + (clst / (SS(fs) / 2))) != FR_OK) break;
1189:.\ff.c        **** 			val = ld_word(fs->win + clst * 2 % SS(fs));		/* Simple WORD array */
1190:.\ff.c        **** 			break;
1191:.\ff.c        **** 
1192:.\ff.c        **** 		case FS_FAT32 :
1193:.\ff.c        **** 			if (move_window(fs, fs->fatbase + (clst / (SS(fs) / 4))) != FR_OK) break;
1194:.\ff.c        **** 			val = ld_dword(fs->win + clst * 4 % SS(fs)) & 0x0FFFFFFF;	/* Simple DWORD array but mask out upp
1195:.\ff.c        **** 			break;
1196:.\ff.c        **** #if FF_FS_EXFAT
1197:.\ff.c        **** 		case FS_EXFAT :
1198:.\ff.c        **** 			if ((obj->objsize != 0 && obj->sclust != 0) || obj->stat == 0) {	/* Object except root dir must 
1199:.\ff.c        **** 				DWORD cofs = clst - obj->sclust;	/* Offset from start cluster */
1200:.\ff.c        **** 				DWORD clen = (DWORD)((LBA_t)((obj->objsize - 1) / SS(fs)) / fs->csize);	/* Number of clusters -
1201:.\ff.c        **** 
1202:.\ff.c        **** 				if (obj->stat == 2 && cofs <= clen) {	/* Is it a contiguous chain? */
1203:.\ff.c        **** 					val = (cofs == clen) ? 0x7FFFFFFF : clst + 1;	/* No data on the FAT, generate the value */
1204:.\ff.c        **** 					break;
1205:.\ff.c        **** 				}
1206:.\ff.c        **** 				if (obj->stat == 3 && cofs < obj->n_cont) {	/* Is it in the 1st fragment? */
1207:.\ff.c        **** 					val = clst + 1; 	/* Generate the value */
1208:.\ff.c        **** 					break;
1209:.\ff.c        **** 				}
1210:.\ff.c        **** 				if (obj->stat != 2) {	/* Get value from FAT if FAT chain is valid */
1211:.\ff.c        **** 					if (obj->n_frag != 0) {	/* Is it on the growing edge? */
1212:.\ff.c        **** 						val = 0x7FFFFFFF;	/* Generate EOC */
1213:.\ff.c        **** 					} else {
1214:.\ff.c        **** 						if (move_window(fs, fs->fatbase + (clst / (SS(fs) / 4))) != FR_OK) break;
1215:.\ff.c        **** 						val = ld_dword(fs->win + clst * 4 % SS(fs)) & 0x7FFFFFFF;
1216:.\ff.c        **** 					}
1217:.\ff.c        **** 					break;
1218:.\ff.c        **** 				}
1219:.\ff.c        **** 			}
1220:.\ff.c        **** 			val = 1;	/* Internal error */
1221:.\ff.c        **** 			break;
1222:.\ff.c        **** #endif
1223:.\ff.c        **** 		default:
1224:.\ff.c        **** 			val = 1;	/* Internal error */
1225:.\ff.c        **** 		}
1226:.\ff.c        **** 	}
1227:.\ff.c        **** 
1228:.\ff.c        **** 	return val;
1229:.\ff.c        **** }
1230:.\ff.c        **** 
1231:.\ff.c        **** 
1232:.\ff.c        **** 
1233:.\ff.c        **** 
1234:.\ff.c        **** #if !FF_FS_READONLY
1235:.\ff.c        **** /*-----------------------------------------------------------------------*/
1236:.\ff.c        **** /* FAT access - Change value of an FAT entry                             */
1237:.\ff.c        **** /*-----------------------------------------------------------------------*/
1238:.\ff.c        **** 
1239:.\ff.c        **** static FRESULT put_fat (	/* FR_OK(0):succeeded, !=0:error */
1240:.\ff.c        **** 	FATFS* fs,		/* Corresponding filesystem object */
ARM GAS  C:\Users\student\AppData\Local\Temp\ccNQwI6t.s 			page 28


1241:.\ff.c        **** 	DWORD clst,		/* FAT index number (cluster number) to be changed */
1242:.\ff.c        **** 	DWORD val		/* New value to be set to the entry */
1243:.\ff.c        **** )
1244:.\ff.c        **** {
1245:.\ff.c        **** 	UINT bc;
1246:.\ff.c        **** 	BYTE *p;
1247:.\ff.c        **** 	FRESULT res = FR_INT_ERR;
1248:.\ff.c        **** 
1249:.\ff.c        **** 
1250:.\ff.c        **** 	if (clst >= 2 && clst < fs->n_fatent) {	/* Check if in valid range */
1251:.\ff.c        **** 		switch (fs->fs_type) {
1252:.\ff.c        **** 		case FS_FAT12:
1253:.\ff.c        **** 			bc = (UINT)clst; bc += bc / 2;	/* bc: byte offset of the entry */
1254:.\ff.c        **** 			res = move_window(fs, fs->fatbase + (bc / SS(fs)));
1255:.\ff.c        **** 			if (res != FR_OK) break;
1256:.\ff.c        **** 			p = fs->win + bc++ % SS(fs);
1257:.\ff.c        **** 			*p = (clst & 1) ? ((*p & 0x0F) | ((BYTE)val << 4)) : (BYTE)val;	/* Update 1st byte */
1258:.\ff.c        **** 			fs->wflag = 1;
1259:.\ff.c        **** 			res = move_window(fs, fs->fatbase + (bc / SS(fs)));
1260:.\ff.c        **** 			if (res != FR_OK) break;
1261:.\ff.c        **** 			p = fs->win + bc % SS(fs);
1262:.\ff.c        **** 			*p = (clst & 1) ? (BYTE)(val >> 4) : ((*p & 0xF0) | ((BYTE)(val >> 8) & 0x0F));	/* Update 2nd by
1263:.\ff.c        **** 			fs->wflag = 1;
1264:.\ff.c        **** 			break;
1265:.\ff.c        **** 
1266:.\ff.c        **** 		case FS_FAT16:
1267:.\ff.c        **** 			res = move_window(fs, fs->fatbase + (clst / (SS(fs) / 2)));
1268:.\ff.c        **** 			if (res != FR_OK) break;
1269:.\ff.c        **** 			st_word(fs->win + clst * 2 % SS(fs), (WORD)val);	/* Simple WORD array */
1270:.\ff.c        **** 			fs->wflag = 1;
1271:.\ff.c        **** 			break;
1272:.\ff.c        **** 
1273:.\ff.c        **** 		case FS_FAT32:
1274:.\ff.c        **** #if FF_FS_EXFAT
1275:.\ff.c        **** 		case FS_EXFAT:
1276:.\ff.c        **** #endif
1277:.\ff.c        **** 			res = move_window(fs, fs->fatbase + (clst / (SS(fs) / 4)));
1278:.\ff.c        **** 			if (res != FR_OK) break;
1279:.\ff.c        **** 			if (!FF_FS_EXFAT || fs->fs_type != FS_EXFAT) {
1280:.\ff.c        **** 				val = (val & 0x0FFFFFFF) | (ld_dword(fs->win + clst * 4 % SS(fs)) & 0xF0000000);
1281:.\ff.c        **** 			}
1282:.\ff.c        **** 			st_dword(fs->win + clst * 4 % SS(fs), val);
1283:.\ff.c        **** 			fs->wflag = 1;
1284:.\ff.c        **** 			break;
1285:.\ff.c        **** 		}
1286:.\ff.c        **** 	}
1287:.\ff.c        **** 	return res;
1288:.\ff.c        **** }
1289:.\ff.c        **** 
1290:.\ff.c        **** #endif /* !FF_FS_READONLY */
1291:.\ff.c        **** 
1292:.\ff.c        **** 
1293:.\ff.c        **** 
1294:.\ff.c        **** 
1295:.\ff.c        **** #if FF_FS_EXFAT && !FF_FS_READONLY
1296:.\ff.c        **** /*-----------------------------------------------------------------------*/
1297:.\ff.c        **** /* exFAT: Accessing FAT and Allocation Bitmap                            */
ARM GAS  C:\Users\student\AppData\Local\Temp\ccNQwI6t.s 			page 29


1298:.\ff.c        **** /*-----------------------------------------------------------------------*/
1299:.\ff.c        **** 
1300:.\ff.c        **** /*--------------------------------------*/
1301:.\ff.c        **** /* Find a contiguous free cluster block */
1302:.\ff.c        **** /*--------------------------------------*/
1303:.\ff.c        **** 
1304:.\ff.c        **** static DWORD find_bitmap (	/* 0:Not found, 2..:Cluster block found, 0xFFFFFFFF:Disk error */
1305:.\ff.c        **** 	FATFS* fs,	/* Filesystem object */
1306:.\ff.c        **** 	DWORD clst,	/* Cluster number to scan from */
1307:.\ff.c        **** 	DWORD ncl	/* Number of contiguous clusters to find (1..) */
1308:.\ff.c        **** )
1309:.\ff.c        **** {
1310:.\ff.c        **** 	BYTE bm, bv;
1311:.\ff.c        **** 	UINT i;
1312:.\ff.c        **** 	DWORD val, scl, ctr;
1313:.\ff.c        **** 
1314:.\ff.c        **** 
1315:.\ff.c        **** 	clst -= 2;	/* The first bit in the bitmap corresponds to cluster #2 */
1316:.\ff.c        **** 	if (clst >= fs->n_fatent - 2) clst = 0;
1317:.\ff.c        **** 	scl = val = clst; ctr = 0;
1318:.\ff.c        **** 	for (;;) {
1319:.\ff.c        **** 		if (move_window(fs, fs->bitbase + val / 8 / SS(fs)) != FR_OK) return 0xFFFFFFFF;
1320:.\ff.c        **** 		i = val / 8 % SS(fs); bm = 1 << (val % 8);
1321:.\ff.c        **** 		do {
1322:.\ff.c        **** 			do {
1323:.\ff.c        **** 				bv = fs->win[i] & bm; bm <<= 1;		/* Get bit value */
1324:.\ff.c        **** 				if (++val >= fs->n_fatent - 2) {	/* Next cluster (with wrap-around) */
1325:.\ff.c        **** 					val = 0; bm = 0; i = SS(fs);
1326:.\ff.c        **** 				}
1327:.\ff.c        **** 				if (bv == 0) {	/* Is it a free cluster? */
1328:.\ff.c        **** 					if (++ctr == ncl) return scl + 2;	/* Check if run length is sufficient for required */
1329:.\ff.c        **** 				} else {
1330:.\ff.c        **** 					scl = val; ctr = 0;		/* Encountered a cluster in-use, restart to scan */
1331:.\ff.c        **** 				}
1332:.\ff.c        **** 				if (val == clst) return 0;	/* All cluster scanned? */
1333:.\ff.c        **** 			} while (bm != 0);
1334:.\ff.c        **** 			bm = 1;
1335:.\ff.c        **** 		} while (++i < SS(fs));
1336:.\ff.c        **** 	}
1337:.\ff.c        **** }
1338:.\ff.c        **** 
1339:.\ff.c        **** 
1340:.\ff.c        **** /*----------------------------------------*/
1341:.\ff.c        **** /* Set/Clear a block of allocation bitmap */
1342:.\ff.c        **** /*----------------------------------------*/
1343:.\ff.c        **** 
1344:.\ff.c        **** static FRESULT change_bitmap (
1345:.\ff.c        **** 	FATFS* fs,	/* Filesystem object */
1346:.\ff.c        **** 	DWORD clst,	/* Cluster number to change from */
1347:.\ff.c        **** 	DWORD ncl,	/* Number of clusters to be changed */
1348:.\ff.c        **** 	int bv		/* bit value to be set (0 or 1) */
1349:.\ff.c        **** )
1350:.\ff.c        **** {
1351:.\ff.c        **** 	BYTE bm;
1352:.\ff.c        **** 	UINT i;
1353:.\ff.c        **** 	LBA_t sect;
1354:.\ff.c        **** 
ARM GAS  C:\Users\student\AppData\Local\Temp\ccNQwI6t.s 			page 30


1355:.\ff.c        **** 
1356:.\ff.c        **** 	clst -= 2;	/* The first bit corresponds to cluster #2 */
1357:.\ff.c        **** 	sect = fs->bitbase + clst / 8 / SS(fs);	/* Sector address */
1358:.\ff.c        **** 	i = clst / 8 % SS(fs);					/* Byte offset in the sector */
1359:.\ff.c        **** 	bm = 1 << (clst % 8);					/* Bit mask in the byte */
1360:.\ff.c        **** 	for (;;) {
1361:.\ff.c        **** 		if (move_window(fs, sect++) != FR_OK) return FR_DISK_ERR;
1362:.\ff.c        **** 		do {
1363:.\ff.c        **** 			do {
1364:.\ff.c        **** 				if (bv == (int)((fs->win[i] & bm) != 0)) return FR_INT_ERR;	/* Is the bit expected value? */
1365:.\ff.c        **** 				fs->win[i] ^= bm;	/* Flip the bit */
1366:.\ff.c        **** 				fs->wflag = 1;
1367:.\ff.c        **** 				if (--ncl == 0) return FR_OK;	/* All bits processed? */
1368:.\ff.c        **** 			} while (bm <<= 1);		/* Next bit */
1369:.\ff.c        **** 			bm = 1;
1370:.\ff.c        **** 		} while (++i < SS(fs));		/* Next byte */
1371:.\ff.c        **** 		i = 0;
1372:.\ff.c        **** 	}
1373:.\ff.c        **** }
1374:.\ff.c        **** 
1375:.\ff.c        **** 
1376:.\ff.c        **** /*---------------------------------------------*/
1377:.\ff.c        **** /* Fill the first fragment of the FAT chain    */
1378:.\ff.c        **** /*---------------------------------------------*/
1379:.\ff.c        **** 
1380:.\ff.c        **** static FRESULT fill_first_frag (
1381:.\ff.c        **** 	FFOBJID* obj	/* Pointer to the corresponding object */
1382:.\ff.c        **** )
1383:.\ff.c        **** {
1384:.\ff.c        **** 	FRESULT res;
1385:.\ff.c        **** 	DWORD cl, n;
1386:.\ff.c        **** 
1387:.\ff.c        **** 
1388:.\ff.c        **** 	if (obj->stat == 3) {	/* Has the object been changed 'fragmented' in this session? */
1389:.\ff.c        **** 		for (cl = obj->sclust, n = obj->n_cont; n; cl++, n--) {	/* Create cluster chain on the FAT */
1390:.\ff.c        **** 			res = put_fat(obj->fs, cl, cl + 1);
1391:.\ff.c        **** 			if (res != FR_OK) return res;
1392:.\ff.c        **** 		}
1393:.\ff.c        **** 		obj->stat = 0;	/* Change status 'FAT chain is valid' */
1394:.\ff.c        **** 	}
1395:.\ff.c        **** 	return FR_OK;
1396:.\ff.c        **** }
1397:.\ff.c        **** 
1398:.\ff.c        **** 
1399:.\ff.c        **** /*---------------------------------------------*/
1400:.\ff.c        **** /* Fill the last fragment of the FAT chain     */
1401:.\ff.c        **** /*---------------------------------------------*/
1402:.\ff.c        **** 
1403:.\ff.c        **** static FRESULT fill_last_frag (
1404:.\ff.c        **** 	FFOBJID* obj,	/* Pointer to the corresponding object */
1405:.\ff.c        **** 	DWORD lcl,		/* Last cluster of the fragment */
1406:.\ff.c        **** 	DWORD term		/* Value to set the last FAT entry */
1407:.\ff.c        **** )
1408:.\ff.c        **** {
1409:.\ff.c        **** 	FRESULT res;
1410:.\ff.c        **** 
1411:.\ff.c        **** 
ARM GAS  C:\Users\student\AppData\Local\Temp\ccNQwI6t.s 			page 31


1412:.\ff.c        **** 	while (obj->n_frag > 0) {	/* Create the chain of last fragment */
1413:.\ff.c        **** 		res = put_fat(obj->fs, lcl - obj->n_frag + 1, (obj->n_frag > 1) ? lcl - obj->n_frag + 2 : term);
1414:.\ff.c        **** 		if (res != FR_OK) return res;
1415:.\ff.c        **** 		obj->n_frag--;
1416:.\ff.c        **** 	}
1417:.\ff.c        **** 	return FR_OK;
1418:.\ff.c        **** }
1419:.\ff.c        **** 
1420:.\ff.c        **** #endif	/* FF_FS_EXFAT && !FF_FS_READONLY */
1421:.\ff.c        **** 
1422:.\ff.c        **** 
1423:.\ff.c        **** 
1424:.\ff.c        **** #if !FF_FS_READONLY
1425:.\ff.c        **** /*-----------------------------------------------------------------------*/
1426:.\ff.c        **** /* FAT handling - Remove a cluster chain                                 */
1427:.\ff.c        **** /*-----------------------------------------------------------------------*/
1428:.\ff.c        **** 
1429:.\ff.c        **** static FRESULT remove_chain (	/* FR_OK(0):succeeded, !=0:error */
1430:.\ff.c        **** 	FFOBJID* obj,		/* Corresponding object */
1431:.\ff.c        **** 	DWORD clst,			/* Cluster to remove a chain from */
1432:.\ff.c        **** 	DWORD pclst			/* Previous cluster of clst (0 if entire chain) */
1433:.\ff.c        **** )
1434:.\ff.c        **** {
1435:.\ff.c        **** 	FRESULT res = FR_OK;
1436:.\ff.c        **** 	DWORD nxt;
1437:.\ff.c        **** 	FATFS *fs = obj->fs;
1438:.\ff.c        **** #if FF_FS_EXFAT || FF_USE_TRIM
1439:.\ff.c        **** 	DWORD scl = clst, ecl = clst;
1440:.\ff.c        **** #endif
1441:.\ff.c        **** #if FF_USE_TRIM
1442:.\ff.c        **** 	LBA_t rt[2];
1443:.\ff.c        **** #endif
1444:.\ff.c        **** 
1445:.\ff.c        **** 	if (clst < 2 || clst >= fs->n_fatent) return FR_INT_ERR;	/* Check if in valid range */
1446:.\ff.c        **** 
1447:.\ff.c        **** 	/* Mark the previous cluster 'EOC' on the FAT if it exists */
1448:.\ff.c        **** 	if (pclst != 0 && (!FF_FS_EXFAT || fs->fs_type != FS_EXFAT || obj->stat != 2)) {
1449:.\ff.c        **** 		res = put_fat(fs, pclst, 0xFFFFFFFF);
1450:.\ff.c        **** 		if (res != FR_OK) return res;
1451:.\ff.c        **** 	}
1452:.\ff.c        **** 
1453:.\ff.c        **** 	/* Remove the chain */
1454:.\ff.c        **** 	do {
1455:.\ff.c        **** 		nxt = get_fat(obj, clst);			/* Get cluster status */
1456:.\ff.c        **** 		if (nxt == 0) break;				/* Empty cluster? */
1457:.\ff.c        **** 		if (nxt == 1) return FR_INT_ERR;	/* Internal error? */
1458:.\ff.c        **** 		if (nxt == 0xFFFFFFFF) return FR_DISK_ERR;	/* Disk error? */
1459:.\ff.c        **** 		if (!FF_FS_EXFAT || fs->fs_type != FS_EXFAT) {
1460:.\ff.c        **** 			res = put_fat(fs, clst, 0);		/* Mark the cluster 'free' on the FAT */
1461:.\ff.c        **** 			if (res != FR_OK) return res;
1462:.\ff.c        **** 		}
1463:.\ff.c        **** 		if (fs->free_clst < fs->n_fatent - 2) {	/* Update FSINFO */
1464:.\ff.c        **** 			fs->free_clst++;
1465:.\ff.c        **** 			fs->fsi_flag |= 1;
1466:.\ff.c        **** 		}
1467:.\ff.c        **** #if FF_FS_EXFAT || FF_USE_TRIM
1468:.\ff.c        **** 		if (ecl + 1 == nxt) {	/* Is next cluster contiguous? */
ARM GAS  C:\Users\student\AppData\Local\Temp\ccNQwI6t.s 			page 32


1469:.\ff.c        **** 			ecl = nxt;
1470:.\ff.c        **** 		} else {				/* End of contiguous cluster block */
1471:.\ff.c        **** #if FF_FS_EXFAT
1472:.\ff.c        **** 			if (fs->fs_type == FS_EXFAT) {
1473:.\ff.c        **** 				res = change_bitmap(fs, scl, ecl - scl + 1, 0);	/* Mark the cluster block 'free' on the bitmap 
1474:.\ff.c        **** 				if (res != FR_OK) return res;
1475:.\ff.c        **** 			}
1476:.\ff.c        **** #endif
1477:.\ff.c        **** #if FF_USE_TRIM
1478:.\ff.c        **** 			rt[0] = clst2sect(fs, scl);					/* Start of data area to be freed */
1479:.\ff.c        **** 			rt[1] = clst2sect(fs, ecl) + fs->csize - 1;	/* End of data area to be freed */
1480:.\ff.c        **** 			disk_ioctl(fs->pdrv, CTRL_TRIM, rt);		/* Inform storage device that the data in the block may be
1481:.\ff.c        **** #endif
1482:.\ff.c        **** 			scl = ecl = nxt;
1483:.\ff.c        **** 		}
1484:.\ff.c        **** #endif
1485:.\ff.c        **** 		clst = nxt;					/* Next cluster */
1486:.\ff.c        **** 	} while (clst < fs->n_fatent);	/* Repeat while not the last link */
1487:.\ff.c        **** 
1488:.\ff.c        **** #if FF_FS_EXFAT
1489:.\ff.c        **** 	/* Some post processes for chain status */
1490:.\ff.c        **** 	if (fs->fs_type == FS_EXFAT) {
1491:.\ff.c        **** 		if (pclst == 0) {	/* Has the entire chain been removed? */
1492:.\ff.c        **** 			obj->stat = 0;		/* Change the chain status 'initial' */
1493:.\ff.c        **** 		} else {
1494:.\ff.c        **** 			if (obj->stat == 0) {	/* Is it a fragmented chain from the beginning of this session? */
1495:.\ff.c        **** 				clst = obj->sclust;		/* Follow the chain to check if it gets contiguous */
1496:.\ff.c        **** 				while (clst != pclst) {
1497:.\ff.c        **** 					nxt = get_fat(obj, clst);
1498:.\ff.c        **** 					if (nxt < 2) return FR_INT_ERR;
1499:.\ff.c        **** 					if (nxt == 0xFFFFFFFF) return FR_DISK_ERR;
1500:.\ff.c        **** 					if (nxt != clst + 1) break;	/* Not contiguous? */
1501:.\ff.c        **** 					clst++;
1502:.\ff.c        **** 				}
1503:.\ff.c        **** 				if (clst == pclst) {	/* Has the chain got contiguous again? */
1504:.\ff.c        **** 					obj->stat = 2;		/* Change the chain status 'contiguous' */
1505:.\ff.c        **** 				}
1506:.\ff.c        **** 			} else {
1507:.\ff.c        **** 				if (obj->stat == 3 && pclst >= obj->sclust && pclst <= obj->sclust + obj->n_cont) {	/* Was the 
1508:.\ff.c        **** 					obj->stat = 2;	/* Change the chain status 'contiguous' */
1509:.\ff.c        **** 				}
1510:.\ff.c        **** 			}
1511:.\ff.c        **** 		}
1512:.\ff.c        **** 	}
1513:.\ff.c        **** #endif
1514:.\ff.c        **** 	return FR_OK;
1515:.\ff.c        **** }
1516:.\ff.c        **** 
1517:.\ff.c        **** 
1518:.\ff.c        **** 
1519:.\ff.c        **** 
1520:.\ff.c        **** /*-----------------------------------------------------------------------*/
1521:.\ff.c        **** /* FAT handling - Stretch a chain or Create a new chain                  */
1522:.\ff.c        **** /*-----------------------------------------------------------------------*/
1523:.\ff.c        **** 
1524:.\ff.c        **** static DWORD create_chain (	/* 0:No free cluster, 1:Internal error, 0xFFFFFFFF:Disk error, >=2:New 
1525:.\ff.c        **** 	FFOBJID* obj,		/* Corresponding object */
ARM GAS  C:\Users\student\AppData\Local\Temp\ccNQwI6t.s 			page 33


1526:.\ff.c        **** 	DWORD clst			/* Cluster# to stretch, 0:Create a new chain */
1527:.\ff.c        **** )
1528:.\ff.c        **** {
1529:.\ff.c        **** 	DWORD cs, ncl, scl;
1530:.\ff.c        **** 	FRESULT res;
1531:.\ff.c        **** 	FATFS *fs = obj->fs;
1532:.\ff.c        **** 
1533:.\ff.c        **** 
1534:.\ff.c        **** 	if (clst == 0) {	/* Create a new chain */
1535:.\ff.c        **** 		scl = fs->last_clst;				/* Suggested cluster to start to find */
1536:.\ff.c        **** 		if (scl == 0 || scl >= fs->n_fatent) scl = 1;
1537:.\ff.c        **** 	}
1538:.\ff.c        **** 	else {				/* Stretch a chain */
1539:.\ff.c        **** 		cs = get_fat(obj, clst);			/* Check the cluster status */
1540:.\ff.c        **** 		if (cs < 2) return 1;				/* Test for insanity */
1541:.\ff.c        **** 		if (cs == 0xFFFFFFFF) return cs;	/* Test for disk error */
1542:.\ff.c        **** 		if (cs < fs->n_fatent) return cs;	/* It is already followed by next cluster */
1543:.\ff.c        **** 		scl = clst;							/* Cluster to start to find */
1544:.\ff.c        **** 	}
1545:.\ff.c        **** 	if (fs->free_clst == 0) return 0;		/* No free cluster */
1546:.\ff.c        **** 
1547:.\ff.c        **** #if FF_FS_EXFAT
1548:.\ff.c        **** 	if (fs->fs_type == FS_EXFAT) {	/* On the exFAT volume */
1549:.\ff.c        **** 		ncl = find_bitmap(fs, scl, 1);				/* Find a free cluster */
1550:.\ff.c        **** 		if (ncl == 0 || ncl == 0xFFFFFFFF) return ncl;	/* No free cluster or hard error? */
1551:.\ff.c        **** 		res = change_bitmap(fs, ncl, 1, 1);			/* Mark the cluster 'in use' */
1552:.\ff.c        **** 		if (res == FR_INT_ERR) return 1;
1553:.\ff.c        **** 		if (res == FR_DISK_ERR) return 0xFFFFFFFF;
1554:.\ff.c        **** 		if (clst == 0) {							/* Is it a new chain? */
1555:.\ff.c        **** 			obj->stat = 2;							/* Set status 'contiguous' */
1556:.\ff.c        **** 		} else {									/* It is a stretched chain */
1557:.\ff.c        **** 			if (obj->stat == 2 && ncl != scl + 1) {	/* Is the chain got fragmented? */
1558:.\ff.c        **** 				obj->n_cont = scl - obj->sclust;	/* Set size of the contiguous part */
1559:.\ff.c        **** 				obj->stat = 3;						/* Change status 'just fragmented' */
1560:.\ff.c        **** 			}
1561:.\ff.c        **** 		}
1562:.\ff.c        **** 		if (obj->stat != 2) {	/* Is the file non-contiguous? */
1563:.\ff.c        **** 			if (ncl == clst + 1) {	/* Is the cluster next to previous one? */
1564:.\ff.c        **** 				obj->n_frag = obj->n_frag ? obj->n_frag + 1 : 2;	/* Increment size of last framgent */
1565:.\ff.c        **** 			} else {				/* New fragment */
1566:.\ff.c        **** 				if (obj->n_frag == 0) obj->n_frag = 1;
1567:.\ff.c        **** 				res = fill_last_frag(obj, clst, ncl);	/* Fill last fragment on the FAT and link it to new one *
1568:.\ff.c        **** 				if (res == FR_OK) obj->n_frag = 1;
1569:.\ff.c        **** 			}
1570:.\ff.c        **** 		}
1571:.\ff.c        **** 	} else
1572:.\ff.c        **** #endif
1573:.\ff.c        **** 	{	/* On the FAT/FAT32 volume */
1574:.\ff.c        **** 		ncl = 0;
1575:.\ff.c        **** 		if (scl == clst) {						/* Stretching an existing chain? */
1576:.\ff.c        **** 			ncl = scl + 1;						/* Test if next cluster is free */
1577:.\ff.c        **** 			if (ncl >= fs->n_fatent) ncl = 2;
1578:.\ff.c        **** 			cs = get_fat(obj, ncl);				/* Get next cluster status */
1579:.\ff.c        **** 			if (cs == 1 || cs == 0xFFFFFFFF) return cs;	/* Test for error */
1580:.\ff.c        **** 			if (cs != 0) {						/* Not free? */
1581:.\ff.c        **** 				cs = fs->last_clst;				/* Start at suggested cluster if it is valid */
1582:.\ff.c        **** 				if (cs >= 2 && cs < fs->n_fatent) scl = cs;
ARM GAS  C:\Users\student\AppData\Local\Temp\ccNQwI6t.s 			page 34


1583:.\ff.c        **** 				ncl = 0;
1584:.\ff.c        **** 			}
1585:.\ff.c        **** 		}
1586:.\ff.c        **** 		if (ncl == 0) {	/* The new cluster cannot be contiguous and find another fragment */
1587:.\ff.c        **** 			ncl = scl;	/* Start cluster */
1588:.\ff.c        **** 			for (;;) {
1589:.\ff.c        **** 				ncl++;							/* Next cluster */
1590:.\ff.c        **** 				if (ncl >= fs->n_fatent) {		/* Check wrap-around */
1591:.\ff.c        **** 					ncl = 2;
1592:.\ff.c        **** 					if (ncl > scl) return 0;	/* No free cluster found? */
1593:.\ff.c        **** 				}
1594:.\ff.c        **** 				cs = get_fat(obj, ncl);			/* Get the cluster status */
1595:.\ff.c        **** 				if (cs == 0) break;				/* Found a free cluster? */
1596:.\ff.c        **** 				if (cs == 1 || cs == 0xFFFFFFFF) return cs;	/* Test for error */
1597:.\ff.c        **** 				if (ncl == scl) return 0;		/* No free cluster found? */
1598:.\ff.c        **** 			}
1599:.\ff.c        **** 		}
1600:.\ff.c        **** 		res = put_fat(fs, ncl, 0xFFFFFFFF);		/* Mark the new cluster 'EOC' */
1601:.\ff.c        **** 		if (res == FR_OK && clst != 0) {
1602:.\ff.c        **** 			res = put_fat(fs, clst, ncl);		/* Link it from the previous one if needed */
1603:.\ff.c        **** 		}
1604:.\ff.c        **** 	}
1605:.\ff.c        **** 
1606:.\ff.c        **** 	if (res == FR_OK) {			/* Update FSINFO if function succeeded. */
1607:.\ff.c        **** 		fs->last_clst = ncl;
1608:.\ff.c        **** 		if (fs->free_clst <= fs->n_fatent - 2) fs->free_clst--;
1609:.\ff.c        **** 		fs->fsi_flag |= 1;
1610:.\ff.c        **** 	} else {
1611:.\ff.c        **** 		ncl = (res == FR_DISK_ERR) ? 0xFFFFFFFF : 1;	/* Failed. Generate error status */
1612:.\ff.c        **** 	}
1613:.\ff.c        **** 
1614:.\ff.c        **** 	return ncl;		/* Return new cluster number or error status */
1615:.\ff.c        **** }
1616:.\ff.c        **** 
1617:.\ff.c        **** #endif /* !FF_FS_READONLY */
1618:.\ff.c        **** 
1619:.\ff.c        **** 
1620:.\ff.c        **** 
1621:.\ff.c        **** 
1622:.\ff.c        **** #if FF_USE_FASTSEEK
1623:.\ff.c        **** /*-----------------------------------------------------------------------*/
1624:.\ff.c        **** /* FAT handling - Convert offset into cluster with link map table        */
1625:.\ff.c        **** /*-----------------------------------------------------------------------*/
1626:.\ff.c        **** 
1627:.\ff.c        **** static DWORD clmt_clust (	/* <2:Error, >=2:Cluster number */
1628:.\ff.c        **** 	FIL* fp,		/* Pointer to the file object */
1629:.\ff.c        **** 	FSIZE_t ofs		/* File offset to be converted to cluster# */
1630:.\ff.c        **** )
1631:.\ff.c        **** {
1632:.\ff.c        **** 	DWORD cl, ncl;
1633:.\ff.c        **** 	DWORD *tbl;
1634:.\ff.c        **** 	FATFS *fs = fp->obj.fs;
1635:.\ff.c        **** 
1636:.\ff.c        **** 
1637:.\ff.c        **** 	tbl = fp->cltbl + 1;	/* Top of CLMT */
1638:.\ff.c        **** 	cl = (DWORD)(ofs / SS(fs) / fs->csize);	/* Cluster order from top of the file */
1639:.\ff.c        **** 	for (;;) {
ARM GAS  C:\Users\student\AppData\Local\Temp\ccNQwI6t.s 			page 35


1640:.\ff.c        **** 		ncl = *tbl++;			/* Number of cluters in the fragment */
1641:.\ff.c        **** 		if (ncl == 0) return 0;	/* End of table? (error) */
1642:.\ff.c        **** 		if (cl < ncl) break;	/* In this fragment? */
1643:.\ff.c        **** 		cl -= ncl; tbl++;		/* Next fragment */
1644:.\ff.c        **** 	}
1645:.\ff.c        **** 	return cl + *tbl;	/* Return the cluster number */
1646:.\ff.c        **** }
1647:.\ff.c        **** 
1648:.\ff.c        **** #endif	/* FF_USE_FASTSEEK */
1649:.\ff.c        **** 
1650:.\ff.c        **** 
1651:.\ff.c        **** 
1652:.\ff.c        **** 
1653:.\ff.c        **** /*-----------------------------------------------------------------------*/
1654:.\ff.c        **** /* Directory handling - Fill a cluster with zeros                        */
1655:.\ff.c        **** /*-----------------------------------------------------------------------*/
1656:.\ff.c        **** 
1657:.\ff.c        **** #if !FF_FS_READONLY
1658:.\ff.c        **** static FRESULT dir_clear (	/* Returns FR_OK or FR_DISK_ERR */
1659:.\ff.c        **** 	FATFS *fs,		/* Filesystem object */
1660:.\ff.c        **** 	DWORD clst		/* Directory table to clear */
1661:.\ff.c        **** )
1662:.\ff.c        **** {
1663:.\ff.c        **** 	LBA_t sect;
1664:.\ff.c        **** 	UINT n, szb;
1665:.\ff.c        **** 	BYTE *ibuf;
1666:.\ff.c        **** 
1667:.\ff.c        **** 
1668:.\ff.c        **** 	if (sync_window(fs) != FR_OK) return FR_DISK_ERR;	/* Flush disk access window */
1669:.\ff.c        **** 	sect = clst2sect(fs, clst);		/* Top of the cluster */
1670:.\ff.c        **** 	fs->winsect = sect;				/* Set window to top of the cluster */
1671:.\ff.c        **** 	memset(fs->win, 0, sizeof fs->win);	/* Clear window buffer */
1672:.\ff.c        **** #if FF_USE_LFN == 3		/* Quick table clear by using multi-secter write */
1673:.\ff.c        **** 	/* Allocate a temporary buffer */
1674:.\ff.c        **** 	for (szb = ((DWORD)fs->csize * SS(fs) >= MAX_MALLOC) ? MAX_MALLOC : fs->csize * SS(fs), ibuf = 0; 
1675:.\ff.c        **** 	if (szb > SS(fs)) {		/* Buffer allocated? */
1676:.\ff.c        **** 		memset(ibuf, 0, szb);
1677:.\ff.c        **** 		szb /= SS(fs);		/* Bytes -> Sectors */
1678:.\ff.c        **** 		for (n = 0; n < fs->csize && disk_write(fs->pdrv, ibuf, sect + n, szb) == RES_OK; n += szb) ;	/* 
1679:.\ff.c        **** 		ff_memfree(ibuf);
1680:.\ff.c        **** 	} else
1681:.\ff.c        **** #endif
1682:.\ff.c        **** 	{
1683:.\ff.c        **** 		ibuf = fs->win; szb = 1;	/* Use window buffer (many single-sector writes may take a time) */
1684:.\ff.c        **** 		for (n = 0; n < fs->csize && disk_write(fs->pdrv, ibuf, sect + n, szb) == RES_OK; n += szb) ;	/* 
1685:.\ff.c        **** 	}
1686:.\ff.c        **** 	return (n == fs->csize) ? FR_OK : FR_DISK_ERR;
1687:.\ff.c        **** }
1688:.\ff.c        **** #endif	/* !FF_FS_READONLY */
1689:.\ff.c        **** 
1690:.\ff.c        **** 
1691:.\ff.c        **** 
1692:.\ff.c        **** 
1693:.\ff.c        **** /*-----------------------------------------------------------------------*/
1694:.\ff.c        **** /* Directory handling - Set directory index                              */
1695:.\ff.c        **** /*-----------------------------------------------------------------------*/
1696:.\ff.c        **** 
ARM GAS  C:\Users\student\AppData\Local\Temp\ccNQwI6t.s 			page 36


1697:.\ff.c        **** static FRESULT dir_sdi (	/* FR_OK(0):succeeded, !=0:error */
1698:.\ff.c        **** 	DIR* dp,		/* Pointer to directory object */
1699:.\ff.c        **** 	DWORD ofs		/* Offset of directory table */
1700:.\ff.c        **** )
1701:.\ff.c        **** {
1702:.\ff.c        **** 	DWORD csz, clst;
1703:.\ff.c        **** 	FATFS *fs = dp->obj.fs;
1704:.\ff.c        **** 
1705:.\ff.c        **** 
1706:.\ff.c        **** 	if (ofs >= (DWORD)((FF_FS_EXFAT && fs->fs_type == FS_EXFAT) ? MAX_DIR_EX : MAX_DIR) || ofs % SZDIR
1707:.\ff.c        **** 		return FR_INT_ERR;
1708:.\ff.c        **** 	}
1709:.\ff.c        **** 	dp->dptr = ofs;				/* Set current offset */
1710:.\ff.c        **** 	clst = dp->obj.sclust;		/* Table start cluster (0:root) */
1711:.\ff.c        **** 	if (clst == 0 && fs->fs_type >= FS_FAT32) {	/* Replace cluster# 0 with root cluster# */
1712:.\ff.c        **** 		clst = (DWORD)fs->dirbase;
1713:.\ff.c        **** 		if (FF_FS_EXFAT) dp->obj.stat = 0;	/* exFAT: Root dir has an FAT chain */
1714:.\ff.c        **** 	}
1715:.\ff.c        **** 
1716:.\ff.c        **** 	if (clst == 0) {	/* Static table (root-directory on the FAT volume) */
1717:.\ff.c        **** 		if (ofs / SZDIRE >= fs->n_rootdir) return FR_INT_ERR;	/* Is index out of range? */
1718:.\ff.c        **** 		dp->sect = fs->dirbase;
1719:.\ff.c        **** 
1720:.\ff.c        **** 	} else {			/* Dynamic table (sub-directory or root-directory on the FAT32/exFAT volume) */
1721:.\ff.c        **** 		csz = (DWORD)fs->csize * SS(fs);	/* Bytes per cluster */
1722:.\ff.c        **** 		while (ofs >= csz) {				/* Follow cluster chain */
1723:.\ff.c        **** 			clst = get_fat(&dp->obj, clst);				/* Get next cluster */
1724:.\ff.c        **** 			if (clst == 0xFFFFFFFF) return FR_DISK_ERR;	/* Disk error */
1725:.\ff.c        **** 			if (clst < 2 || clst >= fs->n_fatent) return FR_INT_ERR;	/* Reached to end of table or internal 
1726:.\ff.c        **** 			ofs -= csz;
1727:.\ff.c        **** 		}
1728:.\ff.c        **** 		dp->sect = clst2sect(fs, clst);
1729:.\ff.c        **** 	}
1730:.\ff.c        **** 	dp->clust = clst;					/* Current cluster# */
1731:.\ff.c        **** 	if (dp->sect == 0) return FR_INT_ERR;
1732:.\ff.c        **** 	dp->sect += ofs / SS(fs);			/* Sector# of the directory entry */
1733:.\ff.c        **** 	dp->dir = fs->win + (ofs % SS(fs));	/* Pointer to the entry in the win[] */
1734:.\ff.c        **** 
1735:.\ff.c        **** 	return FR_OK;
1736:.\ff.c        **** }
1737:.\ff.c        **** 
1738:.\ff.c        **** 
1739:.\ff.c        **** 
1740:.\ff.c        **** 
1741:.\ff.c        **** /*-----------------------------------------------------------------------*/
1742:.\ff.c        **** /* Directory handling - Move directory table index next                  */
1743:.\ff.c        **** /*-----------------------------------------------------------------------*/
1744:.\ff.c        **** 
1745:.\ff.c        **** static FRESULT dir_next (	/* FR_OK(0):succeeded, FR_NO_FILE:End of table, FR_DENIED:Could not stret
1746:.\ff.c        **** 	DIR* dp,				/* Pointer to the directory object */
1747:.\ff.c        **** 	int stretch				/* 0: Do not stretch table, 1: Stretch table if needed */
1748:.\ff.c        **** )
1749:.\ff.c        **** {
1750:.\ff.c        **** 	DWORD ofs, clst;
1751:.\ff.c        **** 	FATFS *fs = dp->obj.fs;
1752:.\ff.c        **** 
1753:.\ff.c        **** 
ARM GAS  C:\Users\student\AppData\Local\Temp\ccNQwI6t.s 			page 37


1754:.\ff.c        **** 	ofs = dp->dptr + SZDIRE;	/* Next entry */
1755:.\ff.c        **** 	if (ofs >= (DWORD)((FF_FS_EXFAT && fs->fs_type == FS_EXFAT) ? MAX_DIR_EX : MAX_DIR)) dp->sect = 0;
1756:.\ff.c        **** 	if (dp->sect == 0) return FR_NO_FILE;	/* Report EOT if it has been disabled */
1757:.\ff.c        **** 
1758:.\ff.c        **** 	if (ofs % SS(fs) == 0) {	/* Sector changed? */
1759:.\ff.c        **** 		dp->sect++;				/* Next sector */
1760:.\ff.c        **** 
1761:.\ff.c        **** 		if (dp->clust == 0) {	/* Static table */
1762:.\ff.c        **** 			if (ofs / SZDIRE >= fs->n_rootdir) {	/* Report EOT if it reached end of static table */
1763:.\ff.c        **** 				dp->sect = 0; return FR_NO_FILE;
1764:.\ff.c        **** 			}
1765:.\ff.c        **** 		}
1766:.\ff.c        **** 		else {					/* Dynamic table */
1767:.\ff.c        **** 			if ((ofs / SS(fs) & (fs->csize - 1)) == 0) {	/* Cluster changed? */
1768:.\ff.c        **** 				clst = get_fat(&dp->obj, dp->clust);		/* Get next cluster */
1769:.\ff.c        **** 				if (clst <= 1) return FR_INT_ERR;			/* Internal error */
1770:.\ff.c        **** 				if (clst == 0xFFFFFFFF) return FR_DISK_ERR;	/* Disk error */
1771:.\ff.c        **** 				if (clst >= fs->n_fatent) {					/* It reached end of dynamic table */
1772:.\ff.c        **** #if !FF_FS_READONLY
1773:.\ff.c        **** 					if (!stretch) {								/* If no stretch, report EOT */
1774:.\ff.c        **** 						dp->sect = 0; return FR_NO_FILE;
1775:.\ff.c        **** 					}
1776:.\ff.c        **** 					clst = create_chain(&dp->obj, dp->clust);	/* Allocate a cluster */
1777:.\ff.c        **** 					if (clst == 0) return FR_DENIED;			/* No free cluster */
1778:.\ff.c        **** 					if (clst == 1) return FR_INT_ERR;			/* Internal error */
1779:.\ff.c        **** 					if (clst == 0xFFFFFFFF) return FR_DISK_ERR;	/* Disk error */
1780:.\ff.c        **** 					if (dir_clear(fs, clst) != FR_OK) return FR_DISK_ERR;	/* Clean up the stretched table */
1781:.\ff.c        **** 					if (FF_FS_EXFAT) dp->obj.stat |= 4;			/* exFAT: The directory has been stretched */
1782:.\ff.c        **** #else
1783:.\ff.c        **** 					if (!stretch) dp->sect = 0;					/* (this line is to suppress compiler warning) */
1784:.\ff.c        **** 					dp->sect = 0; return FR_NO_FILE;			/* Report EOT */
1785:.\ff.c        **** #endif
1786:.\ff.c        **** 				}
1787:.\ff.c        **** 				dp->clust = clst;		/* Initialize data for new cluster */
1788:.\ff.c        **** 				dp->sect = clst2sect(fs, clst);
1789:.\ff.c        **** 			}
1790:.\ff.c        **** 		}
1791:.\ff.c        **** 	}
1792:.\ff.c        **** 	dp->dptr = ofs;						/* Current entry */
1793:.\ff.c        **** 	dp->dir = fs->win + ofs % SS(fs);	/* Pointer to the entry in the win[] */
1794:.\ff.c        **** 
1795:.\ff.c        **** 	return FR_OK;
1796:.\ff.c        **** }
1797:.\ff.c        **** 
1798:.\ff.c        **** 
1799:.\ff.c        **** 
1800:.\ff.c        **** 
1801:.\ff.c        **** #if !FF_FS_READONLY
1802:.\ff.c        **** /*-----------------------------------------------------------------------*/
1803:.\ff.c        **** /* Directory handling - Reserve a block of directory entries             */
1804:.\ff.c        **** /*-----------------------------------------------------------------------*/
1805:.\ff.c        **** 
1806:.\ff.c        **** static FRESULT dir_alloc (	/* FR_OK(0):succeeded, !=0:error */
1807:.\ff.c        **** 	DIR* dp,				/* Pointer to the directory object */
1808:.\ff.c        **** 	UINT n_ent				/* Number of contiguous entries to allocate */
1809:.\ff.c        **** )
1810:.\ff.c        **** {
ARM GAS  C:\Users\student\AppData\Local\Temp\ccNQwI6t.s 			page 38


1811:.\ff.c        **** 	FRESULT res;
1812:.\ff.c        **** 	UINT n;
1813:.\ff.c        **** 	FATFS *fs = dp->obj.fs;
1814:.\ff.c        **** 
1815:.\ff.c        **** 
1816:.\ff.c        **** 	res = dir_sdi(dp, 0);
1817:.\ff.c        **** 	if (res == FR_OK) {
1818:.\ff.c        **** 		n = 0;
1819:.\ff.c        **** 		do {
1820:.\ff.c        **** 			res = move_window(fs, dp->sect);
1821:.\ff.c        **** 			if (res != FR_OK) break;
1822:.\ff.c        **** #if FF_FS_EXFAT
1823:.\ff.c        **** 			if ((fs->fs_type == FS_EXFAT) ? (int)((dp->dir[XDIR_Type] & 0x80) == 0) : (int)(dp->dir[DIR_Name
1824:.\ff.c        **** #else
1825:.\ff.c        **** 			if (dp->dir[DIR_Name] == DDEM || dp->dir[DIR_Name] == 0) {	/* Is the entry free? */
1826:.\ff.c        **** #endif
1827:.\ff.c        **** 				if (++n == n_ent) break;	/* Is a block of contiguous free entries found? */
1828:.\ff.c        **** 			} else {
1829:.\ff.c        **** 				n = 0;				/* Not a free entry, restart to search */
1830:.\ff.c        **** 			}
1831:.\ff.c        **** 			res = dir_next(dp, 1);	/* Next entry with table stretch enabled */
1832:.\ff.c        **** 		} while (res == FR_OK);
1833:.\ff.c        **** 	}
1834:.\ff.c        **** 
1835:.\ff.c        **** 	if (res == FR_NO_FILE) res = FR_DENIED;	/* No directory entry to allocate */
1836:.\ff.c        **** 	return res;
1837:.\ff.c        **** }
1838:.\ff.c        **** 
1839:.\ff.c        **** #endif	/* !FF_FS_READONLY */
1840:.\ff.c        **** 
1841:.\ff.c        **** 
1842:.\ff.c        **** 
1843:.\ff.c        **** 
1844:.\ff.c        **** /*-----------------------------------------------------------------------*/
1845:.\ff.c        **** /* FAT: Directory handling - Load/Store start cluster number             */
1846:.\ff.c        **** /*-----------------------------------------------------------------------*/
1847:.\ff.c        **** 
1848:.\ff.c        **** static DWORD ld_clust (	/* Returns the top cluster value of the SFN entry */
1849:.\ff.c        **** 	FATFS* fs,			/* Pointer to the fs object */
1850:.\ff.c        **** 	const BYTE* dir		/* Pointer to the key entry */
1851:.\ff.c        **** )
1852:.\ff.c        **** {
 294              		.loc 1 1852 0
 295              		.cfi_startproc
 296              		@ args = 0, pretend = 0, frame = 0
 297              		@ frame_needed = 0, uses_anonymous_args = 0
 298              	.LVL43:
 299 0000 70B5     		push	{r4, r5, r6, lr}
 300              		.cfi_def_cfa_offset 16
 301              		.cfi_offset 4, -16
 302              		.cfi_offset 5, -12
 303              		.cfi_offset 6, -8
 304              		.cfi_offset 14, -4
 305 0002 0646     		mov	r6, r0
 306 0004 0D46     		mov	r5, r1
1853:.\ff.c        **** 	DWORD cl;
1854:.\ff.c        **** 
ARM GAS  C:\Users\student\AppData\Local\Temp\ccNQwI6t.s 			page 39


1855:.\ff.c        **** 	cl = ld_word(dir + DIR_FstClusLO);
 307              		.loc 1 1855 0
 308 0006 01F11A00 		add	r0, r1, #26
 309              	.LVL44:
 310 000a FFF7FEFF 		bl	ld_word
 311              	.LVL45:
 312 000e 0446     		mov	r4, r0
 313              	.LVL46:
1856:.\ff.c        **** 	if (fs->fs_type == FS_FAT32) {
 314              		.loc 1 1856 0
 315 0010 3378     		ldrb	r3, [r6]	@ zero_extendqisi2
 316 0012 032B     		cmp	r3, #3
 317 0014 05D1     		bne	.L22
1857:.\ff.c        **** 		cl |= (DWORD)ld_word(dir + DIR_FstClusHI) << 16;
 318              		.loc 1 1857 0
 319 0016 05F11400 		add	r0, r5, #20
 320              	.LVL47:
 321 001a FFF7FEFF 		bl	ld_word
 322              	.LVL48:
 323 001e 44EA0040 		orr	r0, r4, r0, lsl #16
 324              	.LVL49:
 325              	.L22:
1858:.\ff.c        **** 	}
1859:.\ff.c        **** 
1860:.\ff.c        **** 	return cl;
1861:.\ff.c        **** }
 326              		.loc 1 1861 0
 327 0022 70BD     		pop	{r4, r5, r6, pc}
 328              		.cfi_endproc
 329              	.LFE18:
 330              		.size	ld_clust, .-ld_clust
 331              		.section	.text.st_clust,"ax",%progbits
 332              		.align	2
 333              		.thumb
 334              		.thumb_func
 335              		.type	st_clust, %function
 336              	st_clust:
 337              	.LFB19:
1862:.\ff.c        **** 
1863:.\ff.c        **** 
1864:.\ff.c        **** #if !FF_FS_READONLY
1865:.\ff.c        **** static void st_clust (
1866:.\ff.c        **** 	FATFS* fs,	/* Pointer to the fs object */
1867:.\ff.c        **** 	BYTE* dir,	/* Pointer to the key entry */
1868:.\ff.c        **** 	DWORD cl	/* Value to be set */
1869:.\ff.c        **** )
1870:.\ff.c        **** {
 338              		.loc 1 1870 0
 339              		.cfi_startproc
 340              		@ args = 0, pretend = 0, frame = 0
 341              		@ frame_needed = 0, uses_anonymous_args = 0
 342              	.LVL50:
 343 0000 70B5     		push	{r4, r5, r6, lr}
 344              		.cfi_def_cfa_offset 16
 345              		.cfi_offset 4, -16
 346              		.cfi_offset 5, -12
 347              		.cfi_offset 6, -8
ARM GAS  C:\Users\student\AppData\Local\Temp\ccNQwI6t.s 			page 40


 348              		.cfi_offset 14, -4
 349 0002 0646     		mov	r6, r0
 350 0004 0D46     		mov	r5, r1
 351 0006 1446     		mov	r4, r2
1871:.\ff.c        **** 	st_word(dir + DIR_FstClusLO, (WORD)cl);
 352              		.loc 1 1871 0
 353 0008 01F11A00 		add	r0, r1, #26
 354              	.LVL51:
 355 000c 91B2     		uxth	r1, r2
 356              	.LVL52:
 357 000e FFF7FEFF 		bl	st_word
 358              	.LVL53:
1872:.\ff.c        **** 	if (fs->fs_type == FS_FAT32) {
 359              		.loc 1 1872 0
 360 0012 3378     		ldrb	r3, [r6]	@ zero_extendqisi2
 361 0014 032B     		cmp	r3, #3
 362 0016 04D1     		bne	.L24
1873:.\ff.c        **** 		st_word(dir + DIR_FstClusHI, (WORD)(cl >> 16));
 363              		.loc 1 1873 0
 364 0018 05F11400 		add	r0, r5, #20
 365 001c 210C     		lsrs	r1, r4, #16
 366 001e FFF7FEFF 		bl	st_word
 367              	.LVL54:
 368              	.L24:
 369 0022 70BD     		pop	{r4, r5, r6, pc}
 370              		.cfi_endproc
 371              	.LFE19:
 372              		.size	st_clust, .-st_clust
 373              		.section	.text.get_fileinfo,"ax",%progbits
 374              		.align	2
 375              		.thumb
 376              		.thumb_func
 377              		.type	get_fileinfo, %function
 378              	get_fileinfo:
 379              	.LFB24:
1874:.\ff.c        **** 	}
1875:.\ff.c        **** }
1876:.\ff.c        **** #endif
1877:.\ff.c        **** 
1878:.\ff.c        **** 
1879:.\ff.c        **** 
1880:.\ff.c        **** #if FF_USE_LFN
1881:.\ff.c        **** /*--------------------------------------------------------*/
1882:.\ff.c        **** /* FAT-LFN: Compare a part of file name with an LFN entry */
1883:.\ff.c        **** /*--------------------------------------------------------*/
1884:.\ff.c        **** 
1885:.\ff.c        **** static int cmp_lfn (		/* 1:matched, 0:not matched */
1886:.\ff.c        **** 	const WCHAR* lfnbuf,	/* Pointer to the LFN working buffer to be compared */
1887:.\ff.c        **** 	BYTE* dir				/* Pointer to the directory entry containing the part of LFN */
1888:.\ff.c        **** )
1889:.\ff.c        **** {
1890:.\ff.c        **** 	UINT i, s;
1891:.\ff.c        **** 	WCHAR wc, uc;
1892:.\ff.c        **** 
1893:.\ff.c        **** 
1894:.\ff.c        **** 	if (ld_word(dir + LDIR_FstClusLO) != 0) return 0;	/* Check LDIR_FstClusLO */
1895:.\ff.c        **** 
ARM GAS  C:\Users\student\AppData\Local\Temp\ccNQwI6t.s 			page 41


1896:.\ff.c        **** 	i = ((dir[LDIR_Ord] & 0x3F) - 1) * 13;	/* Offset in the LFN buffer */
1897:.\ff.c        **** 
1898:.\ff.c        **** 	for (wc = 1, s = 0; s < 13; s++) {		/* Process all characters in the entry */
1899:.\ff.c        **** 		uc = ld_word(dir + LfnOfs[s]);		/* Pick an LFN character */
1900:.\ff.c        **** 		if (wc != 0) {
1901:.\ff.c        **** 			if (i >= FF_MAX_LFN + 1 || ff_wtoupper(uc) != ff_wtoupper(lfnbuf[i++])) {	/* Compare it */
1902:.\ff.c        **** 				return 0;					/* Not matched */
1903:.\ff.c        **** 			}
1904:.\ff.c        **** 			wc = uc;
1905:.\ff.c        **** 		} else {
1906:.\ff.c        **** 			if (uc != 0xFFFF) return 0;		/* Check filler */
1907:.\ff.c        **** 		}
1908:.\ff.c        **** 	}
1909:.\ff.c        **** 
1910:.\ff.c        **** 	if ((dir[LDIR_Ord] & LLEF) && wc && lfnbuf[i]) return 0;	/* Last segment matched but different len
1911:.\ff.c        **** 
1912:.\ff.c        **** 	return 1;		/* The part of LFN matched */
1913:.\ff.c        **** }
1914:.\ff.c        **** 
1915:.\ff.c        **** 
1916:.\ff.c        **** #if FF_FS_MINIMIZE <= 1 || FF_FS_RPATH >= 2 || FF_USE_LABEL || FF_FS_EXFAT
1917:.\ff.c        **** /*-----------------------------------------------------*/
1918:.\ff.c        **** /* FAT-LFN: Pick a part of file name from an LFN entry */
1919:.\ff.c        **** /*-----------------------------------------------------*/
1920:.\ff.c        **** 
1921:.\ff.c        **** static int pick_lfn (	/* 1:succeeded, 0:buffer overflow or invalid LFN entry */
1922:.\ff.c        **** 	WCHAR* lfnbuf,		/* Pointer to the LFN working buffer */
1923:.\ff.c        **** 	BYTE* dir			/* Pointer to the LFN entry */
1924:.\ff.c        **** )
1925:.\ff.c        **** {
1926:.\ff.c        **** 	UINT i, s;
1927:.\ff.c        **** 	WCHAR wc, uc;
1928:.\ff.c        **** 
1929:.\ff.c        **** 
1930:.\ff.c        **** 	if (ld_word(dir + LDIR_FstClusLO) != 0) return 0;	/* Check LDIR_FstClusLO is 0 */
1931:.\ff.c        **** 
1932:.\ff.c        **** 	i = ((dir[LDIR_Ord] & ~LLEF) - 1) * 13;	/* Offset in the LFN buffer */
1933:.\ff.c        **** 
1934:.\ff.c        **** 	for (wc = 1, s = 0; s < 13; s++) {		/* Process all characters in the entry */
1935:.\ff.c        **** 		uc = ld_word(dir + LfnOfs[s]);		/* Pick an LFN character */
1936:.\ff.c        **** 		if (wc != 0) {
1937:.\ff.c        **** 			if (i >= FF_MAX_LFN + 1) return 0;	/* Buffer overflow? */
1938:.\ff.c        **** 			lfnbuf[i++] = wc = uc;			/* Store it */
1939:.\ff.c        **** 		} else {
1940:.\ff.c        **** 			if (uc != 0xFFFF) return 0;		/* Check filler */
1941:.\ff.c        **** 		}
1942:.\ff.c        **** 	}
1943:.\ff.c        **** 
1944:.\ff.c        **** 	if (dir[LDIR_Ord] & LLEF && wc != 0) {	/* Put terminator if it is the last LFN part and not termin
1945:.\ff.c        **** 		if (i >= FF_MAX_LFN + 1) return 0;	/* Buffer overflow? */
1946:.\ff.c        **** 		lfnbuf[i] = 0;
1947:.\ff.c        **** 	}
1948:.\ff.c        **** 
1949:.\ff.c        **** 	return 1;		/* The part of LFN is valid */
1950:.\ff.c        **** }
1951:.\ff.c        **** #endif
1952:.\ff.c        **** 
ARM GAS  C:\Users\student\AppData\Local\Temp\ccNQwI6t.s 			page 42


1953:.\ff.c        **** 
1954:.\ff.c        **** #if !FF_FS_READONLY
1955:.\ff.c        **** /*-----------------------------------------*/
1956:.\ff.c        **** /* FAT-LFN: Create an entry of LFN entries */
1957:.\ff.c        **** /*-----------------------------------------*/
1958:.\ff.c        **** 
1959:.\ff.c        **** static void put_lfn (
1960:.\ff.c        **** 	const WCHAR* lfn,	/* Pointer to the LFN */
1961:.\ff.c        **** 	BYTE* dir,			/* Pointer to the LFN entry to be created */
1962:.\ff.c        **** 	BYTE ord,			/* LFN order (1-20) */
1963:.\ff.c        **** 	BYTE sum			/* Checksum of the corresponding SFN */
1964:.\ff.c        **** )
1965:.\ff.c        **** {
1966:.\ff.c        **** 	UINT i, s;
1967:.\ff.c        **** 	WCHAR wc;
1968:.\ff.c        **** 
1969:.\ff.c        **** 
1970:.\ff.c        **** 	dir[LDIR_Chksum] = sum;			/* Set checksum */
1971:.\ff.c        **** 	dir[LDIR_Attr] = AM_LFN;		/* Set attribute. LFN entry */
1972:.\ff.c        **** 	dir[LDIR_Type] = 0;
1973:.\ff.c        **** 	st_word(dir + LDIR_FstClusLO, 0);
1974:.\ff.c        **** 
1975:.\ff.c        **** 	i = (ord - 1) * 13;				/* Get offset in the LFN working buffer */
1976:.\ff.c        **** 	s = wc = 0;
1977:.\ff.c        **** 	do {
1978:.\ff.c        **** 		if (wc != 0xFFFF) wc = lfn[i++];	/* Get an effective character */
1979:.\ff.c        **** 		st_word(dir + LfnOfs[s], wc);		/* Put it */
1980:.\ff.c        **** 		if (wc == 0) wc = 0xFFFF;			/* Padding characters for following items */
1981:.\ff.c        **** 	} while (++s < 13);
1982:.\ff.c        **** 	if (wc == 0xFFFF || !lfn[i]) ord |= LLEF;	/* Last LFN part is the start of LFN sequence */
1983:.\ff.c        **** 	dir[LDIR_Ord] = ord;			/* Set the LFN order */
1984:.\ff.c        **** }
1985:.\ff.c        **** 
1986:.\ff.c        **** #endif	/* !FF_FS_READONLY */
1987:.\ff.c        **** #endif	/* FF_USE_LFN */
1988:.\ff.c        **** 
1989:.\ff.c        **** 
1990:.\ff.c        **** 
1991:.\ff.c        **** #if FF_USE_LFN && !FF_FS_READONLY
1992:.\ff.c        **** /*-----------------------------------------------------------------------*/
1993:.\ff.c        **** /* FAT-LFN: Create a Numbered SFN                                        */
1994:.\ff.c        **** /*-----------------------------------------------------------------------*/
1995:.\ff.c        **** 
1996:.\ff.c        **** static void gen_numname (
1997:.\ff.c        **** 	BYTE* dst,			/* Pointer to the buffer to store numbered SFN */
1998:.\ff.c        **** 	const BYTE* src,	/* Pointer to SFN in directory form */
1999:.\ff.c        **** 	const WCHAR* lfn,	/* Pointer to LFN */
2000:.\ff.c        **** 	UINT seq			/* Sequence number */
2001:.\ff.c        **** )
2002:.\ff.c        **** {
2003:.\ff.c        **** 	BYTE ns[8], c;
2004:.\ff.c        **** 	UINT i, j;
2005:.\ff.c        **** 	WCHAR wc;
2006:.\ff.c        **** 	DWORD sreg;
2007:.\ff.c        **** 
2008:.\ff.c        **** 
2009:.\ff.c        **** 	memcpy(dst, src, 11);	/* Prepare the SFN to be modified */
ARM GAS  C:\Users\student\AppData\Local\Temp\ccNQwI6t.s 			page 43


2010:.\ff.c        **** 
2011:.\ff.c        **** 	if (seq > 5) {	/* In case of many collisions, generate a hash number instead of sequential number 
2012:.\ff.c        **** 		sreg = seq;
2013:.\ff.c        **** 		while (*lfn) {	/* Create a CRC as hash value */
2014:.\ff.c        **** 			wc = *lfn++;
2015:.\ff.c        **** 			for (i = 0; i < 16; i++) {
2016:.\ff.c        **** 				sreg = (sreg << 1) + (wc & 1);
2017:.\ff.c        **** 				wc >>= 1;
2018:.\ff.c        **** 				if (sreg & 0x10000) sreg ^= 0x11021;
2019:.\ff.c        **** 			}
2020:.\ff.c        **** 		}
2021:.\ff.c        **** 		seq = (UINT)sreg;
2022:.\ff.c        **** 	}
2023:.\ff.c        **** 
2024:.\ff.c        **** 	/* Make suffix (~ + hexadecimal) */
2025:.\ff.c        **** 	i = 7;
2026:.\ff.c        **** 	do {
2027:.\ff.c        **** 		c = (BYTE)((seq % 16) + '0'); seq /= 16;
2028:.\ff.c        **** 		if (c > '9') c += 7;
2029:.\ff.c        **** 		ns[i--] = c;
2030:.\ff.c        **** 	} while (i && seq);
2031:.\ff.c        **** 	ns[i] = '~';
2032:.\ff.c        **** 
2033:.\ff.c        **** 	/* Append the suffix to the SFN body */
2034:.\ff.c        **** 	for (j = 0; j < i && dst[j] != ' '; j++) {	/* Find the offset to append */
2035:.\ff.c        **** 		if (dbc_1st(dst[j])) {	/* To avoid DBC break up */
2036:.\ff.c        **** 			if (j == i - 1) break;
2037:.\ff.c        **** 			j++;
2038:.\ff.c        **** 		}
2039:.\ff.c        **** 	}
2040:.\ff.c        **** 	do {	/* Append the suffix */
2041:.\ff.c        **** 		dst[j++] = (i < 8) ? ns[i++] : ' ';
2042:.\ff.c        **** 	} while (j < 8);
2043:.\ff.c        **** }
2044:.\ff.c        **** #endif	/* FF_USE_LFN && !FF_FS_READONLY */
2045:.\ff.c        **** 
2046:.\ff.c        **** 
2047:.\ff.c        **** 
2048:.\ff.c        **** #if FF_USE_LFN
2049:.\ff.c        **** /*-----------------------------------------------------------------------*/
2050:.\ff.c        **** /* FAT-LFN: Calculate checksum of an SFN entry                           */
2051:.\ff.c        **** /*-----------------------------------------------------------------------*/
2052:.\ff.c        **** 
2053:.\ff.c        **** static BYTE sum_sfn (
2054:.\ff.c        **** 	const BYTE* dir		/* Pointer to the SFN entry */
2055:.\ff.c        **** )
2056:.\ff.c        **** {
2057:.\ff.c        **** 	BYTE sum = 0;
2058:.\ff.c        **** 	UINT n = 11;
2059:.\ff.c        **** 
2060:.\ff.c        **** 	do {
2061:.\ff.c        **** 		sum = (sum >> 1) + (sum << 7) + *dir++;
2062:.\ff.c        **** 	} while (--n);
2063:.\ff.c        **** 	return sum;
2064:.\ff.c        **** }
2065:.\ff.c        **** 
2066:.\ff.c        **** #endif	/* FF_USE_LFN */
ARM GAS  C:\Users\student\AppData\Local\Temp\ccNQwI6t.s 			page 44


2067:.\ff.c        **** 
2068:.\ff.c        **** 
2069:.\ff.c        **** 
2070:.\ff.c        **** #if FF_FS_EXFAT
2071:.\ff.c        **** /*-----------------------------------------------------------------------*/
2072:.\ff.c        **** /* exFAT: Checksum                                                       */
2073:.\ff.c        **** /*-----------------------------------------------------------------------*/
2074:.\ff.c        **** 
2075:.\ff.c        **** static WORD xdir_sum (	/* Get checksum of the directoly entry block */
2076:.\ff.c        **** 	const BYTE* dir		/* Directory entry block to be calculated */
2077:.\ff.c        **** )
2078:.\ff.c        **** {
2079:.\ff.c        **** 	UINT i, szblk;
2080:.\ff.c        **** 	WORD sum;
2081:.\ff.c        **** 
2082:.\ff.c        **** 
2083:.\ff.c        **** 	szblk = (dir[XDIR_NumSec] + 1) * SZDIRE;	/* Number of bytes of the entry block */
2084:.\ff.c        **** 	for (i = sum = 0; i < szblk; i++) {
2085:.\ff.c        **** 		if (i == XDIR_SetSum) {	/* Skip 2-byte sum field */
2086:.\ff.c        **** 			i++;
2087:.\ff.c        **** 		} else {
2088:.\ff.c        **** 			sum = ((sum & 1) ? 0x8000 : 0) + (sum >> 1) + dir[i];
2089:.\ff.c        **** 		}
2090:.\ff.c        **** 	}
2091:.\ff.c        **** 	return sum;
2092:.\ff.c        **** }
2093:.\ff.c        **** 
2094:.\ff.c        **** 
2095:.\ff.c        **** 
2096:.\ff.c        **** static WORD xname_sum (	/* Get check sum (to be used as hash) of the file name */
2097:.\ff.c        **** 	const WCHAR* name	/* File name to be calculated */
2098:.\ff.c        **** )
2099:.\ff.c        **** {
2100:.\ff.c        **** 	WCHAR chr;
2101:.\ff.c        **** 	WORD sum = 0;
2102:.\ff.c        **** 
2103:.\ff.c        **** 
2104:.\ff.c        **** 	while ((chr = *name++) != 0) {
2105:.\ff.c        **** 		chr = (WCHAR)ff_wtoupper(chr);		/* File name needs to be up-case converted */
2106:.\ff.c        **** 		sum = ((sum & 1) ? 0x8000 : 0) + (sum >> 1) + (chr & 0xFF);
2107:.\ff.c        **** 		sum = ((sum & 1) ? 0x8000 : 0) + (sum >> 1) + (chr >> 8);
2108:.\ff.c        **** 	}
2109:.\ff.c        **** 	return sum;
2110:.\ff.c        **** }
2111:.\ff.c        **** 
2112:.\ff.c        **** 
2113:.\ff.c        **** #if !FF_FS_READONLY && FF_USE_MKFS
2114:.\ff.c        **** static DWORD xsum32 (	/* Returns 32-bit checksum */
2115:.\ff.c        **** 	BYTE  dat,			/* Byte to be calculated (byte-by-byte processing) */
2116:.\ff.c        **** 	DWORD sum			/* Previous sum value */
2117:.\ff.c        **** )
2118:.\ff.c        **** {
2119:.\ff.c        **** 	sum = ((sum & 1) ? 0x80000000 : 0) + (sum >> 1) + dat;
2120:.\ff.c        **** 	return sum;
2121:.\ff.c        **** }
2122:.\ff.c        **** #endif
2123:.\ff.c        **** 
ARM GAS  C:\Users\student\AppData\Local\Temp\ccNQwI6t.s 			page 45


2124:.\ff.c        **** 
2125:.\ff.c        **** 
2126:.\ff.c        **** /*------------------------------------*/
2127:.\ff.c        **** /* exFAT: Get a directory entry block */
2128:.\ff.c        **** /*------------------------------------*/
2129:.\ff.c        **** 
2130:.\ff.c        **** static FRESULT load_xdir (	/* FR_INT_ERR: invalid entry block */
2131:.\ff.c        **** 	DIR* dp					/* Reading directory object pointing top of the entry block to load */
2132:.\ff.c        **** )
2133:.\ff.c        **** {
2134:.\ff.c        **** 	FRESULT res;
2135:.\ff.c        **** 	UINT i, sz_ent;
2136:.\ff.c        **** 	BYTE *dirb = dp->obj.fs->dirbuf;	/* Pointer to the on-memory directory entry block 85+C0+C1s */
2137:.\ff.c        **** 
2138:.\ff.c        **** 
2139:.\ff.c        **** 	/* Load file directory entry */
2140:.\ff.c        **** 	res = move_window(dp->obj.fs, dp->sect);
2141:.\ff.c        **** 	if (res != FR_OK) return res;
2142:.\ff.c        **** 	if (dp->dir[XDIR_Type] != ET_FILEDIR) return FR_INT_ERR;	/* Invalid order */
2143:.\ff.c        **** 	memcpy(dirb + 0 * SZDIRE, dp->dir, SZDIRE);
2144:.\ff.c        **** 	sz_ent = (dirb[XDIR_NumSec] + 1) * SZDIRE;
2145:.\ff.c        **** 	if (sz_ent < 3 * SZDIRE || sz_ent > 19 * SZDIRE) return FR_INT_ERR;
2146:.\ff.c        **** 
2147:.\ff.c        **** 	/* Load stream extension entry */
2148:.\ff.c        **** 	res = dir_next(dp, 0);
2149:.\ff.c        **** 	if (res == FR_NO_FILE) res = FR_INT_ERR;	/* It cannot be */
2150:.\ff.c        **** 	if (res != FR_OK) return res;
2151:.\ff.c        **** 	res = move_window(dp->obj.fs, dp->sect);
2152:.\ff.c        **** 	if (res != FR_OK) return res;
2153:.\ff.c        **** 	if (dp->dir[XDIR_Type] != ET_STREAM) return FR_INT_ERR;	/* Invalid order */
2154:.\ff.c        **** 	memcpy(dirb + 1 * SZDIRE, dp->dir, SZDIRE);
2155:.\ff.c        **** 	if (MAXDIRB(dirb[XDIR_NumName]) > sz_ent) return FR_INT_ERR;
2156:.\ff.c        **** 
2157:.\ff.c        **** 	/* Load file name entries */
2158:.\ff.c        **** 	i = 2 * SZDIRE;	/* Name offset to load */
2159:.\ff.c        **** 	do {
2160:.\ff.c        **** 		res = dir_next(dp, 0);
2161:.\ff.c        **** 		if (res == FR_NO_FILE) res = FR_INT_ERR;	/* It cannot be */
2162:.\ff.c        **** 		if (res != FR_OK) return res;
2163:.\ff.c        **** 		res = move_window(dp->obj.fs, dp->sect);
2164:.\ff.c        **** 		if (res != FR_OK) return res;
2165:.\ff.c        **** 		if (dp->dir[XDIR_Type] != ET_FILENAME) return FR_INT_ERR;	/* Invalid order */
2166:.\ff.c        **** 		if (i < MAXDIRB(FF_MAX_LFN)) memcpy(dirb + i, dp->dir, SZDIRE);
2167:.\ff.c        **** 	} while ((i += SZDIRE) < sz_ent);
2168:.\ff.c        **** 
2169:.\ff.c        **** 	/* Sanity check (do it for only accessible object) */
2170:.\ff.c        **** 	if (i <= MAXDIRB(FF_MAX_LFN)) {
2171:.\ff.c        **** 		if (xdir_sum(dirb) != ld_word(dirb + XDIR_SetSum)) return FR_INT_ERR;
2172:.\ff.c        **** 	}
2173:.\ff.c        **** 	return FR_OK;
2174:.\ff.c        **** }
2175:.\ff.c        **** 
2176:.\ff.c        **** 
2177:.\ff.c        **** /*------------------------------------------------------------------*/
2178:.\ff.c        **** /* exFAT: Initialize object allocation info with loaded entry block */
2179:.\ff.c        **** /*------------------------------------------------------------------*/
2180:.\ff.c        **** 
ARM GAS  C:\Users\student\AppData\Local\Temp\ccNQwI6t.s 			page 46


2181:.\ff.c        **** static void init_alloc_info (
2182:.\ff.c        **** 	FATFS* fs,		/* Filesystem object */
2183:.\ff.c        **** 	FFOBJID* obj	/* Object allocation information to be initialized */
2184:.\ff.c        **** )
2185:.\ff.c        **** {
2186:.\ff.c        **** 	obj->sclust = ld_dword(fs->dirbuf + XDIR_FstClus);		/* Start cluster */
2187:.\ff.c        **** 	obj->objsize = ld_qword(fs->dirbuf + XDIR_FileSize);	/* Size */
2188:.\ff.c        **** 	obj->stat = fs->dirbuf[XDIR_GenFlags] & 2;				/* Allocation status */
2189:.\ff.c        **** 	obj->n_frag = 0;										/* No last fragment info */
2190:.\ff.c        **** }
2191:.\ff.c        **** 
2192:.\ff.c        **** 
2193:.\ff.c        **** 
2194:.\ff.c        **** #if !FF_FS_READONLY || FF_FS_RPATH != 0
2195:.\ff.c        **** /*------------------------------------------------*/
2196:.\ff.c        **** /* exFAT: Load the object's directory entry block */
2197:.\ff.c        **** /*------------------------------------------------*/
2198:.\ff.c        **** 
2199:.\ff.c        **** static FRESULT load_obj_xdir (
2200:.\ff.c        **** 	DIR* dp,			/* Blank directory object to be used to access containing directory */
2201:.\ff.c        **** 	const FFOBJID* obj	/* Object with its containing directory information */
2202:.\ff.c        **** )
2203:.\ff.c        **** {
2204:.\ff.c        **** 	FRESULT res;
2205:.\ff.c        **** 
2206:.\ff.c        **** 	/* Open object containing directory */
2207:.\ff.c        **** 	dp->obj.fs = obj->fs;
2208:.\ff.c        **** 	dp->obj.sclust = obj->c_scl;
2209:.\ff.c        **** 	dp->obj.stat = (BYTE)obj->c_size;
2210:.\ff.c        **** 	dp->obj.objsize = obj->c_size & 0xFFFFFF00;
2211:.\ff.c        **** 	dp->obj.n_frag = 0;
2212:.\ff.c        **** 	dp->blk_ofs = obj->c_ofs;
2213:.\ff.c        **** 
2214:.\ff.c        **** 	res = dir_sdi(dp, dp->blk_ofs);	/* Goto object's entry block */
2215:.\ff.c        **** 	if (res == FR_OK) {
2216:.\ff.c        **** 		res = load_xdir(dp);		/* Load the object's entry block */
2217:.\ff.c        **** 	}
2218:.\ff.c        **** 	return res;
2219:.\ff.c        **** }
2220:.\ff.c        **** #endif
2221:.\ff.c        **** 
2222:.\ff.c        **** 
2223:.\ff.c        **** #if !FF_FS_READONLY
2224:.\ff.c        **** /*----------------------------------------*/
2225:.\ff.c        **** /* exFAT: Store the directory entry block */
2226:.\ff.c        **** /*----------------------------------------*/
2227:.\ff.c        **** 
2228:.\ff.c        **** static FRESULT store_xdir (
2229:.\ff.c        **** 	DIR* dp				/* Pointer to the directory object */
2230:.\ff.c        **** )
2231:.\ff.c        **** {
2232:.\ff.c        **** 	FRESULT res;
2233:.\ff.c        **** 	UINT nent;
2234:.\ff.c        **** 	BYTE *dirb = dp->obj.fs->dirbuf;	/* Pointer to the directory entry block 85+C0+C1s */
2235:.\ff.c        **** 
2236:.\ff.c        **** 	/* Create set sum */
2237:.\ff.c        **** 	st_word(dirb + XDIR_SetSum, xdir_sum(dirb));
ARM GAS  C:\Users\student\AppData\Local\Temp\ccNQwI6t.s 			page 47


2238:.\ff.c        **** 	nent = dirb[XDIR_NumSec] + 1;
2239:.\ff.c        **** 
2240:.\ff.c        **** 	/* Store the directory entry block to the directory */
2241:.\ff.c        **** 	res = dir_sdi(dp, dp->blk_ofs);
2242:.\ff.c        **** 	while (res == FR_OK) {
2243:.\ff.c        **** 		res = move_window(dp->obj.fs, dp->sect);
2244:.\ff.c        **** 		if (res != FR_OK) break;
2245:.\ff.c        **** 		memcpy(dp->dir, dirb, SZDIRE);
2246:.\ff.c        **** 		dp->obj.fs->wflag = 1;
2247:.\ff.c        **** 		if (--nent == 0) break;
2248:.\ff.c        **** 		dirb += SZDIRE;
2249:.\ff.c        **** 		res = dir_next(dp, 0);
2250:.\ff.c        **** 	}
2251:.\ff.c        **** 	return (res == FR_OK || res == FR_DISK_ERR) ? res : FR_INT_ERR;
2252:.\ff.c        **** }
2253:.\ff.c        **** 
2254:.\ff.c        **** 
2255:.\ff.c        **** 
2256:.\ff.c        **** /*-------------------------------------------*/
2257:.\ff.c        **** /* exFAT: Create a new directory entry block */
2258:.\ff.c        **** /*-------------------------------------------*/
2259:.\ff.c        **** 
2260:.\ff.c        **** static void create_xdir (
2261:.\ff.c        **** 	BYTE* dirb,			/* Pointer to the directory entry block buffer */
2262:.\ff.c        **** 	const WCHAR* lfn	/* Pointer to the object name */
2263:.\ff.c        **** )
2264:.\ff.c        **** {
2265:.\ff.c        **** 	UINT i;
2266:.\ff.c        **** 	BYTE nc1, nlen;
2267:.\ff.c        **** 	WCHAR wc;
2268:.\ff.c        **** 
2269:.\ff.c        **** 
2270:.\ff.c        **** 	/* Create file-directory and stream-extension entry */
2271:.\ff.c        **** 	memset(dirb, 0, 2 * SZDIRE);
2272:.\ff.c        **** 	dirb[0 * SZDIRE + XDIR_Type] = ET_FILEDIR;
2273:.\ff.c        **** 	dirb[1 * SZDIRE + XDIR_Type] = ET_STREAM;
2274:.\ff.c        **** 
2275:.\ff.c        **** 	/* Create file-name entries */
2276:.\ff.c        **** 	i = SZDIRE * 2;	/* Top of file_name entries */
2277:.\ff.c        **** 	nlen = nc1 = 0; wc = 1;
2278:.\ff.c        **** 	do {
2279:.\ff.c        **** 		dirb[i++] = ET_FILENAME; dirb[i++] = 0;
2280:.\ff.c        **** 		do {	/* Fill name field */
2281:.\ff.c        **** 			if (wc != 0 && (wc = lfn[nlen]) != 0) nlen++;	/* Get a character if exist */
2282:.\ff.c        **** 			st_word(dirb + i, wc); 	/* Store it */
2283:.\ff.c        **** 			i += 2;
2284:.\ff.c        **** 		} while (i % SZDIRE != 0);
2285:.\ff.c        **** 		nc1++;
2286:.\ff.c        **** 	} while (lfn[nlen]);	/* Fill next entry if any char follows */
2287:.\ff.c        **** 
2288:.\ff.c        **** 	dirb[XDIR_NumName] = nlen;		/* Set name length */
2289:.\ff.c        **** 	dirb[XDIR_NumSec] = 1 + nc1;	/* Set secondary count (C0 + C1s) */
2290:.\ff.c        **** 	st_word(dirb + XDIR_NameHash, xname_sum(lfn));	/* Set name hash */
2291:.\ff.c        **** }
2292:.\ff.c        **** 
2293:.\ff.c        **** #endif	/* !FF_FS_READONLY */
2294:.\ff.c        **** #endif	/* FF_FS_EXFAT */
ARM GAS  C:\Users\student\AppData\Local\Temp\ccNQwI6t.s 			page 48


2295:.\ff.c        **** 
2296:.\ff.c        **** 
2297:.\ff.c        **** 
2298:.\ff.c        **** #if FF_FS_MINIMIZE <= 1 || FF_FS_RPATH >= 2 || FF_USE_LABEL || FF_FS_EXFAT
2299:.\ff.c        **** /*-----------------------------------------------------------------------*/
2300:.\ff.c        **** /* Read an object from the directory                                     */
2301:.\ff.c        **** /*-----------------------------------------------------------------------*/
2302:.\ff.c        **** 
2303:.\ff.c        **** #define DIR_READ_FILE(dp) dir_read(dp, 0)
2304:.\ff.c        **** #define DIR_READ_LABEL(dp) dir_read(dp, 1)
2305:.\ff.c        **** 
2306:.\ff.c        **** static FRESULT dir_read (
2307:.\ff.c        **** 	DIR* dp,		/* Pointer to the directory object */
2308:.\ff.c        **** 	int vol			/* Filtered by 0:file/directory or 1:volume label */
2309:.\ff.c        **** )
2310:.\ff.c        **** {
2311:.\ff.c        **** 	FRESULT res = FR_NO_FILE;
2312:.\ff.c        **** 	FATFS *fs = dp->obj.fs;
2313:.\ff.c        **** 	BYTE attr, b;
2314:.\ff.c        **** #if FF_USE_LFN
2315:.\ff.c        **** 	BYTE ord = 0xFF, sum = 0xFF;
2316:.\ff.c        **** #endif
2317:.\ff.c        **** 
2318:.\ff.c        **** 	while (dp->sect) {
2319:.\ff.c        **** 		res = move_window(fs, dp->sect);
2320:.\ff.c        **** 		if (res != FR_OK) break;
2321:.\ff.c        **** 		b = dp->dir[DIR_Name];	/* Test for the entry type */
2322:.\ff.c        **** 		if (b == 0) {
2323:.\ff.c        **** 			res = FR_NO_FILE; break; /* Reached to end of the directory */
2324:.\ff.c        **** 		}
2325:.\ff.c        **** #if FF_FS_EXFAT
2326:.\ff.c        **** 		if (fs->fs_type == FS_EXFAT) {	/* On the exFAT volume */
2327:.\ff.c        **** 			if (FF_USE_LABEL && vol) {
2328:.\ff.c        **** 				if (b == ET_VLABEL) break;	/* Volume label entry? */
2329:.\ff.c        **** 			} else {
2330:.\ff.c        **** 				if (b == ET_FILEDIR) {		/* Start of the file entry block? */
2331:.\ff.c        **** 					dp->blk_ofs = dp->dptr;	/* Get location of the block */
2332:.\ff.c        **** 					res = load_xdir(dp);	/* Load the entry block */
2333:.\ff.c        **** 					if (res == FR_OK) {
2334:.\ff.c        **** 						dp->obj.attr = fs->dirbuf[XDIR_Attr] & AM_MASK;	/* Get attribute */
2335:.\ff.c        **** 					}
2336:.\ff.c        **** 					break;
2337:.\ff.c        **** 				}
2338:.\ff.c        **** 			}
2339:.\ff.c        **** 		} else
2340:.\ff.c        **** #endif
2341:.\ff.c        **** 		{	/* On the FAT/FAT32 volume */
2342:.\ff.c        **** 			dp->obj.attr = attr = dp->dir[DIR_Attr] & AM_MASK;	/* Get attribute */
2343:.\ff.c        **** #if FF_USE_LFN		/* LFN configuration */
2344:.\ff.c        **** 			if (b == DDEM || b == '.' || (int)((attr & ~AM_ARC) == AM_VOL) != vol) {	/* An entry without val
2345:.\ff.c        **** 				ord = 0xFF;
2346:.\ff.c        **** 			} else {
2347:.\ff.c        **** 				if (attr == AM_LFN) {	/* An LFN entry is found */
2348:.\ff.c        **** 					if (b & LLEF) {		/* Is it start of an LFN sequence? */
2349:.\ff.c        **** 						sum = dp->dir[LDIR_Chksum];
2350:.\ff.c        **** 						b &= (BYTE)~LLEF; ord = b;
2351:.\ff.c        **** 						dp->blk_ofs = dp->dptr;
ARM GAS  C:\Users\student\AppData\Local\Temp\ccNQwI6t.s 			page 49


2352:.\ff.c        **** 					}
2353:.\ff.c        **** 					/* Check LFN validity and capture it */
2354:.\ff.c        **** 					ord = (b == ord && sum == dp->dir[LDIR_Chksum] && pick_lfn(fs->lfnbuf, dp->dir)) ? ord - 1 : 0
2355:.\ff.c        **** 				} else {				/* An SFN entry is found */
2356:.\ff.c        **** 					if (ord != 0 || sum != sum_sfn(dp->dir)) {	/* Is there a valid LFN? */
2357:.\ff.c        **** 						dp->blk_ofs = 0xFFFFFFFF;	/* It has no LFN. */
2358:.\ff.c        **** 					}
2359:.\ff.c        **** 					break;
2360:.\ff.c        **** 				}
2361:.\ff.c        **** 			}
2362:.\ff.c        **** #else		/* Non LFN configuration */
2363:.\ff.c        **** 			if (b != DDEM && b != '.' && attr != AM_LFN && (int)((attr & ~AM_ARC) == AM_VOL) == vol) {	/* Is
2364:.\ff.c        **** 				break;
2365:.\ff.c        **** 			}
2366:.\ff.c        **** #endif
2367:.\ff.c        **** 		}
2368:.\ff.c        **** 		res = dir_next(dp, 0);		/* Next entry */
2369:.\ff.c        **** 		if (res != FR_OK) break;
2370:.\ff.c        **** 	}
2371:.\ff.c        **** 
2372:.\ff.c        **** 	if (res != FR_OK) dp->sect = 0;		/* Terminate the read operation on error or EOT */
2373:.\ff.c        **** 	return res;
2374:.\ff.c        **** }
2375:.\ff.c        **** 
2376:.\ff.c        **** #endif	/* FF_FS_MINIMIZE <= 1 || FF_USE_LABEL || FF_FS_RPATH >= 2 */
2377:.\ff.c        **** 
2378:.\ff.c        **** 
2379:.\ff.c        **** 
2380:.\ff.c        **** /*-----------------------------------------------------------------------*/
2381:.\ff.c        **** /* Directory handling - Find an object in the directory                  */
2382:.\ff.c        **** /*-----------------------------------------------------------------------*/
2383:.\ff.c        **** 
2384:.\ff.c        **** static FRESULT dir_find (	/* FR_OK(0):succeeded, !=0:error */
2385:.\ff.c        **** 	DIR* dp					/* Pointer to the directory object with the file name */
2386:.\ff.c        **** )
2387:.\ff.c        **** {
2388:.\ff.c        **** 	FRESULT res;
2389:.\ff.c        **** 	FATFS *fs = dp->obj.fs;
2390:.\ff.c        **** 	BYTE c;
2391:.\ff.c        **** #if FF_USE_LFN
2392:.\ff.c        **** 	BYTE a, ord, sum;
2393:.\ff.c        **** #endif
2394:.\ff.c        **** 
2395:.\ff.c        **** 	res = dir_sdi(dp, 0);			/* Rewind directory object */
2396:.\ff.c        **** 	if (res != FR_OK) return res;
2397:.\ff.c        **** #if FF_FS_EXFAT
2398:.\ff.c        **** 	if (fs->fs_type == FS_EXFAT) {	/* On the exFAT volume */
2399:.\ff.c        **** 		BYTE nc;
2400:.\ff.c        **** 		UINT di, ni;
2401:.\ff.c        **** 		WORD hash = xname_sum(fs->lfnbuf);		/* Hash value of the name to find */
2402:.\ff.c        **** 
2403:.\ff.c        **** 		while ((res = DIR_READ_FILE(dp)) == FR_OK) {	/* Read an item */
2404:.\ff.c        **** #if FF_MAX_LFN < 255
2405:.\ff.c        **** 			if (fs->dirbuf[XDIR_NumName] > FF_MAX_LFN) continue;		/* Skip comparison if inaccessible object 
2406:.\ff.c        **** #endif
2407:.\ff.c        **** 			if (ld_word(fs->dirbuf + XDIR_NameHash) != hash) continue;	/* Skip comparison if hash mismatched
2408:.\ff.c        **** 			for (nc = fs->dirbuf[XDIR_NumName], di = SZDIRE * 2, ni = 0; nc; nc--, di += 2, ni++) {	/* Compa
ARM GAS  C:\Users\student\AppData\Local\Temp\ccNQwI6t.s 			page 50


2409:.\ff.c        **** 				if ((di % SZDIRE) == 0) di += 2;
2410:.\ff.c        **** 				if (ff_wtoupper(ld_word(fs->dirbuf + di)) != ff_wtoupper(fs->lfnbuf[ni])) break;
2411:.\ff.c        **** 			}
2412:.\ff.c        **** 			if (nc == 0 && !fs->lfnbuf[ni]) break;	/* Name matched? */
2413:.\ff.c        **** 		}
2414:.\ff.c        **** 		return res;
2415:.\ff.c        **** 	}
2416:.\ff.c        **** #endif
2417:.\ff.c        **** 	/* On the FAT/FAT32 volume */
2418:.\ff.c        **** #if FF_USE_LFN
2419:.\ff.c        **** 	ord = sum = 0xFF; dp->blk_ofs = 0xFFFFFFFF;	/* Reset LFN sequence */
2420:.\ff.c        **** #endif
2421:.\ff.c        **** 	do {
2422:.\ff.c        **** 		res = move_window(fs, dp->sect);
2423:.\ff.c        **** 		if (res != FR_OK) break;
2424:.\ff.c        **** 		c = dp->dir[DIR_Name];
2425:.\ff.c        **** 		if (c == 0) { res = FR_NO_FILE; break; }	/* Reached to end of table */
2426:.\ff.c        **** #if FF_USE_LFN		/* LFN configuration */
2427:.\ff.c        **** 		dp->obj.attr = a = dp->dir[DIR_Attr] & AM_MASK;
2428:.\ff.c        **** 		if (c == DDEM || ((a & AM_VOL) && a != AM_LFN)) {	/* An entry without valid data */
2429:.\ff.c        **** 			ord = 0xFF; dp->blk_ofs = 0xFFFFFFFF;	/* Reset LFN sequence */
2430:.\ff.c        **** 		} else {
2431:.\ff.c        **** 			if (a == AM_LFN) {			/* An LFN entry is found */
2432:.\ff.c        **** 				if (!(dp->fn[NSFLAG] & NS_NOLFN)) {
2433:.\ff.c        **** 					if (c & LLEF) {		/* Is it start of LFN sequence? */
2434:.\ff.c        **** 						sum = dp->dir[LDIR_Chksum];
2435:.\ff.c        **** 						c &= (BYTE)~LLEF; ord = c;	/* LFN start order */
2436:.\ff.c        **** 						dp->blk_ofs = dp->dptr;	/* Start offset of LFN */
2437:.\ff.c        **** 					}
2438:.\ff.c        **** 					/* Check validity of the LFN entry and compare it with given name */
2439:.\ff.c        **** 					ord = (c == ord && sum == dp->dir[LDIR_Chksum] && cmp_lfn(fs->lfnbuf, dp->dir)) ? ord - 1 : 0x
2440:.\ff.c        **** 				}
2441:.\ff.c        **** 			} else {					/* An SFN entry is found */
2442:.\ff.c        **** 				if (ord == 0 && sum == sum_sfn(dp->dir)) break;	/* LFN matched? */
2443:.\ff.c        **** 				if (!(dp->fn[NSFLAG] & NS_LOSS) && !memcmp(dp->dir, dp->fn, 11)) break;	/* SFN matched? */
2444:.\ff.c        **** 				ord = 0xFF; dp->blk_ofs = 0xFFFFFFFF;	/* Reset LFN sequence */
2445:.\ff.c        **** 			}
2446:.\ff.c        **** 		}
2447:.\ff.c        **** #else		/* Non LFN configuration */
2448:.\ff.c        **** 		dp->obj.attr = dp->dir[DIR_Attr] & AM_MASK;
2449:.\ff.c        **** 		if (!(dp->dir[DIR_Attr] & AM_VOL) && !memcmp(dp->dir, dp->fn, 11)) break;	/* Is it a valid entry?
2450:.\ff.c        **** #endif
2451:.\ff.c        **** 		res = dir_next(dp, 0);	/* Next entry */
2452:.\ff.c        **** 	} while (res == FR_OK);
2453:.\ff.c        **** 
2454:.\ff.c        **** 	return res;
2455:.\ff.c        **** }
2456:.\ff.c        **** 
2457:.\ff.c        **** 
2458:.\ff.c        **** 
2459:.\ff.c        **** 
2460:.\ff.c        **** #if !FF_FS_READONLY
2461:.\ff.c        **** /*-----------------------------------------------------------------------*/
2462:.\ff.c        **** /* Register an object to the directory                                   */
2463:.\ff.c        **** /*-----------------------------------------------------------------------*/
2464:.\ff.c        **** 
2465:.\ff.c        **** static FRESULT dir_register (	/* FR_OK:succeeded, FR_DENIED:no free entry or too many SFN collision
ARM GAS  C:\Users\student\AppData\Local\Temp\ccNQwI6t.s 			page 51


2466:.\ff.c        **** 	DIR* dp						/* Target directory with object name to be created */
2467:.\ff.c        **** )
2468:.\ff.c        **** {
2469:.\ff.c        **** 	FRESULT res;
2470:.\ff.c        **** 	FATFS *fs = dp->obj.fs;
2471:.\ff.c        **** #if FF_USE_LFN		/* LFN configuration */
2472:.\ff.c        **** 	UINT n, len, n_ent;
2473:.\ff.c        **** 	BYTE sn[12], sum;
2474:.\ff.c        **** 
2475:.\ff.c        **** 
2476:.\ff.c        **** 	if (dp->fn[NSFLAG] & (NS_DOT | NS_NONAME)) return FR_INVALID_NAME;	/* Check name validity */
2477:.\ff.c        **** 	for (len = 0; fs->lfnbuf[len]; len++) ;	/* Get lfn length */
2478:.\ff.c        **** 
2479:.\ff.c        **** #if FF_FS_EXFAT
2480:.\ff.c        **** 	if (fs->fs_type == FS_EXFAT) {	/* On the exFAT volume */
2481:.\ff.c        **** 		n_ent = (len + 14) / 15 + 2;	/* Number of entries to allocate (85+C0+C1s) */
2482:.\ff.c        **** 		res = dir_alloc(dp, n_ent);		/* Allocate directory entries */
2483:.\ff.c        **** 		if (res != FR_OK) return res;
2484:.\ff.c        **** 		dp->blk_ofs = dp->dptr - SZDIRE * (n_ent - 1);	/* Set the allocated entry block offset */
2485:.\ff.c        **** 
2486:.\ff.c        **** 		if (dp->obj.stat & 4) {			/* Has the directory been stretched by new allocation? */
2487:.\ff.c        **** 			dp->obj.stat &= ~4;
2488:.\ff.c        **** 			res = fill_first_frag(&dp->obj);	/* Fill the first fragment on the FAT if needed */
2489:.\ff.c        **** 			if (res != FR_OK) return res;
2490:.\ff.c        **** 			res = fill_last_frag(&dp->obj, dp->clust, 0xFFFFFFFF);	/* Fill the last fragment on the FAT if n
2491:.\ff.c        **** 			if (res != FR_OK) return res;
2492:.\ff.c        **** 			if (dp->obj.sclust != 0) {		/* Is it a sub-directory? */
2493:.\ff.c        **** 				DIR dj;
2494:.\ff.c        **** 
2495:.\ff.c        **** 				res = load_obj_xdir(&dj, &dp->obj);	/* Load the object status */
2496:.\ff.c        **** 				if (res != FR_OK) return res;
2497:.\ff.c        **** 				dp->obj.objsize += (DWORD)fs->csize * SS(fs);		/* Increase the directory size by cluster size *
2498:.\ff.c        **** 				st_qword(fs->dirbuf + XDIR_FileSize, dp->obj.objsize);
2499:.\ff.c        **** 				st_qword(fs->dirbuf + XDIR_ValidFileSize, dp->obj.objsize);
2500:.\ff.c        **** 				fs->dirbuf[XDIR_GenFlags] = dp->obj.stat | 1;		/* Update the allocation status */
2501:.\ff.c        **** 				res = store_xdir(&dj);				/* Store the object status */
2502:.\ff.c        **** 				if (res != FR_OK) return res;
2503:.\ff.c        **** 			}
2504:.\ff.c        **** 		}
2505:.\ff.c        **** 
2506:.\ff.c        **** 		create_xdir(fs->dirbuf, fs->lfnbuf);	/* Create on-memory directory block to be written later */
2507:.\ff.c        **** 		return FR_OK;
2508:.\ff.c        **** 	}
2509:.\ff.c        **** #endif
2510:.\ff.c        **** 	/* On the FAT/FAT32 volume */
2511:.\ff.c        **** 	memcpy(sn, dp->fn, 12);
2512:.\ff.c        **** 	if (sn[NSFLAG] & NS_LOSS) {			/* When LFN is out of 8.3 format, generate a numbered name */
2513:.\ff.c        **** 		dp->fn[NSFLAG] = NS_NOLFN;		/* Find only SFN */
2514:.\ff.c        **** 		for (n = 1; n < 100; n++) {
2515:.\ff.c        **** 			gen_numname(dp->fn, sn, fs->lfnbuf, n);	/* Generate a numbered name */
2516:.\ff.c        **** 			res = dir_find(dp);				/* Check if the name collides with existing SFN */
2517:.\ff.c        **** 			if (res != FR_OK) break;
2518:.\ff.c        **** 		}
2519:.\ff.c        **** 		if (n == 100) return FR_DENIED;		/* Abort if too many collisions */
2520:.\ff.c        **** 		if (res != FR_NO_FILE) return res;	/* Abort if the result is other than 'not collided' */
2521:.\ff.c        **** 		dp->fn[NSFLAG] = sn[NSFLAG];
2522:.\ff.c        **** 	}
ARM GAS  C:\Users\student\AppData\Local\Temp\ccNQwI6t.s 			page 52


2523:.\ff.c        **** 
2524:.\ff.c        **** 	/* Create an SFN with/without LFNs. */
2525:.\ff.c        **** 	n_ent = (sn[NSFLAG] & NS_LFN) ? (len + 12) / 13 + 1 : 1;	/* Number of entries to allocate */
2526:.\ff.c        **** 	res = dir_alloc(dp, n_ent);		/* Allocate entries */
2527:.\ff.c        **** 	if (res == FR_OK && --n_ent) {	/* Set LFN entry if needed */
2528:.\ff.c        **** 		res = dir_sdi(dp, dp->dptr - n_ent * SZDIRE);
2529:.\ff.c        **** 		if (res == FR_OK) {
2530:.\ff.c        **** 			sum = sum_sfn(dp->fn);	/* Checksum value of the SFN tied to the LFN */
2531:.\ff.c        **** 			do {					/* Store LFN entries in bottom first */
2532:.\ff.c        **** 				res = move_window(fs, dp->sect);
2533:.\ff.c        **** 				if (res != FR_OK) break;
2534:.\ff.c        **** 				put_lfn(fs->lfnbuf, dp->dir, (BYTE)n_ent, sum);
2535:.\ff.c        **** 				fs->wflag = 1;
2536:.\ff.c        **** 				res = dir_next(dp, 0);	/* Next entry */
2537:.\ff.c        **** 			} while (res == FR_OK && --n_ent);
2538:.\ff.c        **** 		}
2539:.\ff.c        **** 	}
2540:.\ff.c        **** 
2541:.\ff.c        **** #else	/* Non LFN configuration */
2542:.\ff.c        **** 	res = dir_alloc(dp, 1);		/* Allocate an entry for SFN */
2543:.\ff.c        **** 
2544:.\ff.c        **** #endif
2545:.\ff.c        **** 
2546:.\ff.c        **** 	/* Set SFN entry */
2547:.\ff.c        **** 	if (res == FR_OK) {
2548:.\ff.c        **** 		res = move_window(fs, dp->sect);
2549:.\ff.c        **** 		if (res == FR_OK) {
2550:.\ff.c        **** 			memset(dp->dir, 0, SZDIRE);	/* Clean the entry */
2551:.\ff.c        **** 			memcpy(dp->dir + DIR_Name, dp->fn, 11);	/* Put SFN */
2552:.\ff.c        **** #if FF_USE_LFN
2553:.\ff.c        **** 			dp->dir[DIR_NTres] = dp->fn[NSFLAG] & (NS_BODY | NS_EXT);	/* Put NT flag */
2554:.\ff.c        **** #endif
2555:.\ff.c        **** 			fs->wflag = 1;
2556:.\ff.c        **** 		}
2557:.\ff.c        **** 	}
2558:.\ff.c        **** 
2559:.\ff.c        **** 	return res;
2560:.\ff.c        **** }
2561:.\ff.c        **** 
2562:.\ff.c        **** #endif /* !FF_FS_READONLY */
2563:.\ff.c        **** 
2564:.\ff.c        **** 
2565:.\ff.c        **** 
2566:.\ff.c        **** #if !FF_FS_READONLY && FF_FS_MINIMIZE == 0
2567:.\ff.c        **** /*-----------------------------------------------------------------------*/
2568:.\ff.c        **** /* Remove an object from the directory                                   */
2569:.\ff.c        **** /*-----------------------------------------------------------------------*/
2570:.\ff.c        **** 
2571:.\ff.c        **** static FRESULT dir_remove (	/* FR_OK:Succeeded, FR_DISK_ERR:A disk error */
2572:.\ff.c        **** 	DIR* dp					/* Directory object pointing the entry to be removed */
2573:.\ff.c        **** )
2574:.\ff.c        **** {
2575:.\ff.c        **** 	FRESULT res;
2576:.\ff.c        **** 	FATFS *fs = dp->obj.fs;
2577:.\ff.c        **** #if FF_USE_LFN		/* LFN configuration */
2578:.\ff.c        **** 	DWORD last = dp->dptr;
2579:.\ff.c        **** 
ARM GAS  C:\Users\student\AppData\Local\Temp\ccNQwI6t.s 			page 53


2580:.\ff.c        **** 	res = (dp->blk_ofs == 0xFFFFFFFF) ? FR_OK : dir_sdi(dp, dp->blk_ofs);	/* Goto top of the entry blo
2581:.\ff.c        **** 	if (res == FR_OK) {
2582:.\ff.c        **** 		do {
2583:.\ff.c        **** 			res = move_window(fs, dp->sect);
2584:.\ff.c        **** 			if (res != FR_OK) break;
2585:.\ff.c        **** 			if (FF_FS_EXFAT && fs->fs_type == FS_EXFAT) {	/* On the exFAT volume */
2586:.\ff.c        **** 				dp->dir[XDIR_Type] &= 0x7F;	/* Clear the entry InUse flag. */
2587:.\ff.c        **** 			} else {										/* On the FAT/FAT32 volume */
2588:.\ff.c        **** 				dp->dir[DIR_Name] = DDEM;	/* Mark the entry 'deleted'. */
2589:.\ff.c        **** 			}
2590:.\ff.c        **** 			fs->wflag = 1;
2591:.\ff.c        **** 			if (dp->dptr >= last) break;	/* If reached last entry then all entries of the object has been de
2592:.\ff.c        **** 			res = dir_next(dp, 0);	/* Next entry */
2593:.\ff.c        **** 		} while (res == FR_OK);
2594:.\ff.c        **** 		if (res == FR_NO_FILE) res = FR_INT_ERR;
2595:.\ff.c        **** 	}
2596:.\ff.c        **** #else			/* Non LFN configuration */
2597:.\ff.c        **** 
2598:.\ff.c        **** 	res = move_window(fs, dp->sect);
2599:.\ff.c        **** 	if (res == FR_OK) {
2600:.\ff.c        **** 		dp->dir[DIR_Name] = DDEM;	/* Mark the entry 'deleted'.*/
2601:.\ff.c        **** 		fs->wflag = 1;
2602:.\ff.c        **** 	}
2603:.\ff.c        **** #endif
2604:.\ff.c        **** 
2605:.\ff.c        **** 	return res;
2606:.\ff.c        **** }
2607:.\ff.c        **** 
2608:.\ff.c        **** #endif /* !FF_FS_READONLY && FF_FS_MINIMIZE == 0 */
2609:.\ff.c        **** 
2610:.\ff.c        **** 
2611:.\ff.c        **** 
2612:.\ff.c        **** #if FF_FS_MINIMIZE <= 1 || FF_FS_RPATH >= 2
2613:.\ff.c        **** /*-----------------------------------------------------------------------*/
2614:.\ff.c        **** /* Get file information from directory entry                             */
2615:.\ff.c        **** /*-----------------------------------------------------------------------*/
2616:.\ff.c        **** 
2617:.\ff.c        **** static void get_fileinfo (
2618:.\ff.c        **** 	DIR* dp,			/* Pointer to the directory object */
2619:.\ff.c        **** 	FILINFO* fno		/* Pointer to the file information to be filled */
2620:.\ff.c        **** )
2621:.\ff.c        **** {
 380              		.loc 1 2621 0
 381              		.cfi_startproc
 382              		@ args = 0, pretend = 0, frame = 0
 383              		@ frame_needed = 0, uses_anonymous_args = 0
 384              	.LVL55:
2622:.\ff.c        **** 	UINT si, di;
2623:.\ff.c        **** #if FF_USE_LFN
2624:.\ff.c        **** 	BYTE lcf;
2625:.\ff.c        **** 	WCHAR wc, hs;
2626:.\ff.c        **** 	FATFS *fs = dp->obj.fs;
2627:.\ff.c        **** 	UINT nw;
2628:.\ff.c        **** #else
2629:.\ff.c        **** 	TCHAR c;
2630:.\ff.c        **** #endif
2631:.\ff.c        **** 
ARM GAS  C:\Users\student\AppData\Local\Temp\ccNQwI6t.s 			page 54


2632:.\ff.c        **** 
2633:.\ff.c        **** 	fno->fname[0] = 0;			/* Invaidate file info */
 385              		.loc 1 2633 0
 386 0000 0023     		movs	r3, #0
 387 0002 4B72     		strb	r3, [r1, #9]
2634:.\ff.c        **** 	if (dp->sect == 0) return;	/* Exit if read pointer has reached end of directory */
 388              		.loc 1 2634 0
 389 0004 8369     		ldr	r3, [r0, #24]
 390 0006 8BB3     		cbz	r3, .L36
2621:.\ff.c        **** 	UINT si, di;
 391              		.loc 1 2621 0
 392 0008 70B5     		push	{r4, r5, r6, lr}
 393              		.cfi_def_cfa_offset 16
 394              		.cfi_offset 4, -16
 395              		.cfi_offset 5, -12
 396              		.cfi_offset 6, -8
 397              		.cfi_offset 14, -4
 398 000a 0024     		movs	r4, #0
 399 000c 2346     		mov	r3, r4
 400 000e 11E0     		b	.L29
 401              	.LVL56:
 402              	.L33:
2635:.\ff.c        **** 
2636:.\ff.c        **** #if FF_USE_LFN		/* LFN configuration */
2637:.\ff.c        **** #if FF_FS_EXFAT
2638:.\ff.c        **** 	if (fs->fs_type == FS_EXFAT) {	/* exFAT volume */
2639:.\ff.c        **** 		UINT nc = 0;
2640:.\ff.c        **** 
2641:.\ff.c        **** 		si = SZDIRE * 2; di = 0;	/* 1st C1 entry in the entry block */
2642:.\ff.c        **** 		hs = 0;
2643:.\ff.c        **** 		while (nc < fs->dirbuf[XDIR_NumName]) {
2644:.\ff.c        **** 			if (si >= MAXDIRB(FF_MAX_LFN)) {	/* Truncated directory block? */
2645:.\ff.c        **** 				di = 0; break;
2646:.\ff.c        **** 			}
2647:.\ff.c        **** 			if ((si % SZDIRE) == 0) si += 2;	/* Skip entry type field */
2648:.\ff.c        **** 			wc = ld_word(fs->dirbuf + si); si += 2; nc++;	/* Get a character */
2649:.\ff.c        **** 			if (hs == 0 && IsSurrogate(wc)) {	/* Is it a surrogate? */
2650:.\ff.c        **** 				hs = wc; continue;				/* Get low surrogate */
2651:.\ff.c        **** 			}
2652:.\ff.c        **** 			nw = put_utf((DWORD)hs << 16 | wc, &fno->fname[di], FF_LFN_BUF - di);	/* Store it in API encodin
2653:.\ff.c        **** 			if (nw == 0) {						/* Buffer overflow or wrong char? */
2654:.\ff.c        **** 				di = 0; break;
2655:.\ff.c        **** 			}
2656:.\ff.c        **** 			di += nw;
2657:.\ff.c        **** 			hs = 0;
2658:.\ff.c        **** 		}
2659:.\ff.c        **** 		if (hs != 0) di = 0;					/* Broken surrogate pair? */
2660:.\ff.c        **** 		if (di == 0) fno->fname[di++] = '\?';	/* Inaccessible object name? */
2661:.\ff.c        **** 		fno->fname[di] = 0;						/* Terminate the name */
2662:.\ff.c        **** 		fno->altname[0] = 0;					/* exFAT does not support SFN */
2663:.\ff.c        **** 
2664:.\ff.c        **** 		fno->fattrib = fs->dirbuf[XDIR_Attr] & AM_MASKX;		/* Attribute */
2665:.\ff.c        **** 		fno->fsize = (fno->fattrib & AM_DIR) ? 0 : ld_qword(fs->dirbuf + XDIR_FileSize);	/* Size */
2666:.\ff.c        **** 		fno->ftime = ld_word(fs->dirbuf + XDIR_ModTime + 0);	/* Time */
2667:.\ff.c        **** 		fno->fdate = ld_word(fs->dirbuf + XDIR_ModTime + 2);	/* Date */
2668:.\ff.c        **** 		return;
2669:.\ff.c        **** 	} else
ARM GAS  C:\Users\student\AppData\Local\Temp\ccNQwI6t.s 			page 55


2670:.\ff.c        **** #endif
2671:.\ff.c        **** 	{	/* FAT/FAT32 volume */
2672:.\ff.c        **** 		if (dp->blk_ofs != 0xFFFFFFFF) {	/* Get LFN if available */
2673:.\ff.c        **** 			si = di = 0;
2674:.\ff.c        **** 			hs = 0;
2675:.\ff.c        **** 			while (fs->lfnbuf[si] != 0) {
2676:.\ff.c        **** 				wc = fs->lfnbuf[si++];		/* Get an LFN character (UTF-16) */
2677:.\ff.c        **** 				if (hs == 0 && IsSurrogate(wc)) {	/* Is it a surrogate? */
2678:.\ff.c        **** 					hs = wc; continue;		/* Get low surrogate */
2679:.\ff.c        **** 				}
2680:.\ff.c        **** 				nw = put_utf((DWORD)hs << 16 | wc, &fno->fname[di], FF_LFN_BUF - di);	/* Store it in API encodi
2681:.\ff.c        **** 				if (nw == 0) {				/* Buffer overflow or wrong char? */
2682:.\ff.c        **** 					di = 0; break;
2683:.\ff.c        **** 				}
2684:.\ff.c        **** 				di += nw;
2685:.\ff.c        **** 				hs = 0;
2686:.\ff.c        **** 			}
2687:.\ff.c        **** 			if (hs != 0) di = 0;	/* Broken surrogate pair? */
2688:.\ff.c        **** 			fno->fname[di] = 0;		/* Terminate the LFN (null string means LFN is invalid) */
2689:.\ff.c        **** 		}
2690:.\ff.c        **** 	}
2691:.\ff.c        **** 
2692:.\ff.c        **** 	si = di = 0;
2693:.\ff.c        **** 	while (si < 11) {		/* Get SFN from SFN entry */
2694:.\ff.c        **** 		wc = dp->dir[si++];			/* Get a char */
2695:.\ff.c        **** 		if (wc == ' ') continue;	/* Skip padding spaces */
2696:.\ff.c        **** 		if (wc == RDDEM) wc = DDEM;	/* Restore replaced DDEM character */
2697:.\ff.c        **** 		if (si == 9 && di < FF_SFN_BUF) fno->altname[di++] = '.';	/* Insert a . if extension is exist */
2698:.\ff.c        **** #if FF_LFN_UNICODE >= 1	/* Unicode output */
2699:.\ff.c        **** 		if (dbc_1st((BYTE)wc) && si != 8 && si != 11 && dbc_2nd(dp->dir[si])) {	/* Make a DBC if needed *
2700:.\ff.c        **** 			wc = wc << 8 | dp->dir[si++];
2701:.\ff.c        **** 		}
2702:.\ff.c        **** 		wc = ff_oem2uni(wc, CODEPAGE);		/* ANSI/OEM -> Unicode */
2703:.\ff.c        **** 		if (wc == 0) {				/* Wrong char in the current code page? */
2704:.\ff.c        **** 			di = 0; break;
2705:.\ff.c        **** 		}
2706:.\ff.c        **** 		nw = put_utf(wc, &fno->altname[di], FF_SFN_BUF - di);	/* Store it in API encoding */
2707:.\ff.c        **** 		if (nw == 0) {				/* Buffer overflow? */
2708:.\ff.c        **** 			di = 0; break;
2709:.\ff.c        **** 		}
2710:.\ff.c        **** 		di += nw;
2711:.\ff.c        **** #else					/* ANSI/OEM output */
2712:.\ff.c        **** 		fno->altname[di++] = (TCHAR)wc;	/* Store it without any conversion */
2713:.\ff.c        **** #endif
2714:.\ff.c        **** 	}
2715:.\ff.c        **** 	fno->altname[di] = 0;	/* Terminate the SFN  (null string means SFN is invalid) */
2716:.\ff.c        **** 
2717:.\ff.c        **** 	if (fno->fname[0] == 0) {	/* If LFN is invalid, altname[] needs to be copied to fname[] */
2718:.\ff.c        **** 		if (di == 0) {	/* If LFN and SFN both are invalid, this object is inaccessible */
2719:.\ff.c        **** 			fno->fname[di++] = '\?';
2720:.\ff.c        **** 		} else {
2721:.\ff.c        **** 			for (si = di = 0, lcf = NS_BODY; fno->altname[si]; si++, di++) {	/* Copy altname[] to fname[] wi
2722:.\ff.c        **** 				wc = (WCHAR)fno->altname[si];
2723:.\ff.c        **** 				if (wc == '.') lcf = NS_EXT;
2724:.\ff.c        **** 				if (IsUpper(wc) && (dp->dir[DIR_NTres] & lcf)) wc += 0x20;
2725:.\ff.c        **** 				fno->fname[di] = (TCHAR)wc;
2726:.\ff.c        **** 			}
ARM GAS  C:\Users\student\AppData\Local\Temp\ccNQwI6t.s 			page 56


2727:.\ff.c        **** 		}
2728:.\ff.c        **** 		fno->fname[di] = 0;	/* Terminate the LFN */
2729:.\ff.c        **** 		if (!dp->dir[DIR_NTres]) fno->altname[0] = 0;	/* Altname is not needed if neither LFN nor case in
2730:.\ff.c        **** 	}
2731:.\ff.c        **** 
2732:.\ff.c        **** #else	/* Non-LFN configuration */
2733:.\ff.c        **** 	si = di = 0;
2734:.\ff.c        **** 	while (si < 11) {		/* Copy name body and extension */
2735:.\ff.c        **** 		c = (TCHAR)dp->dir[si++];
 403              		.loc 1 2735 0
 404 0010 C569     		ldr	r5, [r0, #28]
 405 0012 5A1C     		adds	r2, r3, #1
 406              	.LVL57:
 407 0014 EB5C     		ldrb	r3, [r5, r3]	@ zero_extendqisi2
 408              	.LVL58:
2736:.\ff.c        **** 		if (c == ' ') continue;		/* Skip padding spaces */
 409              		.loc 1 2736 0
 410 0016 202B     		cmp	r3, #32
 411 0018 0BD0     		beq	.L30
2737:.\ff.c        **** 		if (c == RDDEM) c = DDEM;	/* Restore replaced DDEM character */
 412              		.loc 1 2737 0
 413 001a 052B     		cmp	r3, #5
 414 001c 00D1     		bne	.L31
 415 001e E523     		movs	r3, #229
 416              	.LVL59:
 417              	.L31:
2738:.\ff.c        **** 		if (si == 9) fno->fname[di++] = '.';/* Insert a . if extension is exist */
 418              		.loc 1 2738 0
 419 0020 092A     		cmp	r2, #9
 420 0022 03D1     		bne	.L32
 421              	.LVL60:
 422              		.loc 1 2738 0 is_stmt 0 discriminator 1
 423 0024 0D19     		adds	r5, r1, r4
 424 0026 2E26     		movs	r6, #46
 425 0028 6E72     		strb	r6, [r5, #9]
 426 002a 0134     		adds	r4, r4, #1
 427              	.LVL61:
 428              	.L32:
2739:.\ff.c        **** 		fno->fname[di++] = c;
 429              		.loc 1 2739 0 is_stmt 1
 430 002c 0D19     		adds	r5, r1, r4
 431 002e 6B72     		strb	r3, [r5, #9]
 432 0030 0134     		adds	r4, r4, #1
 433              	.LVL62:
 434              	.L30:
 435 0032 1346     		mov	r3, r2
 436              	.LVL63:
 437              	.L29:
2734:.\ff.c        **** 		c = (TCHAR)dp->dir[si++];
 438              		.loc 1 2734 0
 439 0034 0A2B     		cmp	r3, #10
 440 0036 EBD9     		bls	.L33
 441 0038 0E46     		mov	r6, r1
 442 003a 0546     		mov	r5, r0
2740:.\ff.c        **** 	}
2741:.\ff.c        **** 	fno->fname[di] = 0;		/* Terminate the SFN */
 443              		.loc 1 2741 0
ARM GAS  C:\Users\student\AppData\Local\Temp\ccNQwI6t.s 			page 57


 444 003c 0C44     		add	r4, r4, r1
 445              	.LVL64:
 446 003e 0023     		movs	r3, #0
 447              	.LVL65:
 448 0040 6372     		strb	r3, [r4, #9]
2742:.\ff.c        **** #endif
2743:.\ff.c        **** 
2744:.\ff.c        **** 	fno->fattrib = dp->dir[DIR_Attr] & AM_MASK;			/* Attribute */
 449              		.loc 1 2744 0
 450 0042 C369     		ldr	r3, [r0, #28]
 451 0044 DB7A     		ldrb	r3, [r3, #11]	@ zero_extendqisi2
 452 0046 03F03F03 		and	r3, r3, #63
 453 004a 0B72     		strb	r3, [r1, #8]
2745:.\ff.c        **** 	fno->fsize = ld_dword(dp->dir + DIR_FileSize);		/* Size */
 454              		.loc 1 2745 0
 455 004c C069     		ldr	r0, [r0, #28]
 456              	.LVL66:
 457 004e 1C30     		adds	r0, r0, #28
 458 0050 FFF7FEFF 		bl	ld_dword
 459              	.LVL67:
 460 0054 3060     		str	r0, [r6]
2746:.\ff.c        **** 	fno->ftime = ld_word(dp->dir + DIR_ModTime + 0);	/* Time */
 461              		.loc 1 2746 0
 462 0056 E869     		ldr	r0, [r5, #28]
 463 0058 1630     		adds	r0, r0, #22
 464 005a FFF7FEFF 		bl	ld_word
 465              	.LVL68:
 466 005e F080     		strh	r0, [r6, #6]	@ movhi
2747:.\ff.c        **** 	fno->fdate = ld_word(dp->dir + DIR_ModTime + 2);	/* Date */
 467              		.loc 1 2747 0
 468 0060 E869     		ldr	r0, [r5, #28]
 469 0062 1830     		adds	r0, r0, #24
 470 0064 FFF7FEFF 		bl	ld_word
 471              	.LVL69:
 472 0068 B080     		strh	r0, [r6, #4]	@ movhi
 473 006a 70BD     		pop	{r4, r5, r6, pc}
 474              	.LVL70:
 475              	.L36:
 476              		.cfi_def_cfa_offset 0
 477              		.cfi_restore 4
 478              		.cfi_restore 5
 479              		.cfi_restore 6
 480              		.cfi_restore 14
 481 006c 7047     		bx	lr
 482              		.cfi_endproc
 483              	.LFE24:
 484              		.size	get_fileinfo, .-get_fileinfo
 485              		.section	.text.get_ldnumber,"ax",%progbits
 486              		.align	2
 487              		.thumb
 488              		.thumb_func
 489              		.type	get_ldnumber, %function
 490              	get_ldnumber:
 491              	.LFB27:
2748:.\ff.c        **** }
2749:.\ff.c        **** 
2750:.\ff.c        **** #endif /* FF_FS_MINIMIZE <= 1 || FF_FS_RPATH >= 2 */
ARM GAS  C:\Users\student\AppData\Local\Temp\ccNQwI6t.s 			page 58


2751:.\ff.c        **** 
2752:.\ff.c        **** 
2753:.\ff.c        **** 
2754:.\ff.c        **** #if FF_USE_FIND && FF_FS_MINIMIZE <= 1
2755:.\ff.c        **** /*-----------------------------------------------------------------------*/
2756:.\ff.c        **** /* Pattern matching                                                      */
2757:.\ff.c        **** /*-----------------------------------------------------------------------*/
2758:.\ff.c        **** 
2759:.\ff.c        **** #define FIND_RECURS	4	/* Maximum number of wildcard terms in the pattern to limit recursion */
2760:.\ff.c        **** 
2761:.\ff.c        **** 
2762:.\ff.c        **** static DWORD get_achar (	/* Get a character and advance ptr */
2763:.\ff.c        **** 	const TCHAR** ptr		/* Pointer to pointer to the ANSI/OEM or Unicode string */
2764:.\ff.c        **** )
2765:.\ff.c        **** {
2766:.\ff.c        **** 	DWORD chr;
2767:.\ff.c        **** 
2768:.\ff.c        **** 
2769:.\ff.c        **** #if FF_USE_LFN && FF_LFN_UNICODE >= 1	/* Unicode input */
2770:.\ff.c        **** 	chr = tchar2uni(ptr);
2771:.\ff.c        **** 	if (chr == 0xFFFFFFFF) chr = 0;		/* Wrong UTF encoding is recognized as end of the string */
2772:.\ff.c        **** 	chr = ff_wtoupper(chr);
2773:.\ff.c        **** 
2774:.\ff.c        **** #else									/* ANSI/OEM input */
2775:.\ff.c        **** 	chr = (BYTE)*(*ptr)++;				/* Get a byte */
2776:.\ff.c        **** 	if (IsLower(chr)) chr -= 0x20;		/* To upper ASCII char */
2777:.\ff.c        **** #if FF_CODE_PAGE == 0
2778:.\ff.c        **** 	if (ExCvt && chr >= 0x80) chr = ExCvt[chr - 0x80];	/* To upper SBCS extended char */
2779:.\ff.c        **** #elif FF_CODE_PAGE < 900
2780:.\ff.c        **** 	if (chr >= 0x80) chr = ExCvt[chr - 0x80];	/* To upper SBCS extended char */
2781:.\ff.c        **** #endif
2782:.\ff.c        **** #if FF_CODE_PAGE == 0 || FF_CODE_PAGE >= 900
2783:.\ff.c        **** 	if (dbc_1st((BYTE)chr)) {	/* Get DBC 2nd byte if needed */
2784:.\ff.c        **** 		chr = dbc_2nd((BYTE)**ptr) ? chr << 8 | (BYTE)*(*ptr)++ : 0;
2785:.\ff.c        **** 	}
2786:.\ff.c        **** #endif
2787:.\ff.c        **** 
2788:.\ff.c        **** #endif
2789:.\ff.c        **** 	return chr;
2790:.\ff.c        **** }
2791:.\ff.c        **** 
2792:.\ff.c        **** 
2793:.\ff.c        **** static int pattern_match (	/* 0:mismatched, 1:matched */
2794:.\ff.c        **** 	const TCHAR* pat,	/* Matching pattern */
2795:.\ff.c        **** 	const TCHAR* nam,	/* String to be tested */
2796:.\ff.c        **** 	UINT skip,			/* Number of pre-skip chars (number of ?s, b8:infinite (* specified)) */
2797:.\ff.c        **** 	UINT recur			/* Recursion count */
2798:.\ff.c        **** )
2799:.\ff.c        **** {
2800:.\ff.c        **** 	const TCHAR *pptr;
2801:.\ff.c        **** 	const TCHAR *nptr;
2802:.\ff.c        **** 	DWORD pchr, nchr;
2803:.\ff.c        **** 	UINT sk;
2804:.\ff.c        **** 
2805:.\ff.c        **** 
2806:.\ff.c        **** 	while ((skip & 0xFF) != 0) {		/* Pre-skip name chars */
2807:.\ff.c        **** 		if (!get_achar(&nam)) return 0;	/* Branch mismatched if less name chars */
ARM GAS  C:\Users\student\AppData\Local\Temp\ccNQwI6t.s 			page 59


2808:.\ff.c        **** 		skip--;
2809:.\ff.c        **** 	}
2810:.\ff.c        **** 	if (*pat == 0 && skip) return 1;	/* Matched? (short circuit) */
2811:.\ff.c        **** 
2812:.\ff.c        **** 	do {
2813:.\ff.c        **** 		pptr = pat; nptr = nam;			/* Top of pattern and name to match */
2814:.\ff.c        **** 		for (;;) {
2815:.\ff.c        **** 			if (*pptr == '\?' || *pptr == '*') {	/* Wildcard term? */
2816:.\ff.c        **** 				if (recur == 0) return 0;	/* Too many wildcard terms? */
2817:.\ff.c        **** 				sk = 0;
2818:.\ff.c        **** 				do {	/* Analyze the wildcard term */
2819:.\ff.c        **** 					if (*pptr++ == '\?') {
2820:.\ff.c        **** 						sk++;
2821:.\ff.c        **** 					} else {
2822:.\ff.c        **** 						sk |= 0x100;
2823:.\ff.c        **** 					}
2824:.\ff.c        **** 				} while (*pptr == '\?' || *pptr == '*');
2825:.\ff.c        **** 				if (pattern_match(pptr, nptr, sk, recur - 1)) return 1;	/* Test new branch (recursive call) */
2826:.\ff.c        **** 				nchr = *nptr; break;	/* Branch mismatched */
2827:.\ff.c        **** 			}
2828:.\ff.c        **** 			pchr = get_achar(&pptr);	/* Get a pattern char */
2829:.\ff.c        **** 			nchr = get_achar(&nptr);	/* Get a name char */
2830:.\ff.c        **** 			if (pchr != nchr) break;	/* Branch mismatched? */
2831:.\ff.c        **** 			if (pchr == 0) return 1;	/* Branch matched? (matched at end of both strings) */
2832:.\ff.c        **** 		}
2833:.\ff.c        **** 		get_achar(&nam);			/* nam++ */
2834:.\ff.c        **** 	} while (skip && nchr);		/* Retry until end of name if infinite search is specified */
2835:.\ff.c        **** 
2836:.\ff.c        **** 	return 0;
2837:.\ff.c        **** }
2838:.\ff.c        **** 
2839:.\ff.c        **** #endif /* FF_USE_FIND && FF_FS_MINIMIZE <= 1 */
2840:.\ff.c        **** 
2841:.\ff.c        **** 
2842:.\ff.c        **** 
2843:.\ff.c        **** /*-----------------------------------------------------------------------*/
2844:.\ff.c        **** /* Pick a top segment and create the object name in directory form       */
2845:.\ff.c        **** /*-----------------------------------------------------------------------*/
2846:.\ff.c        **** 
2847:.\ff.c        **** static FRESULT create_name (	/* FR_OK: successful, FR_INVALID_NAME: could not create */
2848:.\ff.c        **** 	DIR* dp,					/* Pointer to the directory object */
2849:.\ff.c        **** 	const TCHAR** path			/* Pointer to pointer to the segment in the path string */
2850:.\ff.c        **** )
2851:.\ff.c        **** {
2852:.\ff.c        **** #if FF_USE_LFN		/* LFN configuration */
2853:.\ff.c        **** 	BYTE b, cf;
2854:.\ff.c        **** 	WCHAR wc;
2855:.\ff.c        **** 	WCHAR *lfn;
2856:.\ff.c        **** 	const TCHAR* p;
2857:.\ff.c        **** 	DWORD uc;
2858:.\ff.c        **** 	UINT i, ni, si, di;
2859:.\ff.c        **** 
2860:.\ff.c        **** 
2861:.\ff.c        **** 	/* Create LFN into LFN working buffer */
2862:.\ff.c        **** 	p = *path; lfn = dp->obj.fs->lfnbuf; di = 0;
2863:.\ff.c        **** 	for (;;) {
2864:.\ff.c        **** 		uc = tchar2uni(&p);			/* Get a character */
ARM GAS  C:\Users\student\AppData\Local\Temp\ccNQwI6t.s 			page 60


2865:.\ff.c        **** 		if (uc == 0xFFFFFFFF) return FR_INVALID_NAME;		/* Invalid code or UTF decode error */
2866:.\ff.c        **** 		if (uc >= 0x10000) lfn[di++] = (WCHAR)(uc >> 16);	/* Store high surrogate if needed */
2867:.\ff.c        **** 		wc = (WCHAR)uc;
2868:.\ff.c        **** 		if (wc < ' ' || IsSeparator(wc)) break;	/* Break if end of the path or a separator is found */
2869:.\ff.c        **** 		if (wc < 0x80 && strchr("*:<>|\"\?\x7F", (int)wc)) return FR_INVALID_NAME;	/* Reject illegal char
2870:.\ff.c        **** 		if (di >= FF_MAX_LFN) return FR_INVALID_NAME;	/* Reject too long name */
2871:.\ff.c        **** 		lfn[di++] = wc;				/* Store the Unicode character */
2872:.\ff.c        **** 	}
2873:.\ff.c        **** 	if (wc < ' ') {				/* Stopped at end of the path? */
2874:.\ff.c        **** 		cf = NS_LAST;			/* Last segment */
2875:.\ff.c        **** 	} else {					/* Stopped at a separator */
2876:.\ff.c        **** 		while (IsSeparator(*p)) p++;	/* Skip duplicated separators if exist */
2877:.\ff.c        **** 		cf = 0;					/* Next segment may follow */
2878:.\ff.c        **** 		if (IsTerminator(*p)) cf = NS_LAST;	/* Ignore terminating separator */
2879:.\ff.c        **** 	}
2880:.\ff.c        **** 	*path = p;					/* Return pointer to the next segment */
2881:.\ff.c        **** 
2882:.\ff.c        **** #if FF_FS_RPATH != 0
2883:.\ff.c        **** 	if ((di == 1 && lfn[di - 1] == '.') ||
2884:.\ff.c        **** 		(di == 2 && lfn[di - 1] == '.' && lfn[di - 2] == '.')) {	/* Is this segment a dot name? */
2885:.\ff.c        **** 		lfn[di] = 0;
2886:.\ff.c        **** 		for (i = 0; i < 11; i++) {	/* Create dot name for SFN entry */
2887:.\ff.c        **** 			dp->fn[i] = (i < di) ? '.' : ' ';
2888:.\ff.c        **** 		}
2889:.\ff.c        **** 		dp->fn[i] = cf | NS_DOT;	/* This is a dot entry */
2890:.\ff.c        **** 		return FR_OK;
2891:.\ff.c        **** 	}
2892:.\ff.c        **** #endif
2893:.\ff.c        **** 	while (di) {					/* Snip off trailing spaces and dots if exist */
2894:.\ff.c        **** 		wc = lfn[di - 1];
2895:.\ff.c        **** 		if (wc != ' ' && wc != '.') break;
2896:.\ff.c        **** 		di--;
2897:.\ff.c        **** 	}
2898:.\ff.c        **** 	lfn[di] = 0;							/* LFN is created into the working buffer */
2899:.\ff.c        **** 	if (di == 0) return FR_INVALID_NAME;	/* Reject null name */
2900:.\ff.c        **** 
2901:.\ff.c        **** 	/* Create SFN in directory form */
2902:.\ff.c        **** 	for (si = 0; lfn[si] == ' '; si++) ;	/* Remove leading spaces */
2903:.\ff.c        **** 	if (si > 0 || lfn[si] == '.') cf |= NS_LOSS | NS_LFN;	/* Is there any leading space or dot? */
2904:.\ff.c        **** 	while (di > 0 && lfn[di - 1] != '.') di--;	/* Find last dot (di<=si: no extension) */
2905:.\ff.c        **** 
2906:.\ff.c        **** 	memset(dp->fn, ' ', 11);
2907:.\ff.c        **** 	i = b = 0; ni = 8;
2908:.\ff.c        **** 	for (;;) {
2909:.\ff.c        **** 		wc = lfn[si++];					/* Get an LFN character */
2910:.\ff.c        **** 		if (wc == 0) break;				/* Break on end of the LFN */
2911:.\ff.c        **** 		if (wc == ' ' || (wc == '.' && si != di)) {	/* Remove embedded spaces and dots */
2912:.\ff.c        **** 			cf |= NS_LOSS | NS_LFN;
2913:.\ff.c        **** 			continue;
2914:.\ff.c        **** 		}
2915:.\ff.c        **** 
2916:.\ff.c        **** 		if (i >= ni || si == di) {		/* End of field? */
2917:.\ff.c        **** 			if (ni == 11) {				/* Name extension overflow? */
2918:.\ff.c        **** 				cf |= NS_LOSS | NS_LFN;
2919:.\ff.c        **** 				break;
2920:.\ff.c        **** 			}
2921:.\ff.c        **** 			if (si != di) cf |= NS_LOSS | NS_LFN;	/* Name body overflow? */
ARM GAS  C:\Users\student\AppData\Local\Temp\ccNQwI6t.s 			page 61


2922:.\ff.c        **** 			if (si > di) break;						/* No name extension? */
2923:.\ff.c        **** 			si = di; i = 8; ni = 11; b <<= 2;		/* Enter name extension */
2924:.\ff.c        **** 			continue;
2925:.\ff.c        **** 		}
2926:.\ff.c        **** 
2927:.\ff.c        **** 		if (wc >= 0x80) {	/* Is this an extended character? */
2928:.\ff.c        **** 			cf |= NS_LFN;	/* LFN entry needs to be created */
2929:.\ff.c        **** #if FF_CODE_PAGE == 0
2930:.\ff.c        **** 			if (ExCvt) {	/* In SBCS cfg */
2931:.\ff.c        **** 				wc = ff_uni2oem(wc, CODEPAGE);			/* Unicode ==> ANSI/OEM code */
2932:.\ff.c        **** 				if (wc & 0x80) wc = ExCvt[wc & 0x7F];	/* Convert extended character to upper (SBCS) */
2933:.\ff.c        **** 			} else {		/* In DBCS cfg */
2934:.\ff.c        **** 				wc = ff_uni2oem(ff_wtoupper(wc), CODEPAGE);	/* Unicode ==> Up-convert ==> ANSI/OEM code */
2935:.\ff.c        **** 			}
2936:.\ff.c        **** #elif FF_CODE_PAGE < 900	/* In SBCS cfg */
2937:.\ff.c        **** 			wc = ff_uni2oem(wc, CODEPAGE);			/* Unicode ==> ANSI/OEM code */
2938:.\ff.c        **** 			if (wc & 0x80) wc = ExCvt[wc & 0x7F];	/* Convert extended character to upper (SBCS) */
2939:.\ff.c        **** #else						/* In DBCS cfg */
2940:.\ff.c        **** 			wc = ff_uni2oem(ff_wtoupper(wc), CODEPAGE);	/* Unicode ==> Up-convert ==> ANSI/OEM code */
2941:.\ff.c        **** #endif
2942:.\ff.c        **** 		}
2943:.\ff.c        **** 
2944:.\ff.c        **** 		if (wc >= 0x100) {				/* Is this a DBC? */
2945:.\ff.c        **** 			if (i >= ni - 1) {			/* Field overflow? */
2946:.\ff.c        **** 				cf |= NS_LOSS | NS_LFN;
2947:.\ff.c        **** 				i = ni; continue;		/* Next field */
2948:.\ff.c        **** 			}
2949:.\ff.c        **** 			dp->fn[i++] = (BYTE)(wc >> 8);	/* Put 1st byte */
2950:.\ff.c        **** 		} else {						/* SBC */
2951:.\ff.c        **** 			if (wc == 0 || strchr("+,;=[]", (int)wc)) {	/* Replace illegal characters for SFN */
2952:.\ff.c        **** 				wc = '_'; cf |= NS_LOSS | NS_LFN;/* Lossy conversion */
2953:.\ff.c        **** 			} else {
2954:.\ff.c        **** 				if (IsUpper(wc)) {		/* ASCII upper case? */
2955:.\ff.c        **** 					b |= 2;
2956:.\ff.c        **** 				}
2957:.\ff.c        **** 				if (IsLower(wc)) {		/* ASCII lower case? */
2958:.\ff.c        **** 					b |= 1; wc -= 0x20;
2959:.\ff.c        **** 				}
2960:.\ff.c        **** 			}
2961:.\ff.c        **** 		}
2962:.\ff.c        **** 		dp->fn[i++] = (BYTE)wc;
2963:.\ff.c        **** 	}
2964:.\ff.c        **** 
2965:.\ff.c        **** 	if (dp->fn[0] == DDEM) dp->fn[0] = RDDEM;	/* If the first character collides with DDEM, replace it
2966:.\ff.c        **** 
2967:.\ff.c        **** 	if (ni == 8) b <<= 2;				/* Shift capital flags if no extension */
2968:.\ff.c        **** 	if ((b & 0x0C) == 0x0C || (b & 0x03) == 0x03) cf |= NS_LFN;	/* LFN entry needs to be created if co
2969:.\ff.c        **** 	if (!(cf & NS_LFN)) {				/* When LFN is in 8.3 format without extended character, NT flags are cre
2970:.\ff.c        **** 		if (b & 0x01) cf |= NS_EXT;		/* NT flag (Extension has small capital letters only) */
2971:.\ff.c        **** 		if (b & 0x04) cf |= NS_BODY;	/* NT flag (Body has small capital letters only) */
2972:.\ff.c        **** 	}
2973:.\ff.c        **** 
2974:.\ff.c        **** 	dp->fn[NSFLAG] = cf;	/* SFN is created into dp->fn[] */
2975:.\ff.c        **** 
2976:.\ff.c        **** 	return FR_OK;
2977:.\ff.c        **** 
2978:.\ff.c        **** 
ARM GAS  C:\Users\student\AppData\Local\Temp\ccNQwI6t.s 			page 62


2979:.\ff.c        **** #else	/* FF_USE_LFN : Non-LFN configuration */
2980:.\ff.c        **** 	BYTE c, d;
2981:.\ff.c        **** 	BYTE *sfn;
2982:.\ff.c        **** 	UINT ni, si, i;
2983:.\ff.c        **** 	const char *p;
2984:.\ff.c        **** 
2985:.\ff.c        **** 	/* Create file name in directory form */
2986:.\ff.c        **** 	p = *path; sfn = dp->fn;
2987:.\ff.c        **** 	memset(sfn, ' ', 11);
2988:.\ff.c        **** 	si = i = 0; ni = 8;
2989:.\ff.c        **** #if FF_FS_RPATH != 0
2990:.\ff.c        **** 	if (p[si] == '.') { /* Is this a dot entry? */
2991:.\ff.c        **** 		for (;;) {
2992:.\ff.c        **** 			c = (BYTE)p[si++];
2993:.\ff.c        **** 			if (c != '.' || si >= 3) break;
2994:.\ff.c        **** 			sfn[i++] = c;
2995:.\ff.c        **** 		}
2996:.\ff.c        **** 		if (!IsSeparator(c) && c > ' ') return FR_INVALID_NAME;
2997:.\ff.c        **** 		*path = p + si;					/* Return pointer to the next segment */
2998:.\ff.c        **** 		sfn[NSFLAG] = (c <= ' ') ? NS_LAST | NS_DOT : NS_DOT;	/* Set last segment flag if end of the path
2999:.\ff.c        **** 		return FR_OK;
3000:.\ff.c        **** 	}
3001:.\ff.c        **** #endif
3002:.\ff.c        **** 	for (;;) {
3003:.\ff.c        **** 		c = (BYTE)p[si++];				/* Get a byte */
3004:.\ff.c        **** 		if (c <= ' ') break; 			/* Break if end of the path name */
3005:.\ff.c        **** 		if (IsSeparator(c)) {			/* Break if a separator is found */
3006:.\ff.c        **** 			while (IsSeparator(p[si])) si++;	/* Skip duplicated separator if exist */
3007:.\ff.c        **** 			break;
3008:.\ff.c        **** 		}
3009:.\ff.c        **** 		if (c == '.' || i >= ni) {		/* End of body or field overflow? */
3010:.\ff.c        **** 			if (ni == 11 || c != '.') return FR_INVALID_NAME;	/* Field overflow or invalid dot? */
3011:.\ff.c        **** 			i = 8; ni = 11;				/* Enter file extension field */
3012:.\ff.c        **** 			continue;
3013:.\ff.c        **** 		}
3014:.\ff.c        **** #if FF_CODE_PAGE == 0
3015:.\ff.c        **** 		if (ExCvt && c >= 0x80) {		/* Is SBC extended character? */
3016:.\ff.c        **** 			c = ExCvt[c & 0x7F];		/* To upper SBC extended character */
3017:.\ff.c        **** 		}
3018:.\ff.c        **** #elif FF_CODE_PAGE < 900
3019:.\ff.c        **** 		if (c >= 0x80) {				/* Is SBC extended character? */
3020:.\ff.c        **** 			c = ExCvt[c & 0x7F];		/* To upper SBC extended character */
3021:.\ff.c        **** 		}
3022:.\ff.c        **** #endif
3023:.\ff.c        **** 		if (dbc_1st(c)) {				/* Check if it is a DBC 1st byte */
3024:.\ff.c        **** 			d = (BYTE)p[si++];			/* Get 2nd byte */
3025:.\ff.c        **** 			if (!dbc_2nd(d) || i >= ni - 1) return FR_INVALID_NAME;	/* Reject invalid DBC */
3026:.\ff.c        **** 			sfn[i++] = c;
3027:.\ff.c        **** 			sfn[i++] = d;
3028:.\ff.c        **** 		} else {						/* SBC */
3029:.\ff.c        **** 			if (strchr("*+,:;<=>[]|\"\?\x7F", (int)c)) return FR_INVALID_NAME;	/* Reject illegal chrs for SF
3030:.\ff.c        **** 			if (IsLower(c)) c -= 0x20;	/* To upper */
3031:.\ff.c        **** 			sfn[i++] = c;
3032:.\ff.c        **** 		}
3033:.\ff.c        **** 	}
3034:.\ff.c        **** 	*path = &p[si];						/* Return pointer to the next segment */
3035:.\ff.c        **** 	if (i == 0) return FR_INVALID_NAME;	/* Reject nul string */
ARM GAS  C:\Users\student\AppData\Local\Temp\ccNQwI6t.s 			page 63


3036:.\ff.c        **** 
3037:.\ff.c        **** 	if (sfn[0] == DDEM) sfn[0] = RDDEM;	/* If the first character collides with DDEM, replace it with 
3038:.\ff.c        **** 	sfn[NSFLAG] = (c <= ' ' || p[si] <= ' ') ? NS_LAST : 0;	/* Set last segment flag if end of the pat
3039:.\ff.c        **** 
3040:.\ff.c        **** 	return FR_OK;
3041:.\ff.c        **** #endif /* FF_USE_LFN */
3042:.\ff.c        **** }
3043:.\ff.c        **** 
3044:.\ff.c        **** 
3045:.\ff.c        **** 
3046:.\ff.c        **** 
3047:.\ff.c        **** /*-----------------------------------------------------------------------*/
3048:.\ff.c        **** /* Follow a file path                                                    */
3049:.\ff.c        **** /*-----------------------------------------------------------------------*/
3050:.\ff.c        **** 
3051:.\ff.c        **** static FRESULT follow_path (	/* FR_OK(0): successful, !=0: error code */
3052:.\ff.c        **** 	DIR* dp,					/* Directory object to return last directory and found object */
3053:.\ff.c        **** 	const TCHAR* path			/* Full-path string to find a file or directory */
3054:.\ff.c        **** )
3055:.\ff.c        **** {
3056:.\ff.c        **** 	FRESULT res;
3057:.\ff.c        **** 	BYTE ns;
3058:.\ff.c        **** 	FATFS *fs = dp->obj.fs;
3059:.\ff.c        **** 
3060:.\ff.c        **** 
3061:.\ff.c        **** #if FF_FS_RPATH != 0
3062:.\ff.c        **** 	if (!IsSeparator(*path) && (FF_STR_VOLUME_ID != 2 || !IsTerminator(*path))) {	/* Without heading s
3063:.\ff.c        **** 		dp->obj.sclust = fs->cdir;			/* Start at the current directory */
3064:.\ff.c        **** 	} else
3065:.\ff.c        **** #endif
3066:.\ff.c        **** 	{										/* With heading separator */
3067:.\ff.c        **** 		while (IsSeparator(*path)) path++;	/* Strip separators */
3068:.\ff.c        **** 		dp->obj.sclust = 0;					/* Start from the root directory */
3069:.\ff.c        **** 	}
3070:.\ff.c        **** #if FF_FS_EXFAT
3071:.\ff.c        **** 	dp->obj.n_frag = 0;	/* Invalidate last fragment counter of the object */
3072:.\ff.c        **** #if FF_FS_RPATH != 0
3073:.\ff.c        **** 	if (fs->fs_type == FS_EXFAT && dp->obj.sclust) {	/* exFAT: Retrieve the sub-directory's status */
3074:.\ff.c        **** 		DIR dj;
3075:.\ff.c        **** 
3076:.\ff.c        **** 		dp->obj.c_scl = fs->cdc_scl;
3077:.\ff.c        **** 		dp->obj.c_size = fs->cdc_size;
3078:.\ff.c        **** 		dp->obj.c_ofs = fs->cdc_ofs;
3079:.\ff.c        **** 		res = load_obj_xdir(&dj, &dp->obj);
3080:.\ff.c        **** 		if (res != FR_OK) return res;
3081:.\ff.c        **** 		dp->obj.objsize = ld_dword(fs->dirbuf + XDIR_FileSize);
3082:.\ff.c        **** 		dp->obj.stat = fs->dirbuf[XDIR_GenFlags] & 2;
3083:.\ff.c        **** 	}
3084:.\ff.c        **** #endif
3085:.\ff.c        **** #endif
3086:.\ff.c        **** 
3087:.\ff.c        **** 	if ((UINT)*path < ' ') {				/* Null path name is the origin directory itself */
3088:.\ff.c        **** 		dp->fn[NSFLAG] = NS_NONAME;
3089:.\ff.c        **** 		res = dir_sdi(dp, 0);
3090:.\ff.c        **** 
3091:.\ff.c        **** 	} else {								/* Follow path */
3092:.\ff.c        **** 		for (;;) {
ARM GAS  C:\Users\student\AppData\Local\Temp\ccNQwI6t.s 			page 64


3093:.\ff.c        **** 			res = create_name(dp, &path);	/* Get a segment name of the path */
3094:.\ff.c        **** 			if (res != FR_OK) break;
3095:.\ff.c        **** 			res = dir_find(dp);				/* Find an object with the segment name */
3096:.\ff.c        **** 			ns = dp->fn[NSFLAG];
3097:.\ff.c        **** 			if (res != FR_OK) {				/* Failed to find the object */
3098:.\ff.c        **** 				if (res == FR_NO_FILE) {	/* Object is not found */
3099:.\ff.c        **** 					if (FF_FS_RPATH && (ns & NS_DOT)) {	/* If dot entry is not exist, stay there */
3100:.\ff.c        **** 						if (!(ns & NS_LAST)) continue;	/* Continue to follow if not last segment */
3101:.\ff.c        **** 						dp->fn[NSFLAG] = NS_NONAME;
3102:.\ff.c        **** 						res = FR_OK;
3103:.\ff.c        **** 					} else {							/* Could not find the object */
3104:.\ff.c        **** 						if (!(ns & NS_LAST)) res = FR_NO_PATH;	/* Adjust error code if not last segment */
3105:.\ff.c        **** 					}
3106:.\ff.c        **** 				}
3107:.\ff.c        **** 				break;
3108:.\ff.c        **** 			}
3109:.\ff.c        **** 			if (ns & NS_LAST) break;		/* Last segment matched. Function completed. */
3110:.\ff.c        **** 			/* Get into the sub-directory */
3111:.\ff.c        **** 			if (!(dp->obj.attr & AM_DIR)) {	/* It is not a sub-directory and cannot follow */
3112:.\ff.c        **** 				res = FR_NO_PATH; break;
3113:.\ff.c        **** 			}
3114:.\ff.c        **** #if FF_FS_EXFAT
3115:.\ff.c        **** 			if (fs->fs_type == FS_EXFAT) {	/* Save containing directory information for next dir */
3116:.\ff.c        **** 				dp->obj.c_scl = dp->obj.sclust;
3117:.\ff.c        **** 				dp->obj.c_size = ((DWORD)dp->obj.objsize & 0xFFFFFF00) | dp->obj.stat;
3118:.\ff.c        **** 				dp->obj.c_ofs = dp->blk_ofs;
3119:.\ff.c        **** 				init_alloc_info(fs, &dp->obj);	/* Open next directory */
3120:.\ff.c        **** 			} else
3121:.\ff.c        **** #endif
3122:.\ff.c        **** 			{
3123:.\ff.c        **** 				dp->obj.sclust = ld_clust(fs, fs->win + dp->dptr % SS(fs));	/* Open next directory */
3124:.\ff.c        **** 			}
3125:.\ff.c        **** 		}
3126:.\ff.c        **** 	}
3127:.\ff.c        **** 
3128:.\ff.c        **** 	return res;
3129:.\ff.c        **** }
3130:.\ff.c        **** 
3131:.\ff.c        **** 
3132:.\ff.c        **** 
3133:.\ff.c        **** 
3134:.\ff.c        **** /*-----------------------------------------------------------------------*/
3135:.\ff.c        **** /* Get logical drive number from path name                               */
3136:.\ff.c        **** /*-----------------------------------------------------------------------*/
3137:.\ff.c        **** 
3138:.\ff.c        **** static int get_ldnumber (	/* Returns logical drive number (-1:invalid drive number or null pointer)
3139:.\ff.c        **** 	const TCHAR** path		/* Pointer to pointer to the path name */
3140:.\ff.c        **** )
3141:.\ff.c        **** {
 492              		.loc 1 3141 0
 493              		.cfi_startproc
 494              		@ args = 0, pretend = 0, frame = 0
 495              		@ frame_needed = 0, uses_anonymous_args = 0
 496              		@ link register save eliminated.
 497              	.LVL71:
 498 0000 10B4     		push	{r4}
 499              		.cfi_def_cfa_offset 4
ARM GAS  C:\Users\student\AppData\Local\Temp\ccNQwI6t.s 			page 65


 500              		.cfi_offset 4, -4
 501              	.LVL72:
3142:.\ff.c        **** 	const TCHAR *tp;
3143:.\ff.c        **** 	const TCHAR *tt;
3144:.\ff.c        **** 	TCHAR tc;
3145:.\ff.c        **** 	int i;
3146:.\ff.c        **** 	int vol = -1;
3147:.\ff.c        **** #if FF_STR_VOLUME_ID		/* Find string volume ID */
3148:.\ff.c        **** 	const char *sp;
3149:.\ff.c        **** 	char c;
3150:.\ff.c        **** #endif
3151:.\ff.c        **** 
3152:.\ff.c        **** 	tt = tp = *path;
 502              		.loc 1 3152 0
 503 0002 0468     		ldr	r4, [r0]
 504              	.LVL73:
3153:.\ff.c        **** 	if (!tp) return vol;	/* Invalid path name? */
 505              		.loc 1 3153 0
 506 0004 FCB1     		cbz	r4, .L43
 507 0006 2246     		mov	r2, r4
 508              	.LVL74:
 509              	.L40:
3154:.\ff.c        **** 	do {					/* Find a colon in the path */
3155:.\ff.c        **** 		tc = *tt++;
 510              		.loc 1 3155 0 discriminator 2
 511 0008 511C     		adds	r1, r2, #1
 512              	.LVL75:
 513 000a 1378     		ldrb	r3, [r2]	@ zero_extendqisi2
 514              	.LVL76:
3156:.\ff.c        **** 	} while (!IsTerminator(tc) && tc != ':');
 515              		.loc 1 3156 0 discriminator 2
 516 000c 202B     		cmp	r3, #32
 517 000e 02D9     		bls	.L39
3155:.\ff.c        **** 	} while (!IsTerminator(tc) && tc != ':');
 518              		.loc 1 3155 0 discriminator 1
 519 0010 0A46     		mov	r2, r1
 520              		.loc 1 3156 0 discriminator 1
 521 0012 3A2B     		cmp	r3, #58
 522 0014 F8D1     		bne	.L40
 523              	.L39:
3157:.\ff.c        **** 
3158:.\ff.c        **** 	if (tc == ':') {	/* DOS/Windows style volume ID? */
 524              		.loc 1 3158 0
 525 0016 3A2B     		cmp	r3, #58
 526 0018 18D1     		bne	.L44
 527              	.LVL77:
3159:.\ff.c        **** 		i = FF_VOLUMES;
3160:.\ff.c        **** 		if (IsDigit(*tp) && tp + 2 == tt) {	/* Is there a numeric volume ID + colon? */
 528              		.loc 1 3160 0
 529 001a 2378     		ldrb	r3, [r4]	@ zero_extendqisi2
 530              	.LVL78:
 531 001c A3F13002 		sub	r2, r3, #48
 532 0020 D2B2     		uxtb	r2, r2
 533 0022 092A     		cmp	r2, #9
 534 0024 04D8     		bhi	.L45
 535              		.loc 1 3160 0 is_stmt 0 discriminator 1
 536 0026 0234     		adds	r4, r4, #2
ARM GAS  C:\Users\student\AppData\Local\Temp\ccNQwI6t.s 			page 66


 537              	.LVL79:
 538 0028 8C42     		cmp	r4, r1
 539 002a 03D1     		bne	.L46
3161:.\ff.c        **** 			i = (int)*tp - '0';	/* Get the LD number */
 540              		.loc 1 3161 0 is_stmt 1
 541 002c 303B     		subs	r3, r3, #48
 542              	.LVL80:
 543 002e 02E0     		b	.L41
 544              	.LVL81:
 545              	.L45:
3159:.\ff.c        **** 		i = FF_VOLUMES;
 546              		.loc 1 3159 0
 547 0030 0123     		movs	r3, #1
 548 0032 00E0     		b	.L41
 549              	.LVL82:
 550              	.L46:
 551 0034 0123     		movs	r3, #1
 552              	.LVL83:
 553              	.L41:
3162:.\ff.c        **** 		}
3163:.\ff.c        **** #if FF_STR_VOLUME_ID == 1	/* Arbitrary string is enabled */
3164:.\ff.c        **** 		else {
3165:.\ff.c        **** 			i = 0;
3166:.\ff.c        **** 			do {
3167:.\ff.c        **** 				sp = VolumeStr[i]; tp = *path;	/* This string volume ID and path name */
3168:.\ff.c        **** 				do {	/* Compare the volume ID with path name */
3169:.\ff.c        **** 					c = *sp++; tc = *tp++;
3170:.\ff.c        **** 					if (IsLower(c)) c -= 0x20;
3171:.\ff.c        **** 					if (IsLower(tc)) tc -= 0x20;
3172:.\ff.c        **** 				} while (c && (TCHAR)c == tc);
3173:.\ff.c        **** 			} while ((c || tp != tt) && ++i < FF_VOLUMES);	/* Repeat for each id until pattern match */
3174:.\ff.c        **** 		}
3175:.\ff.c        **** #endif
3176:.\ff.c        **** 		if (i < FF_VOLUMES) {	/* If a volume ID is found, get the drive number and strip it */
 554              		.loc 1 3176 0
 555 0036 002B     		cmp	r3, #0
 556 0038 01DC     		bgt	.L47
 557              	.LVL84:
3177:.\ff.c        **** 			vol = i;		/* Drive number */
3178:.\ff.c        **** 			*path = tt;		/* Snip the drive prefix off */
 558              		.loc 1 3178 0
 559 003a 0160     		str	r1, [r0]
 560              	.LVL85:
 561 003c 01E0     		b	.L42
 562              	.LVL86:
 563              	.L47:
3146:.\ff.c        **** #if FF_STR_VOLUME_ID		/* Find string volume ID */
 564              		.loc 1 3146 0
 565 003e 4FF0FF33 		mov	r3, #-1
 566              	.LVL87:
 567              	.L42:
3179:.\ff.c        **** 		}
3180:.\ff.c        **** 		return vol;
 568              		.loc 1 3180 0
 569 0042 1846     		mov	r0, r3
 570              	.LVL88:
 571 0044 03E0     		b	.L38
ARM GAS  C:\Users\student\AppData\Local\Temp\ccNQwI6t.s 			page 67


 572              	.LVL89:
 573              	.L43:
3153:.\ff.c        **** 	do {					/* Find a colon in the path */
 574              		.loc 1 3153 0
 575 0046 4FF0FF30 		mov	r0, #-1
 576              	.LVL90:
 577 004a 00E0     		b	.L38
 578              	.LVL91:
 579              	.L44:
3181:.\ff.c        **** 	}
3182:.\ff.c        **** #if FF_STR_VOLUME_ID == 2		/* Unix style volume ID is enabled */
3183:.\ff.c        **** 	if (*tp == '/') {			/* Is there a volume ID? */
3184:.\ff.c        **** 		while (*(tp + 1) == '/') tp++;	/* Skip duplicated separator */
3185:.\ff.c        **** 		i = 0;
3186:.\ff.c        **** 		do {
3187:.\ff.c        **** 			tt = tp; sp = VolumeStr[i]; /* Path name and this string volume ID */
3188:.\ff.c        **** 			do {	/* Compare the volume ID with path name */
3189:.\ff.c        **** 				c = *sp++; tc = *(++tt);
3190:.\ff.c        **** 				if (IsLower(c)) c -= 0x20;
3191:.\ff.c        **** 				if (IsLower(tc)) tc -= 0x20;
3192:.\ff.c        **** 			} while (c && (TCHAR)c == tc);
3193:.\ff.c        **** 		} while ((c || (tc != '/' && !IsTerminator(tc))) && ++i < FF_VOLUMES);	/* Repeat for each ID unti
3194:.\ff.c        **** 		if (i < FF_VOLUMES) {	/* If a volume ID is found, get the drive number and strip it */
3195:.\ff.c        **** 			vol = i;		/* Drive number */
3196:.\ff.c        **** 			*path = tt;		/* Snip the drive prefix off */
3197:.\ff.c        **** 		}
3198:.\ff.c        **** 		return vol;
3199:.\ff.c        **** 	}
3200:.\ff.c        **** #endif
3201:.\ff.c        **** 	/* No drive prefix is found */
3202:.\ff.c        **** #if FF_FS_RPATH != 0
3203:.\ff.c        **** 	vol = CurrVol;	/* Default drive is current drive */
3204:.\ff.c        **** #else
3205:.\ff.c        **** 	vol = 0;		/* Default drive is 0 */
3206:.\ff.c        **** #endif
3207:.\ff.c        **** 	return vol;		/* Return the default drive */
 580              		.loc 1 3207 0
 581 004c 0020     		movs	r0, #0
 582              	.LVL92:
 583              	.L38:
3208:.\ff.c        **** }
 584              		.loc 1 3208 0
 585 004e 5DF8044B 		ldr	r4, [sp], #4
 586              		.cfi_restore 4
 587              		.cfi_def_cfa_offset 0
 588 0052 7047     		bx	lr
 589              		.cfi_endproc
 590              	.LFE27:
 591              		.size	get_ldnumber, .-get_ldnumber
 592              		.section	.text.validate,"ax",%progbits
 593              		.align	2
 594              		.thumb
 595              		.thumb_func
 596              		.type	validate, %function
 597              	validate:
 598              	.LFB31:
3209:.\ff.c        **** 
ARM GAS  C:\Users\student\AppData\Local\Temp\ccNQwI6t.s 			page 68


3210:.\ff.c        **** 
3211:.\ff.c        **** 
3212:.\ff.c        **** 
3213:.\ff.c        **** /*-----------------------------------------------------------------------*/
3214:.\ff.c        **** /* GPT support functions                                                 */
3215:.\ff.c        **** /*-----------------------------------------------------------------------*/
3216:.\ff.c        **** 
3217:.\ff.c        **** #if FF_LBA64
3218:.\ff.c        **** 
3219:.\ff.c        **** /* Calculate CRC32 in byte-by-byte */
3220:.\ff.c        **** 
3221:.\ff.c        **** static DWORD crc32 (	/* Returns next CRC value */
3222:.\ff.c        **** 	DWORD crc,			/* Current CRC value */
3223:.\ff.c        **** 	BYTE d				/* A byte to be processed */
3224:.\ff.c        **** )
3225:.\ff.c        **** {
3226:.\ff.c        **** 	BYTE b;
3227:.\ff.c        **** 
3228:.\ff.c        **** 
3229:.\ff.c        **** 	for (b = 1; b; b <<= 1) {
3230:.\ff.c        **** 		crc ^= (d & b) ? 1 : 0;
3231:.\ff.c        **** 		crc = (crc & 1) ? crc >> 1 ^ 0xEDB88320 : crc >> 1;
3232:.\ff.c        **** 	}
3233:.\ff.c        **** 	return crc;
3234:.\ff.c        **** }
3235:.\ff.c        **** 
3236:.\ff.c        **** 
3237:.\ff.c        **** /* Check validity of GPT header */
3238:.\ff.c        **** 
3239:.\ff.c        **** static int test_gpt_header (	/* 0:Invalid, 1:Valid */
3240:.\ff.c        **** 	const BYTE* gpth			/* Pointer to the GPT header */
3241:.\ff.c        **** )
3242:.\ff.c        **** {
3243:.\ff.c        **** 	UINT i;
3244:.\ff.c        **** 	DWORD bcc, hlen;
3245:.\ff.c        **** 
3246:.\ff.c        **** 
3247:.\ff.c        **** 	if (memcmp(gpth + GPTH_Sign, "EFI PART" "\0\0\1", 12)) return 0;	/* Check signature and version (1
3248:.\ff.c        **** 	hlen = ld_dword(gpth + GPTH_Size);						/* Check header size */
3249:.\ff.c        **** 	if (hlen < 92 || hlen > FF_MIN_SS) return 0;
3250:.\ff.c        **** 	for (i = 0, bcc = 0xFFFFFFFF; i < hlen; i++) {			/* Check header BCC */
3251:.\ff.c        **** 		bcc = crc32(bcc, i - GPTH_Bcc < 4 ? 0 : gpth[i]);
3252:.\ff.c        **** 	}
3253:.\ff.c        **** 	if (~bcc != ld_dword(gpth + GPTH_Bcc)) return 0;
3254:.\ff.c        **** 	if (ld_dword(gpth + GPTH_PteSize) != SZ_GPTE) return 0;	/* Table entry size (must be SZ_GPTE bytes
3255:.\ff.c        **** 	if (ld_dword(gpth + GPTH_PtNum) > 128) return 0;		/* Table size (must be 128 entries or less) */
3256:.\ff.c        **** 
3257:.\ff.c        **** 	return 1;
3258:.\ff.c        **** }
3259:.\ff.c        **** 
3260:.\ff.c        **** #if !FF_FS_READONLY && FF_USE_MKFS
3261:.\ff.c        **** 
3262:.\ff.c        **** /* Generate random value */
3263:.\ff.c        **** static DWORD make_rand (
3264:.\ff.c        **** 	DWORD seed,		/* Seed value */
3265:.\ff.c        **** 	BYTE *buff,		/* Output buffer */
3266:.\ff.c        **** 	UINT n			/* Data length */
ARM GAS  C:\Users\student\AppData\Local\Temp\ccNQwI6t.s 			page 69


3267:.\ff.c        **** )
3268:.\ff.c        **** {
3269:.\ff.c        **** 	UINT r;
3270:.\ff.c        **** 
3271:.\ff.c        **** 
3272:.\ff.c        **** 	if (seed == 0) seed = 1;
3273:.\ff.c        **** 	do {
3274:.\ff.c        **** 		for (r = 0; r < 8; r++) seed = seed & 1 ? seed >> 1 ^ 0xA3000000 : seed >> 1;	/* Shift 8 bits the
3275:.\ff.c        **** 		*buff++ = (BYTE)seed;
3276:.\ff.c        **** 	} while (--n);
3277:.\ff.c        **** 	return seed;
3278:.\ff.c        **** }
3279:.\ff.c        **** 
3280:.\ff.c        **** #endif
3281:.\ff.c        **** #endif
3282:.\ff.c        **** 
3283:.\ff.c        **** 
3284:.\ff.c        **** 
3285:.\ff.c        **** /*-----------------------------------------------------------------------*/
3286:.\ff.c        **** /* Load a sector and check if it is an FAT VBR                           */
3287:.\ff.c        **** /*-----------------------------------------------------------------------*/
3288:.\ff.c        **** 
3289:.\ff.c        **** /* Check what the sector is */
3290:.\ff.c        **** 
3291:.\ff.c        **** static UINT check_fs (	/* 0:FAT/FAT32 VBR, 1:exFAT VBR, 2:Not FAT and valid BS, 3:Not FAT and inval
3292:.\ff.c        **** 	FATFS* fs,			/* Filesystem object */
3293:.\ff.c        **** 	LBA_t sect			/* Sector to load and check if it is an FAT-VBR or not */
3294:.\ff.c        **** )
3295:.\ff.c        **** {
3296:.\ff.c        **** 	WORD w, sign;
3297:.\ff.c        **** 	BYTE b;
3298:.\ff.c        **** 
3299:.\ff.c        **** 
3300:.\ff.c        **** 	fs->wflag = 0; fs->winsect = (LBA_t)0 - 1;		/* Invaidate window */
3301:.\ff.c        **** 	if (move_window(fs, sect) != FR_OK) return 4;	/* Load the boot sector */
3302:.\ff.c        **** 	sign = ld_word(fs->win + BS_55AA);
3303:.\ff.c        **** #if FF_FS_EXFAT
3304:.\ff.c        **** 	if (sign == 0xAA55 && !memcmp(fs->win + BS_JmpBoot, "\xEB\x76\x90" "EXFAT   ", 11)) return 1;	/* I
3305:.\ff.c        **** #endif
3306:.\ff.c        **** 	b = fs->win[BS_JmpBoot];
3307:.\ff.c        **** 	if (b == 0xEB || b == 0xE9 || b == 0xE8) {	/* Valid JumpBoot code? (short jump, near jump or near 
3308:.\ff.c        **** 		if (sign == 0xAA55 && !memcmp(fs->win + BS_FilSysType32, "FAT32   ", 8)) {
3309:.\ff.c        **** 			return 0;	/* It is an FAT32 VBR */
3310:.\ff.c        **** 		}
3311:.\ff.c        **** 		/* FAT volumes formatted with early MS-DOS lack BS_55AA and BS_FilSysType, so FAT VBR needs to be
3312:.\ff.c        **** 		w = ld_word(fs->win + BPB_BytsPerSec);
3313:.\ff.c        **** 		b = fs->win[BPB_SecPerClus];
3314:.\ff.c        **** 		if ((w & (w - 1)) == 0 && w >= FF_MIN_SS && w <= FF_MAX_SS	/* Properness of sector size (512-4096
3315:.\ff.c        **** 			&& b != 0 && (b & (b - 1)) == 0				/* Properness of cluster size (2^n) */
3316:.\ff.c        **** 			&& ld_word(fs->win + BPB_RsvdSecCnt) != 0	/* Properness of reserved sectors (MNBZ) */
3317:.\ff.c        **** 			&& (UINT)fs->win[BPB_NumFATs] - 1 <= 1		/* Properness of FATs (1 or 2) */
3318:.\ff.c        **** 			&& ld_word(fs->win + BPB_RootEntCnt) != 0	/* Properness of root dir entries (MNBZ) */
3319:.\ff.c        **** 			&& (ld_word(fs->win + BPB_TotSec16) >= 128 || ld_dword(fs->win + BPB_TotSec32) >= 0x10000)	/* Pr
3320:.\ff.c        **** 			&& ld_word(fs->win + BPB_FATSz16) != 0) {	/* Properness of FAT size (MNBZ) */
3321:.\ff.c        **** 				return 0;	/* It can be presumed an FAT VBR */
3322:.\ff.c        **** 		}
3323:.\ff.c        **** 	}
ARM GAS  C:\Users\student\AppData\Local\Temp\ccNQwI6t.s 			page 70


3324:.\ff.c        **** 	return sign == 0xAA55 ? 2 : 3;	/* Not an FAT VBR (valid or invalid BS) */
3325:.\ff.c        **** }
3326:.\ff.c        **** 
3327:.\ff.c        **** 
3328:.\ff.c        **** /* Find an FAT volume */
3329:.\ff.c        **** /* (It supports only generic partitioning rules, MBR, GPT and SFD) */
3330:.\ff.c        **** 
3331:.\ff.c        **** static UINT find_volume (	/* Returns BS status found in the hosting drive */
3332:.\ff.c        **** 	FATFS* fs,		/* Filesystem object */
3333:.\ff.c        **** 	UINT part		/* Partition to fined = 0:find as SFD and partitions, >0:forced partition number */
3334:.\ff.c        **** )
3335:.\ff.c        **** {
3336:.\ff.c        **** 	UINT fmt, i;
3337:.\ff.c        **** 	DWORD mbr_pt[4];
3338:.\ff.c        **** 
3339:.\ff.c        **** 
3340:.\ff.c        **** 	fmt = check_fs(fs, 0);				/* Load sector 0 and check if it is an FAT VBR as SFD format */
3341:.\ff.c        **** 	if (fmt != 2 && (fmt >= 3 || part == 0)) return fmt;	/* Returns if it is an FAT VBR as auto scan, 
3342:.\ff.c        **** 
3343:.\ff.c        **** 	/* Sector 0 is not an FAT VBR or forced partition number wants a partition */
3344:.\ff.c        **** 
3345:.\ff.c        **** #if FF_LBA64
3346:.\ff.c        **** 	if (fs->win[MBR_Table + PTE_System] == 0xEE) {	/* GPT protective MBR? */
3347:.\ff.c        **** 		DWORD n_ent, v_ent, ofs;
3348:.\ff.c        **** 		QWORD pt_lba;
3349:.\ff.c        **** 
3350:.\ff.c        **** 		if (move_window(fs, 1) != FR_OK) return 4;	/* Load GPT header sector (next to MBR) */
3351:.\ff.c        **** 		if (!test_gpt_header(fs->win)) return 3;	/* Check if GPT header is valid */
3352:.\ff.c        **** 		n_ent = ld_dword(fs->win + GPTH_PtNum);		/* Number of entries */
3353:.\ff.c        **** 		pt_lba = ld_qword(fs->win + GPTH_PtOfs);	/* Table location */
3354:.\ff.c        **** 		for (v_ent = i = 0; i < n_ent; i++) {		/* Find FAT partition */
3355:.\ff.c        **** 			if (move_window(fs, pt_lba + i * SZ_GPTE / SS(fs)) != FR_OK) return 4;	/* PT sector */
3356:.\ff.c        **** 			ofs = i * SZ_GPTE % SS(fs);												/* Offset in the sector */
3357:.\ff.c        **** 			if (!memcmp(fs->win + ofs + GPTE_PtGuid, GUID_MS_Basic, 16)) {	/* MS basic data partition? */
3358:.\ff.c        **** 				v_ent++;
3359:.\ff.c        **** 				fmt = check_fs(fs, ld_qword(fs->win + ofs + GPTE_FstLba));	/* Load VBR and check status */
3360:.\ff.c        **** 				if (part == 0 && fmt <= 1) return fmt;			/* Auto search (valid FAT volume found first) */
3361:.\ff.c        **** 				if (part != 0 && v_ent == part) return fmt;		/* Forced partition order (regardless of it is val
3362:.\ff.c        **** 			}
3363:.\ff.c        **** 		}
3364:.\ff.c        **** 		return 3;	/* Not found */
3365:.\ff.c        **** 	}
3366:.\ff.c        **** #endif
3367:.\ff.c        **** 	if (FF_MULTI_PARTITION && part > 4) return 3;	/* MBR has 4 partitions max */
3368:.\ff.c        **** 	for (i = 0; i < 4; i++) {		/* Load partition offset in the MBR */
3369:.\ff.c        **** 		mbr_pt[i] = ld_dword(fs->win + MBR_Table + i * SZ_PTE + PTE_StLba);
3370:.\ff.c        **** 	}
3371:.\ff.c        **** 	i = part ? part - 1 : 0;		/* Table index to find first */
3372:.\ff.c        **** 	do {							/* Find an FAT volume */
3373:.\ff.c        **** 		fmt = mbr_pt[i] ? check_fs(fs, mbr_pt[i]) : 3;	/* Check if the partition is FAT */
3374:.\ff.c        **** 	} while (part == 0 && fmt >= 2 && ++i < 4);
3375:.\ff.c        **** 	return fmt;
3376:.\ff.c        **** }
3377:.\ff.c        **** 
3378:.\ff.c        **** 
3379:.\ff.c        **** 
3380:.\ff.c        **** 
ARM GAS  C:\Users\student\AppData\Local\Temp\ccNQwI6t.s 			page 71


3381:.\ff.c        **** /*-----------------------------------------------------------------------*/
3382:.\ff.c        **** /* Determine logical drive number and mount the volume if needed         */
3383:.\ff.c        **** /*-----------------------------------------------------------------------*/
3384:.\ff.c        **** 
3385:.\ff.c        **** static FRESULT mount_volume (	/* FR_OK(0): successful, !=0: an error occurred */
3386:.\ff.c        **** 	const TCHAR** path,			/* Pointer to pointer to the path name (drive number) */
3387:.\ff.c        **** 	FATFS** rfs,				/* Pointer to pointer to the found filesystem object */
3388:.\ff.c        **** 	BYTE mode					/* Desiered access mode to check write protection */
3389:.\ff.c        **** )
3390:.\ff.c        **** {
3391:.\ff.c        **** 	int vol;
3392:.\ff.c        **** 	FATFS *fs;
3393:.\ff.c        **** 	DSTATUS stat;
3394:.\ff.c        **** 	LBA_t bsect;
3395:.\ff.c        **** 	DWORD tsect, sysect, fasize, nclst, szbfat;
3396:.\ff.c        **** 	WORD nrsv;
3397:.\ff.c        **** 	UINT fmt;
3398:.\ff.c        **** 
3399:.\ff.c        **** 
3400:.\ff.c        **** 	/* Get logical drive number */
3401:.\ff.c        **** 	*rfs = 0;
3402:.\ff.c        **** 	vol = get_ldnumber(path);
3403:.\ff.c        **** 	if (vol < 0) return FR_INVALID_DRIVE;
3404:.\ff.c        **** 
3405:.\ff.c        **** 	/* Check if the filesystem object is valid or not */
3406:.\ff.c        **** 	fs = FatFs[vol];					/* Get pointer to the filesystem object */
3407:.\ff.c        **** 	if (!fs) return FR_NOT_ENABLED;		/* Is the filesystem object available? */
3408:.\ff.c        **** #if FF_FS_REENTRANT
3409:.\ff.c        **** 	if (!lock_volume(fs, 1)) return FR_TIMEOUT;	/* Lock the volume, and system if needed */
3410:.\ff.c        **** #endif
3411:.\ff.c        **** 	*rfs = fs;							/* Return pointer to the filesystem object */
3412:.\ff.c        **** 
3413:.\ff.c        **** 	mode &= (BYTE)~FA_READ;				/* Desired access mode, write access or not */
3414:.\ff.c        **** 	if (fs->fs_type != 0) {				/* If the volume has been mounted */
3415:.\ff.c        **** 		stat = disk_status(fs->pdrv);
3416:.\ff.c        **** 		if (!(stat & STA_NOINIT)) {		/* and the physical drive is kept initialized */
3417:.\ff.c        **** 			if (!FF_FS_READONLY && mode && (stat & STA_PROTECT)) {	/* Check write protection if needed */
3418:.\ff.c        **** 				return FR_WRITE_PROTECTED;
3419:.\ff.c        **** 			}
3420:.\ff.c        **** 			return FR_OK;				/* The filesystem object is already valid */
3421:.\ff.c        **** 		}
3422:.\ff.c        **** 	}
3423:.\ff.c        **** 
3424:.\ff.c        **** 	/* The filesystem object is not valid. */
3425:.\ff.c        **** 	/* Following code attempts to mount the volume. (find an FAT volume, analyze the BPB and initializ
3426:.\ff.c        **** 
3427:.\ff.c        **** 	fs->fs_type = 0;					/* Invalidate the filesystem object */
3428:.\ff.c        **** 	stat = disk_initialize(fs->pdrv);	/* Initialize the volume hosting physical drive */
3429:.\ff.c        **** 	if (stat & STA_NOINIT) { 			/* Check if the initialization succeeded */
3430:.\ff.c        **** 		return FR_NOT_READY;			/* Failed to initialize due to no medium or hard error */
3431:.\ff.c        **** 	}
3432:.\ff.c        **** 	if (!FF_FS_READONLY && mode && (stat & STA_PROTECT)) { /* Check disk write protection if needed */
3433:.\ff.c        **** 		return FR_WRITE_PROTECTED;
3434:.\ff.c        **** 	}
3435:.\ff.c        **** #if FF_MAX_SS != FF_MIN_SS				/* Get sector size (multiple sector size cfg only) */
3436:.\ff.c        **** 	if (disk_ioctl(fs->pdrv, GET_SECTOR_SIZE, &SS(fs)) != RES_OK) return FR_DISK_ERR;
3437:.\ff.c        **** 	if (SS(fs) > FF_MAX_SS || SS(fs) < FF_MIN_SS || (SS(fs) & (SS(fs) - 1))) return FR_DISK_ERR;
ARM GAS  C:\Users\student\AppData\Local\Temp\ccNQwI6t.s 			page 72


3438:.\ff.c        **** #endif
3439:.\ff.c        **** 
3440:.\ff.c        **** 	/* Find an FAT volume on the hosting drive */
3441:.\ff.c        **** 	fmt = find_volume(fs, LD2PT(vol));
3442:.\ff.c        **** 	if (fmt == 4) return FR_DISK_ERR;		/* An error occurred in the disk I/O layer */
3443:.\ff.c        **** 	if (fmt >= 2) return FR_NO_FILESYSTEM;	/* No FAT volume is found */
3444:.\ff.c        **** 	bsect = fs->winsect;					/* Volume offset in the hosting physical drive */
3445:.\ff.c        **** 
3446:.\ff.c        **** 	/* An FAT volume is found (bsect). Following code initializes the filesystem object */
3447:.\ff.c        **** 
3448:.\ff.c        **** #if FF_FS_EXFAT
3449:.\ff.c        **** 	if (fmt == 1) {
3450:.\ff.c        **** 		QWORD maxlba;
3451:.\ff.c        **** 		DWORD so, cv, bcl, i;
3452:.\ff.c        **** 
3453:.\ff.c        **** 		for (i = BPB_ZeroedEx; i < BPB_ZeroedEx + 53 && fs->win[i] == 0; i++) ;	/* Check zero filler */
3454:.\ff.c        **** 		if (i < BPB_ZeroedEx + 53) return FR_NO_FILESYSTEM;
3455:.\ff.c        **** 
3456:.\ff.c        **** 		if (ld_word(fs->win + BPB_FSVerEx) != 0x100) return FR_NO_FILESYSTEM;	/* Check exFAT version (mus
3457:.\ff.c        **** 
3458:.\ff.c        **** 		if (1 << fs->win[BPB_BytsPerSecEx] != SS(fs)) {	/* (BPB_BytsPerSecEx must be equal to the physica
3459:.\ff.c        **** 			return FR_NO_FILESYSTEM;
3460:.\ff.c        **** 		}
3461:.\ff.c        **** 
3462:.\ff.c        **** 		maxlba = ld_qword(fs->win + BPB_TotSecEx) + bsect;	/* Last LBA of the volume + 1 */
3463:.\ff.c        **** 		if (!FF_LBA64 && maxlba >= 0x100000000) return FR_NO_FILESYSTEM;	/* (It cannot be accessed in 32-
3464:.\ff.c        **** 
3465:.\ff.c        **** 		fs->fsize = ld_dword(fs->win + BPB_FatSzEx);	/* Number of sectors per FAT */
3466:.\ff.c        **** 
3467:.\ff.c        **** 		fs->n_fats = fs->win[BPB_NumFATsEx];			/* Number of FATs */
3468:.\ff.c        **** 		if (fs->n_fats != 1) return FR_NO_FILESYSTEM;	/* (Supports only 1 FAT) */
3469:.\ff.c        **** 
3470:.\ff.c        **** 		fs->csize = 1 << fs->win[BPB_SecPerClusEx];		/* Cluster size */
3471:.\ff.c        **** 		if (fs->csize == 0)	return FR_NO_FILESYSTEM;	/* (Must be 1..32768 sectors) */
3472:.\ff.c        **** 
3473:.\ff.c        **** 		nclst = ld_dword(fs->win + BPB_NumClusEx);		/* Number of clusters */
3474:.\ff.c        **** 		if (nclst > MAX_EXFAT) return FR_NO_FILESYSTEM;	/* (Too many clusters) */
3475:.\ff.c        **** 		fs->n_fatent = nclst + 2;
3476:.\ff.c        **** 
3477:.\ff.c        **** 		/* Boundaries and Limits */
3478:.\ff.c        **** 		fs->volbase = bsect;
3479:.\ff.c        **** 		fs->database = bsect + ld_dword(fs->win + BPB_DataOfsEx);
3480:.\ff.c        **** 		fs->fatbase = bsect + ld_dword(fs->win + BPB_FatOfsEx);
3481:.\ff.c        **** 		if (maxlba < (QWORD)fs->database + nclst * fs->csize) return FR_NO_FILESYSTEM;	/* (Volume size mu
3482:.\ff.c        **** 		fs->dirbase = ld_dword(fs->win + BPB_RootClusEx);
3483:.\ff.c        **** 
3484:.\ff.c        **** 		/* Get bitmap location and check if it is contiguous (implementation assumption) */
3485:.\ff.c        **** 		so = i = 0;
3486:.\ff.c        **** 		for (;;) {	/* Find the bitmap entry in the root directory (in only first cluster) */
3487:.\ff.c        **** 			if (i == 0) {
3488:.\ff.c        **** 				if (so >= fs->csize) return FR_NO_FILESYSTEM;	/* Not found? */
3489:.\ff.c        **** 				if (move_window(fs, clst2sect(fs, (DWORD)fs->dirbase) + so) != FR_OK) return FR_DISK_ERR;
3490:.\ff.c        **** 				so++;
3491:.\ff.c        **** 			}
3492:.\ff.c        **** 			if (fs->win[i] == ET_BITMAP) break;			/* Is it a bitmap entry? */
3493:.\ff.c        **** 			i = (i + SZDIRE) % SS(fs);	/* Next entry */
3494:.\ff.c        **** 		}
ARM GAS  C:\Users\student\AppData\Local\Temp\ccNQwI6t.s 			page 73


3495:.\ff.c        **** 		bcl = ld_dword(fs->win + i + 20);				/* Bitmap cluster */
3496:.\ff.c        **** 		if (bcl < 2 || bcl >= fs->n_fatent) return FR_NO_FILESYSTEM;	/* (Wrong cluster#) */
3497:.\ff.c        **** 		fs->bitbase = fs->database + fs->csize * (bcl - 2);	/* Bitmap sector */
3498:.\ff.c        **** 		for (;;) {	/* Check if bitmap is contiguous */
3499:.\ff.c        **** 			if (move_window(fs, fs->fatbase + bcl / (SS(fs) / 4)) != FR_OK) return FR_DISK_ERR;
3500:.\ff.c        **** 			cv = ld_dword(fs->win + bcl % (SS(fs) / 4) * 4);
3501:.\ff.c        **** 			if (cv == 0xFFFFFFFF) break;				/* Last link? */
3502:.\ff.c        **** 			if (cv != ++bcl) return FR_NO_FILESYSTEM;	/* Fragmented bitmap? */
3503:.\ff.c        **** 		}
3504:.\ff.c        **** 
3505:.\ff.c        **** #if !FF_FS_READONLY
3506:.\ff.c        **** 		fs->last_clst = fs->free_clst = 0xFFFFFFFF;		/* Initialize cluster allocation information */
3507:.\ff.c        **** #endif
3508:.\ff.c        **** 		fmt = FS_EXFAT;			/* FAT sub-type */
3509:.\ff.c        **** 	} else
3510:.\ff.c        **** #endif	/* FF_FS_EXFAT */
3511:.\ff.c        **** 	{
3512:.\ff.c        **** 		if (ld_word(fs->win + BPB_BytsPerSec) != SS(fs)) return FR_NO_FILESYSTEM;	/* (BPB_BytsPerSec must
3513:.\ff.c        **** 
3514:.\ff.c        **** 		fasize = ld_word(fs->win + BPB_FATSz16);		/* Number of sectors per FAT */
3515:.\ff.c        **** 		if (fasize == 0) fasize = ld_dword(fs->win + BPB_FATSz32);
3516:.\ff.c        **** 		fs->fsize = fasize;
3517:.\ff.c        **** 
3518:.\ff.c        **** 		fs->n_fats = fs->win[BPB_NumFATs];				/* Number of FATs */
3519:.\ff.c        **** 		if (fs->n_fats != 1 && fs->n_fats != 2) return FR_NO_FILESYSTEM;	/* (Must be 1 or 2) */
3520:.\ff.c        **** 		fasize *= fs->n_fats;							/* Number of sectors for FAT area */
3521:.\ff.c        **** 
3522:.\ff.c        **** 		fs->csize = fs->win[BPB_SecPerClus];			/* Cluster size */
3523:.\ff.c        **** 		if (fs->csize == 0 || (fs->csize & (fs->csize - 1))) return FR_NO_FILESYSTEM;	/* (Must be power o
3524:.\ff.c        **** 
3525:.\ff.c        **** 		fs->n_rootdir = ld_word(fs->win + BPB_RootEntCnt);	/* Number of root directory entries */
3526:.\ff.c        **** 		if (fs->n_rootdir % (SS(fs) / SZDIRE)) return FR_NO_FILESYSTEM;	/* (Must be sector aligned) */
3527:.\ff.c        **** 
3528:.\ff.c        **** 		tsect = ld_word(fs->win + BPB_TotSec16);		/* Number of sectors on the volume */
3529:.\ff.c        **** 		if (tsect == 0) tsect = ld_dword(fs->win + BPB_TotSec32);
3530:.\ff.c        **** 
3531:.\ff.c        **** 		nrsv = ld_word(fs->win + BPB_RsvdSecCnt);		/* Number of reserved sectors */
3532:.\ff.c        **** 		if (nrsv == 0) return FR_NO_FILESYSTEM;			/* (Must not be 0) */
3533:.\ff.c        **** 
3534:.\ff.c        **** 		/* Determine the FAT sub type */
3535:.\ff.c        **** 		sysect = nrsv + fasize + fs->n_rootdir / (SS(fs) / SZDIRE);	/* RSV + FAT + DIR */
3536:.\ff.c        **** 		if (tsect < sysect) return FR_NO_FILESYSTEM;	/* (Invalid volume size) */
3537:.\ff.c        **** 		nclst = (tsect - sysect) / fs->csize;			/* Number of clusters */
3538:.\ff.c        **** 		if (nclst == 0) return FR_NO_FILESYSTEM;		/* (Invalid volume size) */
3539:.\ff.c        **** 		fmt = 0;
3540:.\ff.c        **** 		if (nclst <= MAX_FAT32) fmt = FS_FAT32;
3541:.\ff.c        **** 		if (nclst <= MAX_FAT16) fmt = FS_FAT16;
3542:.\ff.c        **** 		if (nclst <= MAX_FAT12) fmt = FS_FAT12;
3543:.\ff.c        **** 		if (fmt == 0) return FR_NO_FILESYSTEM;
3544:.\ff.c        **** 
3545:.\ff.c        **** 		/* Boundaries and Limits */
3546:.\ff.c        **** 		fs->n_fatent = nclst + 2;						/* Number of FAT entries */
3547:.\ff.c        **** 		fs->volbase = bsect;							/* Volume start sector */
3548:.\ff.c        **** 		fs->fatbase = bsect + nrsv; 					/* FAT start sector */
3549:.\ff.c        **** 		fs->database = bsect + sysect;					/* Data start sector */
3550:.\ff.c        **** 		if (fmt == FS_FAT32) {
3551:.\ff.c        **** 			if (ld_word(fs->win + BPB_FSVer32) != 0) return FR_NO_FILESYSTEM;	/* (Must be FAT32 revision 0.0
ARM GAS  C:\Users\student\AppData\Local\Temp\ccNQwI6t.s 			page 74


3552:.\ff.c        **** 			if (fs->n_rootdir != 0) return FR_NO_FILESYSTEM;	/* (BPB_RootEntCnt must be 0) */
3553:.\ff.c        **** 			fs->dirbase = ld_dword(fs->win + BPB_RootClus32);	/* Root directory start cluster */
3554:.\ff.c        **** 			szbfat = fs->n_fatent * 4;					/* (Needed FAT size) */
3555:.\ff.c        **** 		} else {
3556:.\ff.c        **** 			if (fs->n_rootdir == 0)	return FR_NO_FILESYSTEM;	/* (BPB_RootEntCnt must not be 0) */
3557:.\ff.c        **** 			fs->dirbase = fs->fatbase + fasize;			/* Root directory start sector */
3558:.\ff.c        **** 			szbfat = (fmt == FS_FAT16) ?				/* (Needed FAT size) */
3559:.\ff.c        **** 				fs->n_fatent * 2 : fs->n_fatent * 3 / 2 + (fs->n_fatent & 1);
3560:.\ff.c        **** 		}
3561:.\ff.c        **** 		if (fs->fsize < (szbfat + (SS(fs) - 1)) / SS(fs)) return FR_NO_FILESYSTEM;	/* (BPB_FATSz must not
3562:.\ff.c        **** 
3563:.\ff.c        **** #if !FF_FS_READONLY
3564:.\ff.c        **** 		/* Get FSInfo if available */
3565:.\ff.c        **** 		fs->last_clst = fs->free_clst = 0xFFFFFFFF;		/* Initialize cluster allocation information */
3566:.\ff.c        **** 		fs->fsi_flag = 0x80;
3567:.\ff.c        **** #if (FF_FS_NOFSINFO & 3) != 3
3568:.\ff.c        **** 		if (fmt == FS_FAT32				/* Allow to update FSInfo only if BPB_FSInfo32 == 1 */
3569:.\ff.c        **** 			&& ld_word(fs->win + BPB_FSInfo32) == 1
3570:.\ff.c        **** 			&& move_window(fs, bsect + 1) == FR_OK)
3571:.\ff.c        **** 		{
3572:.\ff.c        **** 			fs->fsi_flag = 0;
3573:.\ff.c        **** 			if (ld_word(fs->win + BS_55AA) == 0xAA55	/* Load FSInfo data if available */
3574:.\ff.c        **** 				&& ld_dword(fs->win + FSI_LeadSig) == 0x41615252
3575:.\ff.c        **** 				&& ld_dword(fs->win + FSI_StrucSig) == 0x61417272)
3576:.\ff.c        **** 			{
3577:.\ff.c        **** #if (FF_FS_NOFSINFO & 1) == 0
3578:.\ff.c        **** 				fs->free_clst = ld_dword(fs->win + FSI_Free_Count);
3579:.\ff.c        **** #endif
3580:.\ff.c        **** #if (FF_FS_NOFSINFO & 2) == 0
3581:.\ff.c        **** 				fs->last_clst = ld_dword(fs->win + FSI_Nxt_Free);
3582:.\ff.c        **** #endif
3583:.\ff.c        **** 			}
3584:.\ff.c        **** 		}
3585:.\ff.c        **** #endif	/* (FF_FS_NOFSINFO & 3) != 3 */
3586:.\ff.c        **** #endif	/* !FF_FS_READONLY */
3587:.\ff.c        **** 	}
3588:.\ff.c        **** 
3589:.\ff.c        **** 	fs->fs_type = (BYTE)fmt;/* FAT sub-type (the filesystem object gets valid) */
3590:.\ff.c        **** 	fs->id = ++Fsid;		/* Volume mount ID */
3591:.\ff.c        **** #if FF_USE_LFN == 1
3592:.\ff.c        **** 	fs->lfnbuf = LfnBuf;	/* Static LFN working buffer */
3593:.\ff.c        **** #if FF_FS_EXFAT
3594:.\ff.c        **** 	fs->dirbuf = DirBuf;	/* Static directory block scratchpad buuffer */
3595:.\ff.c        **** #endif
3596:.\ff.c        **** #endif
3597:.\ff.c        **** #if FF_FS_RPATH != 0
3598:.\ff.c        **** 	fs->cdir = 0;			/* Initialize current directory */
3599:.\ff.c        **** #endif
3600:.\ff.c        **** #if FF_FS_LOCK				/* Clear file lock semaphores */
3601:.\ff.c        **** 	clear_share(fs);
3602:.\ff.c        **** #endif
3603:.\ff.c        **** 	return FR_OK;
3604:.\ff.c        **** }
3605:.\ff.c        **** 
3606:.\ff.c        **** 
3607:.\ff.c        **** 
3608:.\ff.c        **** 
ARM GAS  C:\Users\student\AppData\Local\Temp\ccNQwI6t.s 			page 75


3609:.\ff.c        **** /*-----------------------------------------------------------------------*/
3610:.\ff.c        **** /* Check if the file/directory object is valid or not                    */
3611:.\ff.c        **** /*-----------------------------------------------------------------------*/
3612:.\ff.c        **** 
3613:.\ff.c        **** static FRESULT validate (	/* Returns FR_OK or FR_INVALID_OBJECT */
3614:.\ff.c        **** 	FFOBJID* obj,			/* Pointer to the FFOBJID, the 1st member in the FIL/DIR structure, to check valid
3615:.\ff.c        **** 	FATFS** rfs				/* Pointer to pointer to the owner filesystem object to return */
3616:.\ff.c        **** )
3617:.\ff.c        **** {
 599              		.loc 1 3617 0
 600              		.cfi_startproc
 601              		@ args = 0, pretend = 0, frame = 0
 602              		@ frame_needed = 0, uses_anonymous_args = 0
 603              	.LVL93:
 604 0000 38B5     		push	{r3, r4, r5, lr}
 605              		.cfi_def_cfa_offset 16
 606              		.cfi_offset 3, -16
