ARM GAS  C:\Users\student\AppData\Local\Temp\cc7xlRSM.s 			page 1


   1              		.syntax unified
   2              		.cpu cortex-m3
   3              		.fpu softvfp
   4              		.eabi_attribute 20, 1
   5              		.eabi_attribute 21, 1
   6              		.eabi_attribute 23, 3
   7              		.eabi_attribute 24, 1
   8              		.eabi_attribute 25, 1
   9              		.eabi_attribute 26, 1
  10              		.eabi_attribute 30, 1
  11              		.eabi_attribute 34, 1
  12              		.eabi_attribute 18, 4
  13              		.thumb
  14              		.file	"main.c"
  15              		.text
  16              	.Ltext0:
  17              		.cfi_sections	.debug_frame
  18              		.section	.text.updateSecondsTimer,"ax",%progbits
  19              		.align	2
  20              		.global	updateSecondsTimer
  21              		.thumb
  22              		.thumb_func
  23              		.type	updateSecondsTimer, %function
  24              	updateSecondsTimer:
  25              	.LFB71:
  26              		.file 1 ".\\main.c"
   1:.\main.c      **** /* ========================================
   2:.\main.c      ****  *
   3:.\main.c      ****  * Copyright YOUR COMPANY, THE YEAR
   4:.\main.c      ****  * All Rights Reserved
   5:.\main.c      ****  * UNPUBLISHED, LICENSED SOFTWARE.
   6:.\main.c      ****  *
   7:.\main.c      ****  * CONFIDENTIAL AND PROPRIETARY INFORMATION
   8:.\main.c      ****  * WHICH IS THE PROPERTY OF your company.
   9:.\main.c      ****  *
  10:.\main.c      ****  * ========================================
  11:.\main.c      **** */
  12:.\main.c      **** #include <project.h>
  13:.\main.c      **** #include <math.h>
  14:.\main.c      **** #include <stdlib.h>
  15:.\main.c      **** #include "GUI.h"
  16:.\main.c      **** #include "tft.h"
  17:.\main.c      **** #include <math.h>
  18:.\main.c      **** #include <stdint.h>
  19:.\main.c      **** #include <stddef.h>
  20:.\main.c      **** #include <stdio.h>
  21:.\main.c      **** #include "main.h"
  22:.\main.c      **** #include <FS.h>
  23:.\main.c      **** #include <string.h>
  24:.\main.c      **** #include <Global.h>
  25:.\main.c      **** 
  26:.\main.c      **** typedef enum {
  27:.\main.c      **** 	FILTER_LOW_PASS,
  28:.\main.c      **** 	FILTER_HIGH_PASS
  29:.\main.c      **** } FilterType;
  30:.\main.c      **** 
  31:.\main.c      **** typedef enum {
ARM GAS  C:\Users\student\AppData\Local\Temp\cc7xlRSM.s 			page 2


  32:.\main.c      **** 	TRACK_1,
  33:.\main.c      **** 	TRACK_2
  34:.\main.c      **** } TrackType;
  35:.\main.c      **** 
  36:.\main.c      **** // Global variables
  37:.\main.c      **** #define SAMPLE_OFFSET 32768
  38:.\main.c      **** #define SAMPLE_RATE 11025
  39:.\main.c      **** volatile uint32_t audioSampleIndex = 0;
  40:.\main.c      **** 
  41:.\main.c      **** #define AUDIO_BUFFER_SIZE 6140
  42:.\main.c      **** signed short int audioBuffer1[AUDIO_BUFFER_SIZE];
  43:.\main.c      **** signed short int audioBuffer2[AUDIO_BUFFER_SIZE];
  44:.\main.c      **** signed short int audioBuffer3[AUDIO_BUFFER_SIZE];
  45:.\main.c      **** signed short int audioBuffer4[AUDIO_BUFFER_SIZE];
  46:.\main.c      **** signed short int* currentBuffer1 = audioBuffer1;  // Pointer to the current buffer being played
  47:.\main.c      **** signed short int* loadingBuffer1 = audioBuffer2;  // Pointer to the buffer being loaded
  48:.\main.c      **** signed short int* currentBuffer2 = audioBuffer3;  // Pointer to the current buffer being played
  49:.\main.c      **** signed short int* loadingBuffer2 = audioBuffer4;  // Pointer to the buffer being loaded
  50:.\main.c      **** 
  51:.\main.c      **** #define SECONDS_PER_BAR 4
  52:.\main.c      **** 
  53:.\main.c      **** char file1[16] = "clarity.wav";
  54:.\main.c      **** char file2[14] = "dieyoung.wav";
  55:.\main.c      **** volatile uint32 overall_size = 0;
  56:.\main.c      **** FS_FILE* audioFile1 = NULL;  // Global file pointer for audio data
  57:.\main.c      **** FS_FILE* audioFile2 = NULL;  // Global file pointer for audio data
  58:.\main.c      **** volatile size_t currentBufferFill = 0;  // How much valid data is in the current buffer
  59:.\main.c      **** volatile size_t loadingBufferFill = 0;  // How much valid data is in the loading buffer
  60:.\main.c      **** volatile int switchBuffers = 0x0;    // Flag to switch buffers
  61:.\main.c      **** volatile int fileEnd1 = 0x0;
  62:.\main.c      **** volatile int fileEnd2 = 0x0;
  63:.\main.c      **** 
  64:.\main.c      **** volatile float volumeControlCoef1 = 1;
  65:.\main.c      **** volatile float volumeControlCoef2 = 0;
  66:.\main.c      **** char volumeControlString1[128];
  67:.\main.c      **** char volumeControlString2[128];
  68:.\main.c      **** 
  69:.\main.c      **** #define LSBperGee 16384.0       //from the register map, for the +/- 2 G setting, there are 16384 L
  70:.\main.c      **** 
  71:.\main.c      **** uint8_t topByte;        //we'll use these to hold and process the data from the MPU
  72:.\main.c      **** uint8_t bottomByte;
  73:.\main.c      **** uint16_t combinedData;
  74:.\main.c      **** float geeForce;
  75:.\main.c      **** char mpuString1[24];
  76:.\main.c      **** 
  77:.\main.c      **** // Audio processing variables
  78:.\main.c      **** static int previousOutput = 0;
  79:.\main.c      **** static int previousInput = 0;
  80:.\main.c      **** 
  81:.\main.c      **** #define DISPLAY_WIDTH 320  // Assume display width is 320 pixels
  82:.\main.c      **** #define DISPLAY_HEIGHT 240 // Assume display height is 240 pixels
  83:.\main.c      **** 
  84:.\main.c      **** volatile int rectangleIndexTrackOne = 0;  // Index to track which rectangle (or second) is being di
  85:.\main.c      **** volatile int rectangleIndexTrackTwo = 0;
  86:.\main.c      **** 
  87:.\main.c      **** volatile int secondsCount = 1;
  88:.\main.c      **** char timeString[12];
ARM GAS  C:\Users\student\AppData\Local\Temp\cc7xlRSM.s 			page 3


  89:.\main.c      **** 
  90:.\main.c      **** void DisplayAmplitudeBar(signed short int* buffer, size_t bufferSize, TrackType trackType) {
  91:.\main.c      ****     int samplesPerSecond = SAMPLE_RATE;
  92:.\main.c      ****     long sumAmplitude = 0;
  93:.\main.c      ****     int waveformHeight = DISPLAY_HEIGHT * 0.4;
  94:.\main.c      ****     int waveformWidth = DISPLAY_WIDTH * 0.6;
  95:.\main.c      ****     
  96:.\main.c      ****     // Calculate the average amplitude for the current buffer
  97:.\main.c      ****     size_t i;
  98:.\main.c      ****     for (i = 0; i < bufferSize; ++i) {
  99:.\main.c      ****         sumAmplitude += abs(buffer[i]);
 100:.\main.c      ****     }
 101:.\main.c      **** 
 102:.\main.c      ****     int avgAmplitude = sumAmplitude / bufferSize;
 103:.\main.c      **** 
 104:.\main.c      ****     // Scale the average amplitude to fit the display height
 105:.\main.c      ****     int barHeight = (avgAmplitude * waveformHeight) / SAMPLE_OFFSET;
 106:.\main.c      **** 
 107:.\main.c      ****     GUI_SetColor(GUI_BLUE);
 108:.\main.c      ****     // Calculate the width of each bar based on the expected number of buffers to display
 109:.\main.c      ****     uint16_t numSecs = (overall_size-44) / SAMPLE_RATE / sizeof(uint16);
 110:.\main.c      ****     int barWidth = SECONDS_PER_BAR * waveformWidth / numSecs;
 111:.\main.c      **** 
 112:.\main.c      ****     // Draw a rectangle for the current buffer
 113:.\main.c      ****     int widthOffset = (DISPLAY_WIDTH - waveformWidth) * (0.75);
 114:.\main.c      ****     int xMidpoint;
 115:.\main.c      ****     int rectangleIndex;
 116:.\main.c      ****     if (trackType == TRACK_1) {
 117:.\main.c      ****         GUI_SetColor(GUI_BLUE);
 118:.\main.c      ****         xMidpoint = 60;
 119:.\main.c      ****         rectangleIndex = rectangleIndexTrackOne;
 120:.\main.c      ****         rectangleIndexTrackOne++;
 121:.\main.c      ****     } else {
 122:.\main.c      ****         // trackType = TRACK_2
 123:.\main.c      ****         GUI_SetColor(GUI_GREEN);
 124:.\main.c      ****         xMidpoint = 180;
 125:.\main.c      ****         rectangleIndex = rectangleIndexTrackTwo;
 126:.\main.c      ****         rectangleIndexTrackTwo++;
 127:.\main.c      ****     }
 128:.\main.c      ****     GUI_FillRect(xMidpoint-(barHeight/2), rectangleIndex * barWidth + widthOffset, xMidpoint+(barHe
 129:.\main.c      ****     //char *barHeightBuffer;
 130:.\main.c      ****     //sprintf(barHeightBuffer, "Bar Height: %u", (uint16)barHeight);
 131:.\main.c      ****     //GUI_DispStringAt(barHeightBuffer, 10, 220);
 132:.\main.c      ****     
 133:.\main.c      ****     // Increment the rectangle index for the next buffer
 134:.\main.c      ****     rectangleIndex++;
 135:.\main.c      ****     if (rectangleIndex * barWidth >= DISPLAY_WIDTH) {
 136:.\main.c      ****         // rectangleIndex = 0;  // Reset if we reach the end of the display
 137:.\main.c      ****         // GUI_Clear();  // Clear the screen to start over
 138:.\main.c      ****     }
 139:.\main.c      **** }
 140:.\main.c      **** 
 141:.\main.c      **** 
 142:.\main.c      **** void adjustVolume(uint16_t *sample, float volumeScale) {
 143:.\main.c      **** 	int adjustedSample = (int)(*sample) - SAMPLE_OFFSET;
 144:.\main.c      **** 	adjustedSample = (int)(adjustedSample * volumeScale);
 145:.\main.c      **** 
ARM GAS  C:\Users\student\AppData\Local\Temp\cc7xlRSM.s 			page 4


 146:.\main.c      **** 	// Clip to prevent overflow and underflow
 147:.\main.c      **** 	if (adjustedSample > 32767) adjustedSample = 32767;
 148:.\main.c      **** 	if (adjustedSample < -32768) adjustedSample = -32768;
 149:.\main.c      **** 
 150:.\main.c      **** 	*sample = (uint16_t)(adjustedSample + SAMPLE_OFFSET);
 151:.\main.c      **** }
 152:.\main.c      **** 
 153:.\main.c      **** void applyFilter(uint16_t *sample, float rc, float dt, FilterType filterType) {
 154:.\main.c      **** 	float alpha = dt / (rc + dt);
 155:.\main.c      **** 	float currentInput = (float)(*sample) - SAMPLE_OFFSET;
 156:.\main.c      **** 	float currentOutput;
 157:.\main.c      **** 
 158:.\main.c      **** 	if (filterType == FILTER_LOW_PASS) {
 159:.\main.c      ****     	currentOutput = alpha * currentInput + (1 - alpha) * previousOutput;
 160:.\main.c      **** 	} else { // FILTER_HIGH_PASS
 161:.\main.c      ****     	currentOutput = (1 - alpha) * (previousOutput + currentInput - previousInput);
 162:.\main.c      **** 	}
 163:.\main.c      **** 
 164:.\main.c      **** 	previousInput = currentInput;
 165:.\main.c      **** 	previousOutput = currentOutput;
 166:.\main.c      **** 
 167:.\main.c      **** 	currentOutput += SAMPLE_OFFSET;
 168:.\main.c      **** 	*sample = (uint16_t)(currentOutput > 65535 ? 65535 : currentOutput < 0 ? 0 : currentOutput);
 169:.\main.c      **** }
 170:.\main.c      **** 
 171:.\main.c      **** void GUI_Initialize()
 172:.\main.c      **** {
 173:.\main.c      **** 	SPIM_TFT_Start();
 174:.\main.c      **** 	GUI_Init();                         	// initialize graphics library
 175:.\main.c      **** 	GUI_Clear();
 176:.\main.c      **** 	GUI_SetFont(&GUI_Font8x16);
 177:.\main.c      **** }
 178:.\main.c      **** 
 179:.\main.c      **** void readWavHeader(FS_FILE* filePtr) {
 180:.\main.c      ****     unsigned char buffer4[4];
 181:.\main.c      ****     unsigned char buffer2[2];
 182:.\main.c      ****     char debugString[128];
 183:.\main.c      **** 
 184:.\main.c      ****     // Read RIFF header
 185:.\main.c      ****     FS_Read(filePtr, buffer4, 4);  // Read the 'RIFF' descriptor
 186:.\main.c      ****     sprintf(debugString, "Descriptor: %c%c%c%c", buffer4[0], buffer4[1], buffer4[2], buffer4[3]);
 187:.\main.c      ****     GUI_DispStringAt(debugString, 10, 30);
 188:.\main.c      **** 
 189:.\main.c      ****     // Read size of file
 190:.\main.c      ****     FS_Read(filePtr, buffer4, 4);
 191:.\main.c      ****     overall_size = buffer4[0] | (buffer4[1] << 8) | (buffer4[2] << 16) | (buffer4[3] << 24);
 192:.\main.c      ****     sprintf(debugString, "Overall size: %lu bytes", overall_size);
 193:.\main.c      ****     GUI_DispStringAt(debugString, 10, 50);
 194:.\main.c      **** 
 195:.\main.c      ****     // Read WAVE string
 196:.\main.c      ****     FS_Read(filePtr, buffer4, 4);
 197:.\main.c      ****     sprintf(debugString, "Format: %c%c%c%c", buffer4[0], buffer4[1], buffer4[2], buffer4[3]);
 198:.\main.c      ****     GUI_DispStringAt(debugString, 10, 70);
 199:.\main.c      **** 
 200:.\main.c      ****     // Read format chunk marker
 201:.\main.c      ****     FS_Read(filePtr, buffer4, 4);
 202:.\main.c      ****     sprintf(debugString, "Fmt marker: %c%c%c%c", buffer4[0], buffer4[1], buffer4[2], buffer4[3]);
ARM GAS  C:\Users\student\AppData\Local\Temp\cc7xlRSM.s 			page 5


 203:.\main.c      ****     GUI_DispStringAt(debugString, 10, 90);
 204:.\main.c      **** 
 205:.\main.c      ****     // Read length of format data
 206:.\main.c      ****     FS_Read(filePtr, buffer4, 4);
 207:.\main.c      ****     uint32 length_of_fmt = buffer4[0] | (buffer4[1] << 8) | (buffer4[2] << 16) | (buffer4[3] << 24)
 208:.\main.c      ****     sprintf(debugString, "Length of fmt: %lu", length_of_fmt);
 209:.\main.c      ****     GUI_DispStringAt(debugString, 10, 110);
 210:.\main.c      **** 
 211:.\main.c      ****     // Read format type
 212:.\main.c      ****     FS_Read(filePtr, buffer2, 2);
 213:.\main.c      ****     uint16 format_type = buffer2[0] | (buffer2[1] << 8);
 214:.\main.c      ****     sprintf(debugString, "Format type: %u", format_type);
 215:.\main.c      ****     GUI_DispStringAt(debugString, 10, 130);
 216:.\main.c      **** 
 217:.\main.c      ****     // Read channels
 218:.\main.c      ****     FS_Read(filePtr, buffer2, 2);
 219:.\main.c      ****     uint16 channels = buffer2[0] | (buffer2[1] << 8);
 220:.\main.c      ****     sprintf(debugString, "Channels: %u", channels);
 221:.\main.c      ****     GUI_DispStringAt(debugString, 10, 150);
 222:.\main.c      **** 
 223:.\main.c      ****     // Read sample rate
 224:.\main.c      ****     FS_Read(filePtr, buffer4, 4);
 225:.\main.c      ****     uint32 sample_rate = buffer4[0] | (buffer4[1] << 8) | (buffer4[2] << 16) | (buffer4[3] << 24);
 226:.\main.c      ****     sprintf(debugString, "Sample rate: %lu", sample_rate);
 227:.\main.c      ****     GUI_DispStringAt(debugString, 10, 170);
 228:.\main.c      **** 
 229:.\main.c      ****     // Read byte rate
 230:.\main.c      ****     FS_Read(filePtr, buffer4, 4);
 231:.\main.c      ****     uint32 byte_rate = buffer4[0] | (buffer4[1] << 8) | (buffer4[2] << 16) | (buffer4[3] << 24);
 232:.\main.c      ****     sprintf(debugString, "Byte rate: %lu", byte_rate);
 233:.\main.c      ****     GUI_DispStringAt(debugString, 10, 190);
 234:.\main.c      **** 
 235:.\main.c      ****     // Read block align
 236:.\main.c      ****     FS_Read(filePtr, buffer2, 2);
 237:.\main.c      ****     uint16 block_align = buffer2[0] | (buffer2[1] << 8);
 238:.\main.c      ****     sprintf(debugString, "Block align: %u", block_align);
 239:.\main.c      ****     GUI_DispStringAt(debugString, 10, 210);
 240:.\main.c      **** 
 241:.\main.c      ****     // Read bits per sample
 242:.\main.c      ****     FS_Read(filePtr, buffer2, 2);
 243:.\main.c      ****     uint16 bits_per_sample = buffer2[0] | (buffer2[1] << 8);
 244:.\main.c      ****     sprintf(debugString, "Bits per sample: %u", bits_per_sample);
 245:.\main.c      ****     GUI_DispStringAt(debugString, 10, 230);
 246:.\main.c      **** }
 247:.\main.c      **** 
 248:.\main.c      **** void InitializeAudioFile() {
 249:.\main.c      ****     char sdVolName[10];
 250:.\main.c      ****     FS_Init();
 251:.\main.c      ****     CyDelay(2000u);  // Delay to ensure stability after initialization
 252:.\main.c      **** 
 253:.\main.c      ****     if(FS_GetVolumeName(0u, &sdVolName[0], sizeof(sdVolName) - 1) == 0) {
 254:.\main.c      ****         sdVolName[sizeof(sdVolName) - 1] = '\0';  // Ensure null termination
 255:.\main.c      ****         GUI_DispStringAt("SD card name:", 10, 10);
 256:.\main.c      ****         GUI_DispStringAt(sdVolName, 10, 30);
 257:.\main.c      ****     } else {
 258:.\main.c      ****         GUI_DispStringAt("Failed to get SD card name", 10, 10);
 259:.\main.c      ****     }
ARM GAS  C:\Users\student\AppData\Local\Temp\cc7xlRSM.s 			page 6


 260:.\main.c      ****     
 261:.\main.c      ****     if(FS_Mount("0:") == 0) {
 262:.\main.c      ****         GUI_DispStringAt("Failed to mount SD", 10, 50);
 263:.\main.c      ****         return;
 264:.\main.c      ****     } else {
 265:.\main.c      ****         GUI_DispStringAt("SD Card mounted", 10, 50);
 266:.\main.c      ****     }
 267:.\main.c      **** 
 268:.\main.c      ****     // New block: List all files
 269:.\main.c      ****     FS_FIND_DATA fd;
 270:.\main.c      ****     char filename[256];  // Adjust size as needed
 271:.\main.c      ****     if(FS_FindFirstFile(&fd, "0:\\6115FP", file1, 16)) {
 272:.\main.c      ****         do {
 273:.\main.c      ****             char* fileString;
 274:.\main.c      ****             strcpy(fileString, "Filename: ");
 275:.\main.c      ****             strcat(fileString, filename);
 276:.\main.c      ****             strcat(fileString, ",");
 277:.\main.c      ****             GUI_DispStringAt("HERE", 10, 70);  // Display file name
 278:.\main.c      ****             CyDelay(500);  // Delay for visibility
 279:.\main.c      ****         } while(0);  // Corrected to remove extra arguments
 280:.\main.c      ****         FS_FindClose(&fd);
 281:.\main.c      ****     } else {
 282:.\main.c      ****         GUI_DispStringAt("No files found", 10, 70);
 283:.\main.c      ****     }
 284:.\main.c      **** 
 285:.\main.c      ****     // Continue with your existing file operations
 286:.\main.c      ****     audioFile1 = FS_FOpen(file1, "r");
 287:.\main.c      ****     if (audioFile1) {
 288:.\main.c      ****         GUI_DispStringAt("File opened successfully", 10, 130);
 289:.\main.c      ****         readWavHeader(audioFile1);
 290:.\main.c      ****         //FS_FSeek(audioFile, 44, FS_SEEK_SET); // skip the WAV header
 291:.\main.c      ****         currentBufferFill = FS_Read(audioFile1, currentBuffer1, AUDIO_BUFFER_SIZE * sizeof(uint16_t
 292:.\main.c      ****         loadingBufferFill = FS_Read(audioFile1, loadingBuffer1, AUDIO_BUFFER_SIZE * sizeof(uint16_t
 293:.\main.c      ****         char textBuffer[128];
 294:.\main.c      ****         sprintf(textBuffer, "Buffer fill: %u", currentBufferFill);
 295:.\main.c      ****         
 296:.\main.c      ****         GUI_DispStringAt(textBuffer, 10, 280);
 297:.\main.c      ****         if (currentBufferFill > 0) {
 298:.\main.c      ****             GUI_DispStringAt("Data loaded into buffer", 10, 150);
 299:.\main.c      ****         } else {
 300:.\main.c      ****             GUI_DispStringAt("Failed to load data", 10, 170);
 301:.\main.c      ****         }
 302:.\main.c      ****     } else {
 303:.\main.c      ****         GUI_DispStringAt("Failed to open file", 10, 130);
 304:.\main.c      ****     }
 305:.\main.c      ****     
 306:.\main.c      ****     CyDelay(1000);
 307:.\main.c      ****     FS_FIND_DATA fd2;
 308:.\main.c      ****     if(FS_FindFirstFile(&fd, "0:\\6115FP", file2, 16)) {
 309:.\main.c      ****         do {
 310:.\main.c      ****             char* fileString;
 311:.\main.c      ****             strcpy(fileString, "Filename: ");
 312:.\main.c      ****             strcat(fileString, filename);
 313:.\main.c      ****             strcat(fileString, ",");
 314:.\main.c      ****             GUI_DispStringAt("HERE", 10, 70);  // Display file name
 315:.\main.c      ****             CyDelay(500);  // Delay for visibility
 316:.\main.c      ****         } while(0);  // Corrected to remove extra arguments
ARM GAS  C:\Users\student\AppData\Local\Temp\cc7xlRSM.s 			page 7


 317:.\main.c      ****         FS_FindClose(&fd);
 318:.\main.c      ****     } else {
 319:.\main.c      ****         GUI_DispStringAt("No files found", 10, 70);
 320:.\main.c      ****     }
 321:.\main.c      ****     // Continue with your existing file operations
 322:.\main.c      ****     audioFile2 = FS_FOpen(file2, "r");
 323:.\main.c      ****     if (audioFile2) {
 324:.\main.c      ****         GUI_DispStringAt("File opened successfully", 10, 130);
 325:.\main.c      ****         readWavHeader(audioFile2);
 326:.\main.c      ****         //FS_FSeek(audioFile, 44, FS_SEEK_SET); // skip the WAV header
 327:.\main.c      ****         currentBufferFill = FS_Read(audioFile2, currentBuffer2, AUDIO_BUFFER_SIZE * sizeof(uint16_t
 328:.\main.c      ****         loadingBufferFill = FS_Read(audioFile2, loadingBuffer2, AUDIO_BUFFER_SIZE * sizeof(uint16_t
 329:.\main.c      ****         char textBuffer[128];
 330:.\main.c      ****         sprintf(textBuffer, "Buffer fill: %u", currentBufferFill);
 331:.\main.c      ****         
 332:.\main.c      ****         GUI_DispStringAt(textBuffer, 10, 280);
 333:.\main.c      ****         if (currentBufferFill > 0) {
 334:.\main.c      ****             GUI_DispStringAt("Data loaded into buffer", 10, 150);
 335:.\main.c      ****         } else {
 336:.\main.c      ****             GUI_DispStringAt("Failed to load data", 10, 170);
 337:.\main.c      ****         }
 338:.\main.c      ****     } else {
 339:.\main.c      ****         GUI_DispStringAt("Failed to open file", 10, 130);
 340:.\main.c      ****     }
 341:.\main.c      **** }
 342:.\main.c      **** 
 343:.\main.c      **** void playAudio() {
 344:.\main.c      ****     signed short int signedSample1 = currentBuffer1[audioSampleIndex];
 345:.\main.c      ****     signed short int signedSample2 = currentBuffer2[audioSampleIndex];
 346:.\main.c      ****     
 347:.\main.c      ****     // TODO: calculate scaling factor normalized based on the sum of the two audio tracks
 348:.\main.c      ****     float totalVolumeControl = volumeControlCoef1 + volumeControlCoef2;
 349:.\main.c      ****     float scalingFactor1 = volumeControlCoef1 / totalVolumeControl;
 350:.\main.c      ****     float scalingFactor2 = volumeControlCoef2 / totalVolumeControl;
 351:.\main.c      ****     signedSample1 = (signed short int)(signedSample1 * scalingFactor1);
 352:.\main.c      ****     signedSample2 = (signed short int)(signedSample2 * scalingFactor2);
 353:.\main.c      ****     
 354:.\main.c      ****     int mixedSample = 0.85 * (signedSample1 + signedSample2);
 355:.\main.c      ****     
 356:.\main.c      ****     if (mixedSample > 32767) mixedSample = 32767;
 357:.\main.c      ****     if (mixedSample < -32768) mixedSample = -32768;
 358:.\main.c      ****     //signedSample *= volumeControlCoef;
 359:.\main.c      ****     uint16 adjustedSample = mixedSample + SAMPLE_OFFSET;
 360:.\main.c      ****     //adjustVolume(&adjustedSample, 0.3); // Adjust volume
 361:.\main.c      ****     
 362:.\main.c      ****     audioSampleIndex++;
 363:.\main.c      ****     SPIM_Audio_WriteTxData(adjustedSample);
 364:.\main.c      **** }
 365:.\main.c      **** 
 366:.\main.c      **** CY_ISR(audioTimerISRHandler) {
 367:.\main.c      ****     if (!fileEnd1) {
 368:.\main.c      ****     	if (audioSampleIndex >= AUDIO_BUFFER_SIZE) {
 369:.\main.c      ****             audioSampleIndex = 0;
 370:.\main.c      ****             switchBuffers = 0x1;
 371:.\main.c      ****             // Switch the pointers of the buffers
 372:.\main.c      ****             signed short int* temp = currentBuffer1;
 373:.\main.c      ****             currentBuffer1 = loadingBuffer1;
ARM GAS  C:\Users\student\AppData\Local\Temp\cc7xlRSM.s 			page 8


 374:.\main.c      ****             loadingBuffer1 = temp;
 375:.\main.c      ****             temp = currentBuffer2;
 376:.\main.c      ****             currentBuffer2 = loadingBuffer2;
 377:.\main.c      ****             loadingBuffer2 = temp;
 378:.\main.c      ****     	}
 379:.\main.c      ****         playAudio();
 380:.\main.c      ****     }
 381:.\main.c      ****     // UpdateVolumeControlAndDisplay();
 382:.\main.c      **** 	AudioTimer_ReadStatusRegister(); // Clear the timer interrupt
 383:.\main.c      **** }
 384:.\main.c      **** 
 385:.\main.c      **** CY_ISR(updateSecondsTimer) {
  27              		.loc 1 385 0
  28              		.cfi_startproc
  29              		@ args = 0, pretend = 0, frame = 0
  30              		@ frame_needed = 0, uses_anonymous_args = 0
  31 0000 38B5     		push	{r3, r4, r5, lr}
  32              		.cfi_def_cfa_offset 16
  33              		.cfi_offset 3, -16
  34              		.cfi_offset 4, -12
  35              		.cfi_offset 5, -8
  36              		.cfi_offset 14, -4
 386:.\main.c      ****     GUI_SetColor(GUI_WHITE);
  37              		.loc 1 386 0
  38 0002 6FF07F40 		mvn	r0, #-16777216
  39 0006 FFF7FEFF 		bl	GUI_SetColor
  40              	.LVL0:
 387:.\main.c      ****     uint16 currMin = secondsCount / 60;
  41              		.loc 1 387 0
  42 000a 164C     		ldr	r4, .L5
  43 000c 2168     		ldr	r1, [r4]
  44 000e 164B     		ldr	r3, .L5+4
  45 0010 83FB0102 		smull	r0, r2, r3, r1
  46 0014 0A44     		add	r2, r2, r1
  47 0016 C917     		asrs	r1, r1, #31
  48 0018 C1EB6212 		rsb	r2, r1, r2, asr #5
  49              	.LVL1:
 388:.\main.c      ****     uint16 currSec = secondsCount % 60;
  50              		.loc 1 388 0
  51 001c 2068     		ldr	r0, [r4]
  52 001e 83FB0013 		smull	r1, r3, r3, r0
  53 0022 0344     		add	r3, r3, r0
  54 0024 C117     		asrs	r1, r0, #31
  55 0026 C1EB6313 		rsb	r3, r1, r3, asr #5
  56 002a C3EB0313 		rsb	r3, r3, r3, lsl #4
  57 002e 9B00     		lsls	r3, r3, #2
  58 0030 C31A     		subs	r3, r0, r3
  59              	.LVL2:
 389:.\main.c      ****     sprintf(timeString, "Time: %02u:%02u", currMin, currSec);
  60              		.loc 1 389 0
  61 0032 0E4D     		ldr	r5, .L5+8
  62 0034 2846     		mov	r0, r5
  63 0036 0E49     		ldr	r1, .L5+12
  64 0038 92B2     		uxth	r2, r2
  65 003a 9BB2     		uxth	r3, r3
  66 003c FFF7FEFF 		bl	sprintf
  67              	.LVL3:
ARM GAS  C:\Users\student\AppData\Local\Temp\cc7xlRSM.s 			page 9


 390:.\main.c      ****     GUI_DispStringAt(timeString, 80, 30);
  68              		.loc 1 390 0
  69 0040 2846     		mov	r0, r5
  70 0042 5021     		movs	r1, #80
  71 0044 1E22     		movs	r2, #30
  72 0046 FFF7FEFF 		bl	GUI_DispStringAt
  73              	.LVL4:
 391:.\main.c      ****     secondsCount++;
  74              		.loc 1 391 0
  75 004a 2368     		ldr	r3, [r4]
  76 004c 0133     		adds	r3, r3, #1
  77 004e 2360     		str	r3, [r4]
 392:.\main.c      ****     if (!fileEnd1 || !fileEnd2) TimeStamp_Timer_ReadStatusRegister();
  78              		.loc 1 392 0
  79 0050 084B     		ldr	r3, .L5+16
  80 0052 1B68     		ldr	r3, [r3]
  81 0054 13B1     		cbz	r3, .L2
  82              		.loc 1 392 0 is_stmt 0 discriminator 2
  83 0056 074B     		ldr	r3, .L5+16
  84 0058 5B68     		ldr	r3, [r3, #4]
  85 005a 0BB9     		cbnz	r3, .L1
  86              	.L2:
  87              		.loc 1 392 0 discriminator 3
  88 005c FFF7FEFF 		bl	TimeStamp_Timer_ReadStatusRegister
  89              	.LVL5:
  90              	.L1:
  91 0060 38BD     		pop	{r3, r4, r5, pc}
  92              	.L6:
  93 0062 00BF     		.align	2
  94              	.L5:
  95 0064 00000000 		.word	.LANCHOR0
  96 0068 89888888 		.word	-2004318071
  97 006c 00000000 		.word	timeString
  98 0070 00000000 		.word	.LC0
  99 0074 00000000 		.word	.LANCHOR1
 100              		.cfi_endproc
 101              	.LFE71:
 102              		.size	updateSecondsTimer, .-updateSecondsTimer
 103              		.global	__aeabi_i2d
 104              		.global	__aeabi_dmul
 105              		.global	__aeabi_d2f
 106              		.global	__aeabi_fmul
 107              		.global	__aeabi_f2uiz
 108              		.section	.text.getADCs,"ax",%progbits
 109              		.align	2
 110              		.global	getADCs
 111              		.thumb
 112              		.thumb_func
 113              		.type	getADCs, %function
 114              	getADCs:
 115              	.LFB72:
 393:.\main.c      **** }
 394:.\main.c      **** 
 395:.\main.c      **** CY_ISR(getADCs) {
 116              		.loc 1 395 0 is_stmt 1
 117              		.cfi_startproc
 118              		@ args = 0, pretend = 0, frame = 0
ARM GAS  C:\Users\student\AppData\Local\Temp\cc7xlRSM.s 			page 10


 119              		@ frame_needed = 0, uses_anonymous_args = 0
 120 0000 70B5     		push	{r4, r5, r6, lr}
 121              		.cfi_def_cfa_offset 16
 122              		.cfi_offset 4, -16
 123              		.cfi_offset 5, -12
 124              		.cfi_offset 6, -8
 125              		.cfi_offset 14, -4
 396:.\main.c      ****     ADC_FlexSensor_L_StartConvert();
 126              		.loc 1 396 0
 127 0002 FFF7FEFF 		bl	ADC_FlexSensor_L_StartConvert
 128              	.LVL6:
 129              	.L8:
 397:.\main.c      ****     while (!ADC_FlexSensor_L_IsEndConversion(ADC_FlexSensor_L_RETURN_STATUS));
 130              		.loc 1 397 0 discriminator 1
 131 0006 0120     		movs	r0, #1
 132 0008 FFF7FEFF 		bl	ADC_FlexSensor_L_IsEndConversion
 133              	.LVL7:
 134 000c 0028     		cmp	r0, #0
 135 000e FAD0     		beq	.L8
 398:.\main.c      ****     uint16_t adcValue1 = ADC_FlexSensor_L_GetResult16();
 136              		.loc 1 398 0
 137 0010 FFF7FEFF 		bl	ADC_FlexSensor_L_GetResult16
 138              	.LVL8:
 399:.\main.c      ****     volumeControlCoef1 = (adcValue1 / 4096.0);  // Normalize and invert ADC value to 0-1 range
 139              		.loc 1 399 0
 140 0014 80B2     		uxth	r0, r0
 141 0016 FFF7FEFF 		bl	__aeabi_i2d
 142              	.LVL9:
 143 001a 0022     		movs	r2, #0
 144 001c 234B     		ldr	r3, .L11
 145 001e FFF7FEFF 		bl	__aeabi_dmul
 146              	.LVL10:
 147 0022 FFF7FEFF 		bl	__aeabi_d2f
 148              	.LVL11:
 149 0026 224B     		ldr	r3, .L11+4
 150 0028 5860     		str	r0, [r3, #4]	@ float
 400:.\main.c      ****     ADC_FlexSensor_R_StartConvert();
 151              		.loc 1 400 0
 152 002a FFF7FEFF 		bl	ADC_FlexSensor_R_StartConvert
 153              	.LVL12:
 154              	.L9:
 401:.\main.c      ****     while (!ADC_FlexSensor_R_IsEndConversion(ADC_FlexSensor_R_RETURN_STATUS));
 155              		.loc 1 401 0 discriminator 1
 156 002e 0120     		movs	r0, #1
 157 0030 FFF7FEFF 		bl	ADC_FlexSensor_R_IsEndConversion
 158              	.LVL13:
 159 0034 0028     		cmp	r0, #0
 160 0036 FAD0     		beq	.L9
 402:.\main.c      ****     uint16_t adcValue2 = ADC_FlexSensor_R_GetResult16();
 161              		.loc 1 402 0
 162 0038 FFF7FEFF 		bl	ADC_FlexSensor_R_GetResult16
 163              	.LVL14:
 164 003c 80B2     		uxth	r0, r0
 165              	.LVL15:
 403:.\main.c      ****     volumeControlCoef2 = (adcValue2 * 2 / 65536.0);  // Normalize and invert ADC value to 0-1 range
 166              		.loc 1 403 0
 167 003e 4000     		lsls	r0, r0, #1
ARM GAS  C:\Users\student\AppData\Local\Temp\cc7xlRSM.s 			page 11


 168              	.LVL16:
 169 0040 FFF7FEFF 		bl	__aeabi_i2d
 170              	.LVL17:
 171 0044 0022     		movs	r2, #0
 172 0046 1B4B     		ldr	r3, .L11+8
 173 0048 FFF7FEFF 		bl	__aeabi_dmul
 174              	.LVL18:
 175 004c FFF7FEFF 		bl	__aeabi_d2f
 176              	.LVL19:
 177 0050 194C     		ldr	r4, .L11+12
 178 0052 A060     		str	r0, [r4, #8]	@ float
 404:.\main.c      **** 	// high adcValue = unflexed, low = flexed
 405:.\main.c      ****     GUI_SetColor(GUI_WHITE);
 179              		.loc 1 405 0
 180 0054 6FF07F40 		mvn	r0, #-16777216
 181 0058 FFF7FEFF 		bl	GUI_SetColor
 182              	.LVL20:
 406:.\main.c      ****     sprintf(volumeControlString1, "Volume: %02u%% ", (uint16)(100*volumeControlCoef1));
 183              		.loc 1 406 0
 184 005c 144B     		ldr	r3, .L11+4
 185 005e 5868     		ldr	r0, [r3, #4]	@ float
 186 0060 1649     		ldr	r1, .L11+16
 187 0062 FFF7FEFF 		bl	__aeabi_fmul
 188              	.LVL21:
 189 0066 FFF7FEFF 		bl	__aeabi_f2uiz
 190              	.LVL22:
 191 006a 82B2     		uxth	r2, r0
 192 006c 144E     		ldr	r6, .L11+20
 193 006e 154D     		ldr	r5, .L11+24
 194 0070 3046     		mov	r0, r6
 195 0072 2946     		mov	r1, r5
 196 0074 FFF7FEFF 		bl	sprintf
 197              	.LVL23:
 407:.\main.c      ****     GUI_DispStringAt(volumeControlString1, 20, 50);
 198              		.loc 1 407 0
 199 0078 3046     		mov	r0, r6
 200 007a 1421     		movs	r1, #20
 201 007c 3222     		movs	r2, #50
 202 007e FFF7FEFF 		bl	GUI_DispStringAt
 203              	.LVL24:
 408:.\main.c      ****     
 409:.\main.c      ****     sprintf(volumeControlString2, "Volume: %02u%% ", (uint16)(100*volumeControlCoef2));
 204              		.loc 1 409 0
 205 0082 A068     		ldr	r0, [r4, #8]	@ float
 206 0084 0D49     		ldr	r1, .L11+16
 207 0086 FFF7FEFF 		bl	__aeabi_fmul
 208              	.LVL25:
 209 008a FFF7FEFF 		bl	__aeabi_f2uiz
 210              	.LVL26:
 211 008e 82B2     		uxth	r2, r0
 212 0090 0D4C     		ldr	r4, .L11+28
 213 0092 2046     		mov	r0, r4
 214 0094 2946     		mov	r1, r5
 215 0096 FFF7FEFF 		bl	sprintf
 216              	.LVL27:
 410:.\main.c      ****     GUI_DispStringAt(volumeControlString2, 120, 50);
 217              		.loc 1 410 0
ARM GAS  C:\Users\student\AppData\Local\Temp\cc7xlRSM.s 			page 12


 218 009a 2046     		mov	r0, r4
 219 009c 7821     		movs	r1, #120
 220 009e 3222     		movs	r2, #50
 221 00a0 FFF7FEFF 		bl	GUI_DispStringAt
 222              	.LVL28:
 411:.\main.c      ****     
 412:.\main.c      ****     //I2C_MASTER_L_MasterSendStart(0x68, 0);      //start the transaction
 413:.\main.c      ****     //I2C_MASTER_L_MasterWriteByte(0x3B);         //The register address for the X-acceleration is 
 414:.\main.c      ****     //I2C_MASTER_L_MasterSendRestart(0x68, 1);    //MasterSendRestart sends another start condition
 415:.\main.c      ****     
 416:.\main.c      ****     //topByte = I2C_MASTER_L_MasterReadByte(I2C_MASTER_L_ACK_DATA);       //receive the first byte 
 417:.\main.c      ****     //bottomByte = I2C_MASTER_L_MasterReadByte(I2C_MASTER_L_NAK_DATA);    //receive the second byte
 418:.\main.c      ****     
 419:.\main.c      ****     //I2C_MASTER_L_MasterSendStop();      //end the transaction
 420:.\main.c      ****     
 421:.\main.c      ****     //combinedData = ((uint16_t)topByte << 8) | (uint16_t)bottomByte;     //combine the two bytes i
 422:.\main.c      **** 
 423:.\main.c      ****     //geeForce = (int16_t)combinedData / LSBperGee;
 424:.\main.c      ****     //sprintf(mpuString1, "Filter: %u", (uint16)(geeForce*10000));
 425:.\main.c      ****     //GUI_DispStringAt(mpuString1, 80, 70);
 426:.\main.c      ****     Get_ADCs_Timer_ReadStatusRegister();
 223              		.loc 1 426 0
 224 00a4 FFF7FEFF 		bl	Get_ADCs_Timer_ReadStatusRegister
 225              	.LVL29:
 226 00a8 70BD     		pop	{r4, r5, r6, pc}
 227              	.L12:
 228 00aa 00BF     		.align	2
 229              	.L11:
 230 00ac 0000303F 		.word	1060110336
 231 00b0 00000000 		.word	.LANCHOR0
 232 00b4 0000F03E 		.word	1055916032
 233 00b8 00000000 		.word	.LANCHOR1
 234 00bc 0000C842 		.word	1120403456
 235 00c0 00000000 		.word	volumeControlString1
 236 00c4 10000000 		.word	.LC1
 237 00c8 00000000 		.word	volumeControlString2
 238              		.cfi_endproc
 239              	.LFE72:
 240              		.size	getADCs, .-getADCs
 241              		.section	.text.DisplayAmplitudeBar,"ax",%progbits
 242              		.align	2
 243              		.global	DisplayAmplitudeBar
 244              		.thumb
 245              		.thumb_func
 246              		.type	DisplayAmplitudeBar, %function
 247              	DisplayAmplitudeBar:
 248              	.LFB63:
  90:.\main.c      ****     int samplesPerSecond = SAMPLE_RATE;
 249              		.loc 1 90 0
 250              		.cfi_startproc
 251              		@ args = 0, pretend = 0, frame = 0
 252              		@ frame_needed = 0, uses_anonymous_args = 0
 253              	.LVL30:
 254 0000 70B5     		push	{r4, r5, r6, lr}
 255              		.cfi_def_cfa_offset 16
 256              		.cfi_offset 4, -16
 257              		.cfi_offset 5, -12
ARM GAS  C:\Users\student\AppData\Local\Temp\cc7xlRSM.s 			page 13


 258              		.cfi_offset 6, -8
 259              		.cfi_offset 14, -4
 260 0002 1546     		mov	r5, r2
 261              	.LVL31:
  98:.\main.c      ****         sumAmplitude += abs(buffer[i]);
 262              		.loc 1 98 0
 263 0004 0023     		movs	r3, #0
  92:.\main.c      ****     int waveformHeight = DISPLAY_HEIGHT * 0.4;
 264              		.loc 1 92 0
 265 0006 1C46     		mov	r4, r3
  98:.\main.c      ****         sumAmplitude += abs(buffer[i]);
 266              		.loc 1 98 0
 267 0008 06E0     		b	.L14
 268              	.LVL32:
 269              	.L15:
  99:.\main.c      ****     }
 270              		.loc 1 99 0 discriminator 3
 271 000a 30F91320 		ldrsh	r2, [r0, r3, lsl #1]
 272 000e 002A     		cmp	r2, #0
 273 0010 B8BF     		it	lt
 274 0012 5242     		rsblt	r2, r2, #0
 275 0014 1444     		add	r4, r4, r2
 276              	.LVL33:
  98:.\main.c      ****         sumAmplitude += abs(buffer[i]);
 277              		.loc 1 98 0 discriminator 3
 278 0016 0133     		adds	r3, r3, #1
 279              	.LVL34:
 280              	.L14:
  98:.\main.c      ****         sumAmplitude += abs(buffer[i]);
 281              		.loc 1 98 0 is_stmt 0 discriminator 1
 282 0018 8B42     		cmp	r3, r1
 283 001a F6D3     		bcc	.L15
 102:.\main.c      **** 
 284              		.loc 1 102 0 is_stmt 1
 285 001c B4FBF1F4 		udiv	r4, r4, r1
 286              	.LVL35:
 105:.\main.c      **** 
 287              		.loc 1 105 0
 288 0020 04EB4404 		add	r4, r4, r4, lsl #1
 289              	.LVL36:
 290 0024 6401     		lsls	r4, r4, #5
 291 0026 2246     		mov	r2, r4
 292 0028 002C     		cmp	r4, #0
 293 002a 02DA     		bge	.L16
 294 002c 04F5FF42 		add	r2, r4, #32640
 295 0030 7F32     		adds	r2, r2, #127
 296              	.L16:
 297 0032 D413     		asrs	r4, r2, #15
 298              	.LVL37:
 107:.\main.c      ****     // Calculate the width of each bar based on the expected number of buffers to display
 299              		.loc 1 107 0
 300 0034 4FF47F00 		mov	r0, #16711680
 301              	.LVL38:
 302 0038 FFF7FEFF 		bl	GUI_SetColor
 303              	.LVL39:
 109:.\main.c      ****     int barWidth = SECONDS_PER_BAR * waveformWidth / numSecs;
 304              		.loc 1 109 0
ARM GAS  C:\Users\student\AppData\Local\Temp\cc7xlRSM.s 			page 14


 305 003c 174B     		ldr	r3, .L20
 306 003e DB68     		ldr	r3, [r3, #12]
 307 0040 2C3B     		subs	r3, r3, #44
 308 0042 174E     		ldr	r6, .L20+4
 309 0044 A6FB0336 		umull	r3, r6, r6, r3
 310              	.LVL40:
 311 0048 C6F38F33 		ubfx	r3, r6, #14, #16
 110:.\main.c      **** 
 312              		.loc 1 110 0
 313 004c 4FF44076 		mov	r6, #768
 314              	.LVL41:
 315 0050 96FBF3F6 		sdiv	r6, r6, r3
 316              	.LVL42:
 116:.\main.c      ****         GUI_SetColor(GUI_BLUE);
 317              		.loc 1 116 0
 318 0054 55B9     		cbnz	r5, .L17
 117:.\main.c      ****         xMidpoint = 60;
 319              		.loc 1 117 0
 320 0056 4FF47F00 		mov	r0, #16711680
 321 005a FFF7FEFF 		bl	GUI_SetColor
 322              	.LVL43:
 119:.\main.c      ****         rectangleIndexTrackOne++;
 323              		.loc 1 119 0
 324 005e 0F4A     		ldr	r2, .L20
 325 0060 1369     		ldr	r3, [r2, #16]
 326              	.LVL44:
 120:.\main.c      ****     } else {
 327              		.loc 1 120 0
 328 0062 1169     		ldr	r1, [r2, #16]
 329 0064 0131     		adds	r1, r1, #1
 330 0066 1161     		str	r1, [r2, #16]
 118:.\main.c      ****         rectangleIndex = rectangleIndexTrackOne;
 331              		.loc 1 118 0
 332 0068 3C22     		movs	r2, #60
 333 006a 09E0     		b	.L18
 334              	.LVL45:
 335              	.L17:
 123:.\main.c      ****         xMidpoint = 180;
 336              		.loc 1 123 0
 337 006c 4FF47F40 		mov	r0, #65280
 338 0070 FFF7FEFF 		bl	GUI_SetColor
 339              	.LVL46:
 125:.\main.c      ****         rectangleIndexTrackTwo++;
 340              		.loc 1 125 0
 341 0074 094A     		ldr	r2, .L20
 342 0076 5369     		ldr	r3, [r2, #20]
 126:.\main.c      ****     }
 343              		.loc 1 126 0
 344 0078 5169     		ldr	r1, [r2, #20]
 345 007a 0131     		adds	r1, r1, #1
 346 007c 5161     		str	r1, [r2, #20]
 124:.\main.c      ****         rectangleIndex = rectangleIndexTrackTwo;
 347              		.loc 1 124 0
 348 007e B422     		movs	r2, #180
 349              	.LVL47:
 350              	.L18:
 128:.\main.c      ****     //char *barHeightBuffer;
ARM GAS  C:\Users\student\AppData\Local\Temp\cc7xlRSM.s 			page 15


 351              		.loc 1 128 0
 352 0080 04EBD474 		add	r4, r4, r4, lsr #31
 353              	.LVL48:
 354 0084 6410     		asrs	r4, r4, #1
 355 0086 06FB03F1 		mul	r1, r6, r3
 356 008a 03FB0663 		mla	r3, r3, r6, r6
 357 008e 101B     		subs	r0, r2, r4
 358 0090 6031     		adds	r1, r1, #96
 359 0092 2244     		add	r2, r2, r4
 360              	.LVL49:
 361 0094 6033     		adds	r3, r3, #96
 362 0096 FFF7FEFF 		bl	GUI_FillRect
 363              	.LVL50:
 364 009a 70BD     		pop	{r4, r5, r6, pc}
 365              	.LVL51:
 366              	.L21:
 367              		.align	2
 368              	.L20:
 369 009c 00000000 		.word	.LANCHOR1
 370 00a0 3BC637BE 		.word	-1103641029
 371              		.cfi_endproc
 372              	.LFE63:
 373              		.size	DisplayAmplitudeBar, .-DisplayAmplitudeBar
 374              		.global	__aeabi_i2f
 375              		.global	__aeabi_f2iz
 376              		.section	.text.adjustVolume,"ax",%progbits
 377              		.align	2
 378              		.global	adjustVolume
 379              		.thumb
 380              		.thumb_func
 381              		.type	adjustVolume, %function
 382              	adjustVolume:
 383              	.LFB64:
 142:.\main.c      **** 	int adjustedSample = (int)(*sample) - SAMPLE_OFFSET;
 384              		.loc 1 142 0
 385              		.cfi_startproc
 386              		@ args = 0, pretend = 0, frame = 0
 387              		@ frame_needed = 0, uses_anonymous_args = 0
 388              	.LVL52:
 389 0000 38B5     		push	{r3, r4, r5, lr}
 390              		.cfi_def_cfa_offset 16
 391              		.cfi_offset 3, -16
 392              		.cfi_offset 4, -12
 393              		.cfi_offset 5, -8
 394              		.cfi_offset 14, -4
 395 0002 0446     		mov	r4, r0
 396 0004 0D46     		mov	r5, r1
 143:.\main.c      **** 	adjustedSample = (int)(adjustedSample * volumeScale);
 397              		.loc 1 143 0
 398 0006 0088     		ldrh	r0, [r0]
 399              	.LVL53:
 144:.\main.c      **** 
 400              		.loc 1 144 0
 401 0008 A0F50040 		sub	r0, r0, #32768
 402              	.LVL54:
 403 000c FFF7FEFF 		bl	__aeabi_i2f
 404              	.LVL55:
ARM GAS  C:\Users\student\AppData\Local\Temp\cc7xlRSM.s 			page 16


 405 0010 2946     		mov	r1, r5
 406 0012 FFF7FEFF 		bl	__aeabi_fmul
 407              	.LVL56:
 408 0016 FFF7FEFF 		bl	__aeabi_f2iz
 409              	.LVL57:
 147:.\main.c      **** 	if (adjustedSample < -32768) adjustedSample = -32768;
 410              		.loc 1 147 0
 411 001a B0F5004F 		cmp	r0, #32768
 412 001e 01DB     		blt	.L23
 413 0020 47F6FF70 		movw	r0, #32767
 414              	.LVL58:
 415              	.L23:
 148:.\main.c      **** 
 416              		.loc 1 148 0
 417 0024 10F5004F 		cmn	r0, #32768
 418 0028 00DA     		bge	.L24
 419 002a 0248     		ldr	r0, .L28
 420              	.LVL59:
 421              	.L24:
 150:.\main.c      **** }
 422              		.loc 1 150 0
 423 002c A0F50040 		sub	r0, r0, #32768
 424              	.LVL60:
 425 0030 2080     		strh	r0, [r4]	@ movhi
 426 0032 38BD     		pop	{r3, r4, r5, pc}
 427              	.LVL61:
 428              	.L29:
 429              		.align	2
 430              	.L28:
 431 0034 0080FFFF 		.word	-32768
 432              		.cfi_endproc
 433              	.LFE64:
 434              		.size	adjustVolume, .-adjustVolume
 435              		.global	__aeabi_fadd
 436              		.global	__aeabi_fdiv
 437              		.global	__aeabi_ui2f
 438              		.global	__aeabi_fsub
 439              		.global	__aeabi_fcmpgt
 440              		.global	__aeabi_fcmplt
 441              		.section	.text.applyFilter,"ax",%progbits
 442              		.align	2
 443              		.global	applyFilter
 444              		.thumb
 445              		.thumb_func
 446              		.type	applyFilter, %function
 447              	applyFilter:
 448              	.LFB65:
 153:.\main.c      **** 	float alpha = dt / (rc + dt);
 449              		.loc 1 153 0
 450              		.cfi_startproc
 451              		@ args = 0, pretend = 0, frame = 0
 452              		@ frame_needed = 0, uses_anonymous_args = 0
 453              	.LVL62:
 454 0000 2DE9F041 		push	{r4, r5, r6, r7, r8, lr}
 455              		.cfi_def_cfa_offset 24
 456              		.cfi_offset 4, -24
 457              		.cfi_offset 5, -20
ARM GAS  C:\Users\student\AppData\Local\Temp\cc7xlRSM.s 			page 17


 458              		.cfi_offset 6, -16
 459              		.cfi_offset 7, -12
 460              		.cfi_offset 8, -8
 461              		.cfi_offset 14, -4
 462 0004 0446     		mov	r4, r0
 463 0006 1546     		mov	r5, r2
 464 0008 1E46     		mov	r6, r3
 154:.\main.c      **** 	float currentInput = (float)(*sample) - SAMPLE_OFFSET;
 465              		.loc 1 154 0
 466 000a 0846     		mov	r0, r1
 467              	.LVL63:
 468 000c 1146     		mov	r1, r2
 469              	.LVL64:
 470 000e FFF7FEFF 		bl	__aeabi_fadd
 471              	.LVL65:
 472 0012 0146     		mov	r1, r0
 473 0014 2846     		mov	r0, r5
 474 0016 FFF7FEFF 		bl	__aeabi_fdiv
 475              	.LVL66:
 476 001a 0546     		mov	r5, r0
 477              	.LVL67:
 155:.\main.c      **** 	float currentOutput;
 478              		.loc 1 155 0
 479 001c 2088     		ldrh	r0, [r4]
 480              	.LVL68:
 481 001e FFF7FEFF 		bl	__aeabi_ui2f
 482              	.LVL69:
 483 0022 4FF08E41 		mov	r1, #1191182336
 484 0026 FFF7FEFF 		bl	__aeabi_fsub
 485              	.LVL70:
 486 002a 0746     		mov	r7, r0
 487              	.LVL71:
 158:.\main.c      ****     	currentOutput = alpha * currentInput + (1 - alpha) * previousOutput;
 488              		.loc 1 158 0
 489 002c C6B9     		cbnz	r6, .L31
 159:.\main.c      **** 	} else { // FILTER_HIGH_PASS
 490              		.loc 1 159 0
 491 002e 2846     		mov	r0, r5
 492              	.LVL72:
 493 0030 3946     		mov	r1, r7
 494 0032 FFF7FEFF 		bl	__aeabi_fmul
 495              	.LVL73:
 496 0036 0646     		mov	r6, r0
 497 0038 4FF07E50 		mov	r0, #1065353216
 498 003c 2946     		mov	r1, r5
 499 003e FFF7FEFF 		bl	__aeabi_fsub
 500              	.LVL74:
 501 0042 0546     		mov	r5, r0
 502              	.LVL75:
 503 0044 254B     		ldr	r3, .L38
 504 0046 9869     		ldr	r0, [r3, #24]
 505 0048 FFF7FEFF 		bl	__aeabi_i2f
 506              	.LVL76:
 507 004c 0146     		mov	r1, r0
 508 004e 2846     		mov	r0, r5
 509 0050 FFF7FEFF 		bl	__aeabi_fmul
 510              	.LVL77:
ARM GAS  C:\Users\student\AppData\Local\Temp\cc7xlRSM.s 			page 18


 511 0054 0146     		mov	r1, r0
 512 0056 3046     		mov	r0, r6
 513 0058 FFF7FEFF 		bl	__aeabi_fadd
 514              	.LVL78:
 515 005c 0546     		mov	r5, r0
 516              	.LVL79:
 517 005e 19E0     		b	.L32
 518              	.LVL80:
 519              	.L31:
 161:.\main.c      **** 	}
 520              		.loc 1 161 0
 521 0060 4FF07E50 		mov	r0, #1065353216
 522              	.LVL81:
 523 0064 2946     		mov	r1, r5
 524 0066 FFF7FEFF 		bl	__aeabi_fsub
 525              	.LVL82:
 526 006a 0646     		mov	r6, r0
 527 006c 1B4D     		ldr	r5, .L38
 528              	.LVL83:
 529 006e A869     		ldr	r0, [r5, #24]
 530 0070 FFF7FEFF 		bl	__aeabi_i2f
 531              	.LVL84:
 532 0074 3946     		mov	r1, r7
 533 0076 FFF7FEFF 		bl	__aeabi_fadd
 534              	.LVL85:
 535 007a 8046     		mov	r8, r0
 536 007c E869     		ldr	r0, [r5, #28]
 537 007e FFF7FEFF 		bl	__aeabi_i2f
 538              	.LVL86:
 539 0082 0146     		mov	r1, r0
 540 0084 4046     		mov	r0, r8
 541 0086 FFF7FEFF 		bl	__aeabi_fsub
 542              	.LVL87:
 543 008a 0146     		mov	r1, r0
 544 008c 3046     		mov	r0, r6
 545 008e FFF7FEFF 		bl	__aeabi_fmul
 546              	.LVL88:
 547 0092 0546     		mov	r5, r0
 548              	.LVL89:
 549              	.L32:
 164:.\main.c      **** 	previousOutput = currentOutput;
 550              		.loc 1 164 0
 551 0094 114E     		ldr	r6, .L38
 552 0096 3846     		mov	r0, r7
 553              	.LVL90:
 554 0098 FFF7FEFF 		bl	__aeabi_f2iz
 555              	.LVL91:
 556 009c F061     		str	r0, [r6, #28]
 165:.\main.c      **** 
 557              		.loc 1 165 0
 558 009e 2846     		mov	r0, r5
 559 00a0 FFF7FEFF 		bl	__aeabi_f2iz
 560              	.LVL92:
 561 00a4 B061     		str	r0, [r6, #24]
 167:.\main.c      **** 	*sample = (uint16_t)(currentOutput > 65535 ? 65535 : currentOutput < 0 ? 0 : currentOutput);
 562              		.loc 1 167 0
 563 00a6 2846     		mov	r0, r5
ARM GAS  C:\Users\student\AppData\Local\Temp\cc7xlRSM.s 			page 19


 564 00a8 4FF08E41 		mov	r1, #1191182336
 565 00ac FFF7FEFF 		bl	__aeabi_fadd
 566              	.LVL93:
 567 00b0 0546     		mov	r5, r0
 568              	.LVL94:
 168:.\main.c      **** }
 569              		.loc 1 168 0
 570 00b2 0B49     		ldr	r1, .L38+4
 571 00b4 FFF7FEFF 		bl	__aeabi_fcmpgt
 572              	.LVL95:
 573 00b8 58B9     		cbnz	r0, .L35
 168:.\main.c      **** }
 574              		.loc 1 168 0 is_stmt 0 discriminator 2
 575 00ba 2846     		mov	r0, r5
 576 00bc 0021     		movs	r1, #0
 577 00be FFF7FEFF 		bl	__aeabi_fcmplt
 578              	.LVL96:
 579 00c2 20B9     		cbnz	r0, .L36
 168:.\main.c      **** }
 580              		.loc 1 168 0 discriminator 5
 581 00c4 2846     		mov	r0, r5
 582 00c6 FFF7FEFF 		bl	__aeabi_f2uiz
 583              	.LVL97:
 584 00ca 80B2     		uxth	r0, r0
 585 00cc 03E0     		b	.L33
 586              	.L36:
 168:.\main.c      **** }
 587              		.loc 1 168 0
 588 00ce 0020     		movs	r0, #0
 589 00d0 01E0     		b	.L33
 590              	.L35:
 591 00d2 4FF6FF70 		movw	r0, #65535
 592              	.L33:
 168:.\main.c      **** }
 593              		.loc 1 168 0 discriminator 8
 594 00d6 2080     		strh	r0, [r4]	@ movhi
 595 00d8 BDE8F081 		pop	{r4, r5, r6, r7, r8, pc}
 596              	.LVL98:
 597              	.L39:
 598              		.align	2
 599              	.L38:
 600 00dc 00000000 		.word	.LANCHOR1
 601 00e0 00FF7F47 		.word	1199570688
 602              		.cfi_endproc
 603              	.LFE65:
 604              		.size	applyFilter, .-applyFilter
 605              		.section	.text.GUI_Initialize,"ax",%progbits
 606              		.align	2
 607              		.global	GUI_Initialize
 608              		.thumb
 609              		.thumb_func
 610              		.type	GUI_Initialize, %function
 611              	GUI_Initialize:
 612              	.LFB66:
 172:.\main.c      **** 	SPIM_TFT_Start();
 613              		.loc 1 172 0 is_stmt 1
 614              		.cfi_startproc
ARM GAS  C:\Users\student\AppData\Local\Temp\cc7xlRSM.s 			page 20


 615              		@ args = 0, pretend = 0, frame = 0
 616              		@ frame_needed = 0, uses_anonymous_args = 0
 617 0000 08B5     		push	{r3, lr}
 618              		.cfi_def_cfa_offset 8
 619              		.cfi_offset 3, -8
 620              		.cfi_offset 14, -4
 173:.\main.c      **** 	GUI_Init();                         	// initialize graphics library
 621              		.loc 1 173 0
 622 0002 FFF7FEFF 		bl	SPIM_TFT_Start
 623              	.LVL99:
 174:.\main.c      **** 	GUI_Clear();
 624              		.loc 1 174 0
 625 0006 FFF7FEFF 		bl	GUI_Init
 626              	.LVL100:
 175:.\main.c      **** 	GUI_SetFont(&GUI_Font8x16);
 627              		.loc 1 175 0
 628 000a FFF7FEFF 		bl	GUI_Clear
 629              	.LVL101:
 176:.\main.c      **** }
 630              		.loc 1 176 0
 631 000e 0248     		ldr	r0, .L42
 632 0010 FFF7FEFF 		bl	GUI_SetFont
 633              	.LVL102:
 634 0014 08BD     		pop	{r3, pc}
 635              	.L43:
 636 0016 00BF     		.align	2
 637              	.L42:
 638 0018 00000000 		.word	GUI_Font8x16
 639              		.cfi_endproc
 640              	.LFE66:
 641              		.size	GUI_Initialize, .-GUI_Initialize
 642              		.section	.text.readWavHeader,"ax",%progbits
 643              		.align	2
 644              		.global	readWavHeader
 645              		.thumb
 646              		.thumb_func
 647              		.type	readWavHeader, %function
 648              	readWavHeader:
 649              	.LFB67:
 179:.\main.c      ****     unsigned char buffer4[4];
 650              		.loc 1 179 0
 651              		.cfi_startproc
 652              		@ args = 0, pretend = 0, frame = 136
 653              		@ frame_needed = 0, uses_anonymous_args = 0
 654              	.LVL103:
 655 0000 10B5     		push	{r4, lr}
 656              		.cfi_def_cfa_offset 8
 657              		.cfi_offset 4, -8
 658              		.cfi_offset 14, -4
 659 0002 A4B0     		sub	sp, sp, #144
 660              		.cfi_def_cfa_offset 152
 661 0004 0446     		mov	r4, r0
 185:.\main.c      ****     sprintf(debugString, "Descriptor: %c%c%c%c", buffer4[0], buffer4[1], buffer4[2], buffer4[3]);
 662              		.loc 1 185 0
 663 0006 23A9     		add	r1, sp, #140
 664 0008 0422     		movs	r2, #4
 665 000a FFF7FEFF 		bl	FS_Read
ARM GAS  C:\Users\student\AppData\Local\Temp\cc7xlRSM.s 			page 21


 666              	.LVL104:
 186:.\main.c      ****     GUI_DispStringAt(debugString, 10, 30);
 667              		.loc 1 186 0
 668 000e 9DF88C20 		ldrb	r2, [sp, #140]	@ zero_extendqisi2
 669 0012 9DF88D30 		ldrb	r3, [sp, #141]	@ zero_extendqisi2
 670 0016 9DF88E00 		ldrb	r0, [sp, #142]	@ zero_extendqisi2
 671 001a 9DF88F10 		ldrb	r1, [sp, #143]	@ zero_extendqisi2
 672 001e 0090     		str	r0, [sp]
 673 0020 0191     		str	r1, [sp, #4]
 674 0022 02A8     		add	r0, sp, #8
 675 0024 7E49     		ldr	r1, .L46
 676 0026 FFF7FEFF 		bl	sprintf
 677              	.LVL105:
 187:.\main.c      **** 
 678              		.loc 1 187 0
 679 002a 02A8     		add	r0, sp, #8
 680 002c 0A21     		movs	r1, #10
 681 002e 1E22     		movs	r2, #30
 682 0030 FFF7FEFF 		bl	GUI_DispStringAt
 683              	.LVL106:
 190:.\main.c      ****     overall_size = buffer4[0] | (buffer4[1] << 8) | (buffer4[2] << 16) | (buffer4[3] << 24);
 684              		.loc 1 190 0
 685 0034 2046     		mov	r0, r4
 686 0036 23A9     		add	r1, sp, #140
 687 0038 0422     		movs	r2, #4
 688 003a FFF7FEFF 		bl	FS_Read
 689              	.LVL107:
 191:.\main.c      ****     sprintf(debugString, "Overall size: %lu bytes", overall_size);
 690              		.loc 1 191 0
 691 003e 9DF88C30 		ldrb	r3, [sp, #140]	@ zero_extendqisi2
 692 0042 9DF88D20 		ldrb	r2, [sp, #141]	@ zero_extendqisi2
 693 0046 43EA0223 		orr	r3, r3, r2, lsl #8
 694 004a 9DF88E20 		ldrb	r2, [sp, #142]	@ zero_extendqisi2
 695 004e 43EA0243 		orr	r3, r3, r2, lsl #16
 696 0052 9DF88F20 		ldrb	r2, [sp, #143]	@ zero_extendqisi2
 697 0056 43EA0263 		orr	r3, r3, r2, lsl #24
 698 005a 724A     		ldr	r2, .L46+4
 699 005c D360     		str	r3, [r2, #12]
 192:.\main.c      ****     GUI_DispStringAt(debugString, 10, 50);
 700              		.loc 1 192 0
 701 005e D268     		ldr	r2, [r2, #12]
 702 0060 02A8     		add	r0, sp, #8
 703 0062 7149     		ldr	r1, .L46+8
 704 0064 FFF7FEFF 		bl	sprintf
 705              	.LVL108:
 193:.\main.c      **** 
 706              		.loc 1 193 0
 707 0068 02A8     		add	r0, sp, #8
 708 006a 0A21     		movs	r1, #10
 709 006c 3222     		movs	r2, #50
 710 006e FFF7FEFF 		bl	GUI_DispStringAt
 711              	.LVL109:
 196:.\main.c      ****     sprintf(debugString, "Format: %c%c%c%c", buffer4[0], buffer4[1], buffer4[2], buffer4[3]);
 712              		.loc 1 196 0
 713 0072 2046     		mov	r0, r4
 714 0074 23A9     		add	r1, sp, #140
 715 0076 0422     		movs	r2, #4
ARM GAS  C:\Users\student\AppData\Local\Temp\cc7xlRSM.s 			page 22


 716 0078 FFF7FEFF 		bl	FS_Read
 717              	.LVL110:
 197:.\main.c      ****     GUI_DispStringAt(debugString, 10, 70);
 718              		.loc 1 197 0
 719 007c 9DF88C20 		ldrb	r2, [sp, #140]	@ zero_extendqisi2
 720 0080 9DF88D30 		ldrb	r3, [sp, #141]	@ zero_extendqisi2
 721 0084 9DF88E00 		ldrb	r0, [sp, #142]	@ zero_extendqisi2
 722 0088 9DF88F10 		ldrb	r1, [sp, #143]	@ zero_extendqisi2
 723 008c 0090     		str	r0, [sp]
 724 008e 0191     		str	r1, [sp, #4]
 725 0090 02A8     		add	r0, sp, #8
 726 0092 6649     		ldr	r1, .L46+12
 727 0094 FFF7FEFF 		bl	sprintf
 728              	.LVL111:
 198:.\main.c      **** 
 729              		.loc 1 198 0
 730 0098 02A8     		add	r0, sp, #8
 731 009a 0A21     		movs	r1, #10
 732 009c 4622     		movs	r2, #70
 733 009e FFF7FEFF 		bl	GUI_DispStringAt
 734              	.LVL112:
 201:.\main.c      ****     sprintf(debugString, "Fmt marker: %c%c%c%c", buffer4[0], buffer4[1], buffer4[2], buffer4[3]);
 735              		.loc 1 201 0
 736 00a2 2046     		mov	r0, r4
 737 00a4 23A9     		add	r1, sp, #140
 738 00a6 0422     		movs	r2, #4
 739 00a8 FFF7FEFF 		bl	FS_Read
 740              	.LVL113:
 202:.\main.c      ****     GUI_DispStringAt(debugString, 10, 90);
 741              		.loc 1 202 0
 742 00ac 9DF88C20 		ldrb	r2, [sp, #140]	@ zero_extendqisi2
 743 00b0 9DF88D30 		ldrb	r3, [sp, #141]	@ zero_extendqisi2
 744 00b4 9DF88E00 		ldrb	r0, [sp, #142]	@ zero_extendqisi2
 745 00b8 9DF88F10 		ldrb	r1, [sp, #143]	@ zero_extendqisi2
 746 00bc 0090     		str	r0, [sp]
 747 00be 0191     		str	r1, [sp, #4]
 748 00c0 02A8     		add	r0, sp, #8
 749 00c2 5B49     		ldr	r1, .L46+16
 750 00c4 FFF7FEFF 		bl	sprintf
 751              	.LVL114:
 203:.\main.c      **** 
 752              		.loc 1 203 0
 753 00c8 02A8     		add	r0, sp, #8
 754 00ca 0A21     		movs	r1, #10
 755 00cc 5A22     		movs	r2, #90
 756 00ce FFF7FEFF 		bl	GUI_DispStringAt
 757              	.LVL115:
 206:.\main.c      ****     uint32 length_of_fmt = buffer4[0] | (buffer4[1] << 8) | (buffer4[2] << 16) | (buffer4[3] << 24)
 758              		.loc 1 206 0
 759 00d2 2046     		mov	r0, r4
 760 00d4 23A9     		add	r1, sp, #140
 761 00d6 0422     		movs	r2, #4
 762 00d8 FFF7FEFF 		bl	FS_Read
 763              	.LVL116:
 207:.\main.c      ****     sprintf(debugString, "Length of fmt: %lu", length_of_fmt);
 764              		.loc 1 207 0
 765 00dc 9DF88C30 		ldrb	r3, [sp, #140]	@ zero_extendqisi2
ARM GAS  C:\Users\student\AppData\Local\Temp\cc7xlRSM.s 			page 23


 766 00e0 9DF88D20 		ldrb	r2, [sp, #141]	@ zero_extendqisi2
 767 00e4 43EA0223 		orr	r3, r3, r2, lsl #8
 768 00e8 9DF88E20 		ldrb	r2, [sp, #142]	@ zero_extendqisi2
 769 00ec 43EA0243 		orr	r3, r3, r2, lsl #16
 770 00f0 9DF88F20 		ldrb	r2, [sp, #143]	@ zero_extendqisi2
 771              	.LVL117:
 208:.\main.c      ****     GUI_DispStringAt(debugString, 10, 110);
 772              		.loc 1 208 0
 773 00f4 02A8     		add	r0, sp, #8
 774 00f6 4F49     		ldr	r1, .L46+20
 775 00f8 43EA0262 		orr	r2, r3, r2, lsl #24
 776              	.LVL118:
 777 00fc FFF7FEFF 		bl	sprintf
 778              	.LVL119:
 209:.\main.c      **** 
 779              		.loc 1 209 0
 780 0100 02A8     		add	r0, sp, #8
 781 0102 0A21     		movs	r1, #10
 782 0104 6E22     		movs	r2, #110
 783 0106 FFF7FEFF 		bl	GUI_DispStringAt
 784              	.LVL120:
 212:.\main.c      ****     uint16 format_type = buffer2[0] | (buffer2[1] << 8);
 785              		.loc 1 212 0
 786 010a 2046     		mov	r0, r4
 787 010c 22A9     		add	r1, sp, #136
 788 010e 0222     		movs	r2, #2
 789 0110 FFF7FEFF 		bl	FS_Read
 790              	.LVL121:
 213:.\main.c      ****     sprintf(debugString, "Format type: %u", format_type);
 791              		.loc 1 213 0
 792 0114 9DF88830 		ldrb	r3, [sp, #136]	@ zero_extendqisi2
 793 0118 9DF88920 		ldrb	r2, [sp, #137]	@ zero_extendqisi2
 794              	.LVL122:
 214:.\main.c      ****     GUI_DispStringAt(debugString, 10, 130);
 795              		.loc 1 214 0
 796 011c 02A8     		add	r0, sp, #8
 797 011e 4649     		ldr	r1, .L46+24
 798 0120 43EA0222 		orr	r2, r3, r2, lsl #8
 799              	.LVL123:
 800 0124 FFF7FEFF 		bl	sprintf
 801              	.LVL124:
 215:.\main.c      **** 
 802              		.loc 1 215 0
 803 0128 02A8     		add	r0, sp, #8
 804 012a 0A21     		movs	r1, #10
 805 012c 8222     		movs	r2, #130
 806 012e FFF7FEFF 		bl	GUI_DispStringAt
 807              	.LVL125:
 218:.\main.c      ****     uint16 channels = buffer2[0] | (buffer2[1] << 8);
 808              		.loc 1 218 0
 809 0132 2046     		mov	r0, r4
 810 0134 22A9     		add	r1, sp, #136
 811 0136 0222     		movs	r2, #2
 812 0138 FFF7FEFF 		bl	FS_Read
 813              	.LVL126:
 219:.\main.c      ****     sprintf(debugString, "Channels: %u", channels);
 814              		.loc 1 219 0
ARM GAS  C:\Users\student\AppData\Local\Temp\cc7xlRSM.s 			page 24


 815 013c 9DF88830 		ldrb	r3, [sp, #136]	@ zero_extendqisi2
 816 0140 9DF88920 		ldrb	r2, [sp, #137]	@ zero_extendqisi2
 817              	.LVL127:
 220:.\main.c      ****     GUI_DispStringAt(debugString, 10, 150);
 818              		.loc 1 220 0
 819 0144 02A8     		add	r0, sp, #8
 820 0146 3D49     		ldr	r1, .L46+28
 821 0148 43EA0222 		orr	r2, r3, r2, lsl #8
 822              	.LVL128:
 823 014c FFF7FEFF 		bl	sprintf
 824              	.LVL129:
 221:.\main.c      **** 
 825              		.loc 1 221 0
 826 0150 02A8     		add	r0, sp, #8
 827 0152 0A21     		movs	r1, #10
 828 0154 9622     		movs	r2, #150
 829 0156 FFF7FEFF 		bl	GUI_DispStringAt
 830              	.LVL130:
 224:.\main.c      ****     uint32 sample_rate = buffer4[0] | (buffer4[1] << 8) | (buffer4[2] << 16) | (buffer4[3] << 24);
 831              		.loc 1 224 0
 832 015a 2046     		mov	r0, r4
 833 015c 23A9     		add	r1, sp, #140
 834 015e 0422     		movs	r2, #4
 835 0160 FFF7FEFF 		bl	FS_Read
 836              	.LVL131:
 225:.\main.c      ****     sprintf(debugString, "Sample rate: %lu", sample_rate);
 837              		.loc 1 225 0
 838 0164 9DF88C30 		ldrb	r3, [sp, #140]	@ zero_extendqisi2
 839 0168 9DF88D20 		ldrb	r2, [sp, #141]	@ zero_extendqisi2
 840 016c 43EA0223 		orr	r3, r3, r2, lsl #8
 841 0170 9DF88E20 		ldrb	r2, [sp, #142]	@ zero_extendqisi2
 842 0174 43EA0243 		orr	r3, r3, r2, lsl #16
 843 0178 9DF88F20 		ldrb	r2, [sp, #143]	@ zero_extendqisi2
 844              	.LVL132:
 226:.\main.c      ****     GUI_DispStringAt(debugString, 10, 170);
 845              		.loc 1 226 0
 846 017c 02A8     		add	r0, sp, #8
 847 017e 3049     		ldr	r1, .L46+32
 848 0180 43EA0262 		orr	r2, r3, r2, lsl #24
 849              	.LVL133:
 850 0184 FFF7FEFF 		bl	sprintf
 851              	.LVL134:
 227:.\main.c      **** 
 852              		.loc 1 227 0
 853 0188 02A8     		add	r0, sp, #8
 854 018a 0A21     		movs	r1, #10
 855 018c AA22     		movs	r2, #170
 856 018e FFF7FEFF 		bl	GUI_DispStringAt
 857              	.LVL135:
 230:.\main.c      ****     uint32 byte_rate = buffer4[0] | (buffer4[1] << 8) | (buffer4[2] << 16) | (buffer4[3] << 24);
 858              		.loc 1 230 0
 859 0192 2046     		mov	r0, r4
 860 0194 23A9     		add	r1, sp, #140
 861 0196 0422     		movs	r2, #4
 862 0198 FFF7FEFF 		bl	FS_Read
 863              	.LVL136:
 231:.\main.c      ****     sprintf(debugString, "Byte rate: %lu", byte_rate);
ARM GAS  C:\Users\student\AppData\Local\Temp\cc7xlRSM.s 			page 25


 864              		.loc 1 231 0
 865 019c 9DF88C30 		ldrb	r3, [sp, #140]	@ zero_extendqisi2
 866 01a0 9DF88D20 		ldrb	r2, [sp, #141]	@ zero_extendqisi2
 867 01a4 43EA0223 		orr	r3, r3, r2, lsl #8
 868 01a8 9DF88E20 		ldrb	r2, [sp, #142]	@ zero_extendqisi2
 869 01ac 43EA0243 		orr	r3, r3, r2, lsl #16
 870 01b0 9DF88F20 		ldrb	r2, [sp, #143]	@ zero_extendqisi2
 871              	.LVL137:
 232:.\main.c      ****     GUI_DispStringAt(debugString, 10, 190);
 872              		.loc 1 232 0
 873 01b4 02A8     		add	r0, sp, #8
 874 01b6 2349     		ldr	r1, .L46+36
 875 01b8 43EA0262 		orr	r2, r3, r2, lsl #24
 876              	.LVL138:
 877 01bc FFF7FEFF 		bl	sprintf
 878              	.LVL139:
 233:.\main.c      **** 
 879              		.loc 1 233 0
 880 01c0 02A8     		add	r0, sp, #8
 881 01c2 0A21     		movs	r1, #10
 882 01c4 BE22     		movs	r2, #190
 883 01c6 FFF7FEFF 		bl	GUI_DispStringAt
 884              	.LVL140:
 236:.\main.c      ****     uint16 block_align = buffer2[0] | (buffer2[1] << 8);
 885              		.loc 1 236 0
 886 01ca 2046     		mov	r0, r4
 887 01cc 22A9     		add	r1, sp, #136
 888 01ce 0222     		movs	r2, #2
 889 01d0 FFF7FEFF 		bl	FS_Read
 890              	.LVL141:
 237:.\main.c      ****     sprintf(debugString, "Block align: %u", block_align);
 891              		.loc 1 237 0
 892 01d4 9DF88830 		ldrb	r3, [sp, #136]	@ zero_extendqisi2
 893 01d8 9DF88920 		ldrb	r2, [sp, #137]	@ zero_extendqisi2
 894              	.LVL142:
 238:.\main.c      ****     GUI_DispStringAt(debugString, 10, 210);
 895              		.loc 1 238 0
 896 01dc 02A8     		add	r0, sp, #8
 897 01de 1A49     		ldr	r1, .L46+40
 898 01e0 43EA0222 		orr	r2, r3, r2, lsl #8
 899              	.LVL143:
 900 01e4 FFF7FEFF 		bl	sprintf
 901              	.LVL144:
 239:.\main.c      **** 
 902              		.loc 1 239 0
 903 01e8 02A8     		add	r0, sp, #8
 904 01ea 0A21     		movs	r1, #10
 905 01ec D222     		movs	r2, #210
 906 01ee FFF7FEFF 		bl	GUI_DispStringAt
 907              	.LVL145:
 242:.\main.c      ****     uint16 bits_per_sample = buffer2[0] | (buffer2[1] << 8);
 908              		.loc 1 242 0
 909 01f2 2046     		mov	r0, r4
 910 01f4 22A9     		add	r1, sp, #136
 911 01f6 0222     		movs	r2, #2
 912 01f8 FFF7FEFF 		bl	FS_Read
 913              	.LVL146:
ARM GAS  C:\Users\student\AppData\Local\Temp\cc7xlRSM.s 			page 26


 243:.\main.c      ****     sprintf(debugString, "Bits per sample: %u", bits_per_sample);
 914              		.loc 1 243 0
 915 01fc 9DF88830 		ldrb	r3, [sp, #136]	@ zero_extendqisi2
 916 0200 9DF88920 		ldrb	r2, [sp, #137]	@ zero_extendqisi2
 917              	.LVL147:
 244:.\main.c      ****     GUI_DispStringAt(debugString, 10, 230);
 918              		.loc 1 244 0
 919 0204 02A8     		add	r0, sp, #8
 920 0206 1149     		ldr	r1, .L46+44
 921 0208 43EA0222 		orr	r2, r3, r2, lsl #8
 922              	.LVL148:
 923 020c FFF7FEFF 		bl	sprintf
 924              	.LVL149:
 245:.\main.c      **** }
 925              		.loc 1 245 0
 926 0210 02A8     		add	r0, sp, #8
 927 0212 0A21     		movs	r1, #10
 928 0214 E622     		movs	r2, #230
 929 0216 FFF7FEFF 		bl	GUI_DispStringAt
 930              	.LVL150:
 246:.\main.c      **** 
 931              		.loc 1 246 0
 932 021a 24B0     		add	sp, sp, #144
 933              		.cfi_def_cfa_offset 8
 934              		@ sp needed
 935 021c 10BD     		pop	{r4, pc}
 936              	.LVL151:
 937              	.L47:
 938 021e 00BF     		.align	2
 939              	.L46:
 940 0220 20000000 		.word	.LC2
 941 0224 00000000 		.word	.LANCHOR1
 942 0228 38000000 		.word	.LC3
 943 022c 50000000 		.word	.LC4
 944 0230 64000000 		.word	.LC5
 945 0234 7C000000 		.word	.LC6
 946 0238 90000000 		.word	.LC7
 947 023c A0000000 		.word	.LC8
 948 0240 B0000000 		.word	.LC9
 949 0244 C4000000 		.word	.LC10
 950 0248 D4000000 		.word	.LC11
 951 024c E4000000 		.word	.LC12
 952              		.cfi_endproc
 953              	.LFE67:
 954              		.size	readWavHeader, .-readWavHeader
 955              		.section	.text.InitializeAudioFile,"ax",%progbits
 956              		.align	2
 957              		.global	InitializeAudioFile
 958              		.thumb
 959              		.thumb_func
 960              		.type	InitializeAudioFile, %function
 961              	InitializeAudioFile:
 962              	.LFB68:
 248:.\main.c      ****     char sdVolName[10];
 963              		.loc 1 248 0
 964              		.cfi_startproc
 965              		@ args = 0, pretend = 0, frame = 456
ARM GAS  C:\Users\student\AppData\Local\Temp\cc7xlRSM.s 			page 27


 966              		@ frame_needed = 0, uses_anonymous_args = 0
 967 0000 30B5     		push	{r4, r5, lr}
 968              		.cfi_def_cfa_offset 12
 969              		.cfi_offset 4, -12
 970              		.cfi_offset 5, -8
 971              		.cfi_offset 14, -4
 972 0002 F3B0     		sub	sp, sp, #460
 973              		.cfi_def_cfa_offset 472
 250:.\main.c      ****     CyDelay(2000u);  // Delay to ensure stability after initialization
 974              		.loc 1 250 0
 975 0004 FFF7FEFF 		bl	FS_Init
 976              	.LVL152:
 251:.\main.c      **** 
 977              		.loc 1 251 0
 978 0008 4FF4FA60 		mov	r0, #2000
 979 000c FFF7FEFF 		bl	CyDelay
 980              	.LVL153:
 253:.\main.c      ****         sdVolName[sizeof(sdVolName) - 1] = '\0';  // Ensure null termination
 981              		.loc 1 253 0
 982 0010 0020     		movs	r0, #0
 983 0012 6FA9     		add	r1, sp, #444
 984 0014 0922     		movs	r2, #9
 985 0016 FFF7FEFF 		bl	FS_GetVolumeName
 986              	.LVL154:
 987 001a 68B9     		cbnz	r0, .L49
 254:.\main.c      ****         GUI_DispStringAt("SD card name:", 10, 10);
 988              		.loc 1 254 0
 989 001c 0023     		movs	r3, #0
 990 001e 8DF8C531 		strb	r3, [sp, #453]
 255:.\main.c      ****         GUI_DispStringAt(sdVolName, 10, 30);
 991              		.loc 1 255 0
 992 0022 7E48     		ldr	r0, .L66
 993 0024 0A21     		movs	r1, #10
 994 0026 0A46     		mov	r2, r1
 995 0028 FFF7FEFF 		bl	GUI_DispStringAt
 996              	.LVL155:
 256:.\main.c      ****     } else {
 997              		.loc 1 256 0
 998 002c 6FA8     		add	r0, sp, #444
 999 002e 0A21     		movs	r1, #10
 1000 0030 1E22     		movs	r2, #30
 1001 0032 FFF7FEFF 		bl	GUI_DispStringAt
 1002              	.LVL156:
 1003 0036 04E0     		b	.L50
 1004              	.L49:
 258:.\main.c      ****     }
 1005              		.loc 1 258 0
 1006 0038 7948     		ldr	r0, .L66+4
 1007 003a 0A21     		movs	r1, #10
 1008 003c 0A46     		mov	r2, r1
 1009 003e FFF7FEFF 		bl	GUI_DispStringAt
 1010              	.LVL157:
 1011              	.L50:
 261:.\main.c      ****         GUI_DispStringAt("Failed to mount SD", 10, 50);
 1012              		.loc 1 261 0
 1013 0042 7848     		ldr	r0, .L66+8
 1014 0044 FFF7FEFF 		bl	FS_Mount
ARM GAS  C:\Users\student\AppData\Local\Temp\cc7xlRSM.s 			page 28


 1015              	.LVL158:
 1016 0048 28B9     		cbnz	r0, .L51
 262:.\main.c      ****         return;
 1017              		.loc 1 262 0
 1018 004a 7748     		ldr	r0, .L66+12
 1019 004c 0A21     		movs	r1, #10
 1020 004e 3222     		movs	r2, #50
 1021 0050 FFF7FEFF 		bl	GUI_DispStringAt
 1022              	.LVL159:
 1023 0054 E0E0     		b	.L48
 1024              	.L51:
 265:.\main.c      ****     }
 1025              		.loc 1 265 0
 1026 0056 7548     		ldr	r0, .L66+16
 1027 0058 0A21     		movs	r1, #10
 1028 005a 3222     		movs	r2, #50
 1029 005c FFF7FEFF 		bl	GUI_DispStringAt
 1030              	.LVL160:
 271:.\main.c      ****         do {
 1031              		.loc 1 271 0
 1032 0060 60A8     		add	r0, sp, #384
 1033 0062 7349     		ldr	r1, .L66+20
 1034 0064 734A     		ldr	r2, .L66+24
 1035 0066 1023     		movs	r3, #16
 1036 0068 FFF7FEFF 		bl	FS_FindFirstFile
 1037              	.LVL161:
 1038 006c F8B1     		cbz	r0, .L53
 1039              	.LBB2:
 274:.\main.c      ****             strcat(fileString, filename);
 1040              		.loc 1 274 0
 1041 006e 724B     		ldr	r3, .L66+28
 1042 0070 03CB     		ldmia	r3!, {r0, r1}
 1043 0072 0024     		movs	r4, #0
 1044 0074 2060     		str	r0, [r4]	@ unaligned
 1045 0076 6160     		str	r1, [r4, #4]	@ unaligned
 1046 0078 1A88     		ldrh	r2, [r3]	@ unaligned
 1047 007a 9B78     		ldrb	r3, [r3, #2]	@ zero_extendqisi2
 1048 007c 2281     		strh	r2, [r4, #8]	@ unaligned
 1049 007e A372     		strb	r3, [r4, #10]
 275:.\main.c      ****             strcat(fileString, ",");
 1050              		.loc 1 275 0
 1051 0080 2046     		mov	r0, r4
 1052 0082 20A9     		add	r1, sp, #128
 1053 0084 FFF7FEFF 		bl	strcat
 1054              	.LVL162:
 276:.\main.c      ****             GUI_DispStringAt("HERE", 10, 70);  // Display file name
 1055              		.loc 1 276 0
 1056 0088 2046     		mov	r0, r4
 1057 008a FFF7FEFF 		bl	strlen
 1058              	.LVL163:
 1059 008e 6B4B     		ldr	r3, .L66+32
 1060 0090 1B88     		ldrh	r3, [r3]	@ unaligned
 1061 0092 2352     		strh	r3, [r4, r0]	@ unaligned
 277:.\main.c      ****             CyDelay(500);  // Delay for visibility
 1062              		.loc 1 277 0
 1063 0094 6A48     		ldr	r0, .L66+36
 1064 0096 0A21     		movs	r1, #10
ARM GAS  C:\Users\student\AppData\Local\Temp\cc7xlRSM.s 			page 29


 1065 0098 4622     		movs	r2, #70
 1066 009a FFF7FEFF 		bl	GUI_DispStringAt
 1067              	.LVL164:
 278:.\main.c      ****         } while(0);  // Corrected to remove extra arguments
 1068              		.loc 1 278 0
 1069 009e 4FF4FA70 		mov	r0, #500
 1070 00a2 FFF7FEFF 		bl	CyDelay
 1071              	.LVL165:
 1072              	.LBE2:
 280:.\main.c      ****     } else {
 1073              		.loc 1 280 0
 1074 00a6 60A8     		add	r0, sp, #384
 1075 00a8 FFF7FEFF 		bl	FS_FindClose
 1076              	.LVL166:
 1077 00ac 04E0     		b	.L54
 1078              	.L53:
 282:.\main.c      ****     }
 1079              		.loc 1 282 0
 1080 00ae 6548     		ldr	r0, .L66+40
 1081 00b0 0A21     		movs	r1, #10
 1082 00b2 4622     		movs	r2, #70
 1083 00b4 FFF7FEFF 		bl	GUI_DispStringAt
 1084              	.LVL167:
 1085              	.L54:
 286:.\main.c      ****     if (audioFile1) {
 1086              		.loc 1 286 0
 1087 00b8 5E48     		ldr	r0, .L66+24
 1088 00ba 6349     		ldr	r1, .L66+44
 1089 00bc FFF7FEFF 		bl	FS_FOpen
 1090              	.LVL168:
 1091 00c0 624B     		ldr	r3, .L66+48
 1092 00c2 1862     		str	r0, [r3, #32]
 287:.\main.c      ****         GUI_DispStringAt("File opened successfully", 10, 130);
 1093              		.loc 1 287 0
 1094 00c4 0028     		cmp	r0, #0
 1095 00c6 32D0     		beq	.L55
 1096              	.LBB3:
 288:.\main.c      ****         readWavHeader(audioFile1);
 1097              		.loc 1 288 0
 1098 00c8 6148     		ldr	r0, .L66+52
 1099 00ca 0A21     		movs	r1, #10
 1100 00cc 8222     		movs	r2, #130
 1101 00ce FFF7FEFF 		bl	GUI_DispStringAt
 1102              	.LVL169:
 289:.\main.c      ****         //FS_FSeek(audioFile, 44, FS_SEEK_SET); // skip the WAV header
 1103              		.loc 1 289 0
 1104 00d2 5E4C     		ldr	r4, .L66+48
 1105 00d4 206A     		ldr	r0, [r4, #32]
 1106 00d6 FFF7FEFF 		bl	readWavHeader
 1107              	.LVL170:
 291:.\main.c      ****         loadingBufferFill = FS_Read(audioFile1, loadingBuffer1, AUDIO_BUFFER_SIZE * sizeof(uint16_t
 1108              		.loc 1 291 0
 1109 00da 5E4D     		ldr	r5, .L66+56
 1110 00dc 206A     		ldr	r0, [r4, #32]
 1111 00de A969     		ldr	r1, [r5, #24]
 1112 00e0 42F6F872 		movw	r2, #12280
 1113 00e4 FFF7FEFF 		bl	FS_Read
ARM GAS  C:\Users\student\AppData\Local\Temp\cc7xlRSM.s 			page 30


 1114              	.LVL171:
 1115 00e8 4008     		lsrs	r0, r0, #1
 1116 00ea 6062     		str	r0, [r4, #36]
 292:.\main.c      ****         char textBuffer[128];
 1117              		.loc 1 292 0
 1118 00ec 206A     		ldr	r0, [r4, #32]
 1119 00ee E969     		ldr	r1, [r5, #28]
 1120 00f0 42F6F872 		movw	r2, #12280
 1121 00f4 FFF7FEFF 		bl	FS_Read
 1122              	.LVL172:
 1123 00f8 4008     		lsrs	r0, r0, #1
 1124 00fa A062     		str	r0, [r4, #40]
 294:.\main.c      ****         
 1125              		.loc 1 294 0
 1126 00fc 626A     		ldr	r2, [r4, #36]
 1127 00fe 6846     		mov	r0, sp
 1128 0100 5549     		ldr	r1, .L66+60
 1129 0102 FFF7FEFF 		bl	sprintf
 1130              	.LVL173:
 296:.\main.c      ****         if (currentBufferFill > 0) {
 1131              		.loc 1 296 0
 1132 0106 6846     		mov	r0, sp
 1133 0108 0A21     		movs	r1, #10
 1134 010a 4FF48C72 		mov	r2, #280
 1135 010e FFF7FEFF 		bl	GUI_DispStringAt
 1136              	.LVL174:
 297:.\main.c      ****             GUI_DispStringAt("Data loaded into buffer", 10, 150);
 1137              		.loc 1 297 0
 1138 0112 636A     		ldr	r3, [r4, #36]
 1139 0114 2BB1     		cbz	r3, .L56
 298:.\main.c      ****         } else {
 1140              		.loc 1 298 0
 1141 0116 5148     		ldr	r0, .L66+64
 1142 0118 0A21     		movs	r1, #10
 1143 011a 9622     		movs	r2, #150
 1144 011c FFF7FEFF 		bl	GUI_DispStringAt
 1145              	.LVL175:
 1146 0120 0AE0     		b	.L58
 1147              	.L56:
 300:.\main.c      ****         }
 1148              		.loc 1 300 0
 1149 0122 4F48     		ldr	r0, .L66+68
 1150 0124 0A21     		movs	r1, #10
 1151 0126 AA22     		movs	r2, #170
 1152 0128 FFF7FEFF 		bl	GUI_DispStringAt
 1153              	.LVL176:
 1154 012c 04E0     		b	.L58
 1155              	.L55:
 1156              	.LBE3:
 303:.\main.c      ****     }
 1157              		.loc 1 303 0
 1158 012e 4D48     		ldr	r0, .L66+72
 1159 0130 0A21     		movs	r1, #10
 1160 0132 8222     		movs	r2, #130
 1161 0134 FFF7FEFF 		bl	GUI_DispStringAt
 1162              	.LVL177:
 1163              	.L58:
ARM GAS  C:\Users\student\AppData\Local\Temp\cc7xlRSM.s 			page 31


 306:.\main.c      ****     FS_FIND_DATA fd2;
 1164              		.loc 1 306 0
 1165 0138 4FF47A70 		mov	r0, #1000
 1166 013c FFF7FEFF 		bl	CyDelay
 1167              	.LVL178:
 308:.\main.c      ****         do {
 1168              		.loc 1 308 0
 1169 0140 60A8     		add	r0, sp, #384
 1170 0142 3B49     		ldr	r1, .L66+20
 1171 0144 484A     		ldr	r2, .L66+76
 1172 0146 1023     		movs	r3, #16
 1173 0148 FFF7FEFF 		bl	FS_FindFirstFile
 1174              	.LVL179:
 1175 014c F8B1     		cbz	r0, .L59
 1176              	.LBB4:
 311:.\main.c      ****             strcat(fileString, filename);
 1177              		.loc 1 311 0
 1178 014e 3A4B     		ldr	r3, .L66+28
 1179 0150 03CB     		ldmia	r3!, {r0, r1}
 1180 0152 0024     		movs	r4, #0
 1181 0154 2060     		str	r0, [r4]	@ unaligned
 1182 0156 6160     		str	r1, [r4, #4]	@ unaligned
 1183 0158 1A88     		ldrh	r2, [r3]	@ unaligned
 1184 015a 9B78     		ldrb	r3, [r3, #2]	@ zero_extendqisi2
 1185 015c 2281     		strh	r2, [r4, #8]	@ unaligned
 1186 015e A372     		strb	r3, [r4, #10]
 312:.\main.c      ****             strcat(fileString, ",");
 1187              		.loc 1 312 0
 1188 0160 2046     		mov	r0, r4
 1189 0162 20A9     		add	r1, sp, #128
 1190 0164 FFF7FEFF 		bl	strcat
 1191              	.LVL180:
 313:.\main.c      ****             GUI_DispStringAt("HERE", 10, 70);  // Display file name
 1192              		.loc 1 313 0
 1193 0168 2046     		mov	r0, r4
 1194 016a FFF7FEFF 		bl	strlen
 1195              	.LVL181:
 1196 016e 334B     		ldr	r3, .L66+32
 1197 0170 1B88     		ldrh	r3, [r3]	@ unaligned
 1198 0172 2352     		strh	r3, [r4, r0]	@ unaligned
 314:.\main.c      ****             CyDelay(500);  // Delay for visibility
 1199              		.loc 1 314 0
 1200 0174 3248     		ldr	r0, .L66+36
 1201 0176 0A21     		movs	r1, #10
 1202 0178 4622     		movs	r2, #70
 1203 017a FFF7FEFF 		bl	GUI_DispStringAt
 1204              	.LVL182:
 315:.\main.c      ****         } while(0);  // Corrected to remove extra arguments
 1205              		.loc 1 315 0
 1206 017e 4FF4FA70 		mov	r0, #500
 1207 0182 FFF7FEFF 		bl	CyDelay
 1208              	.LVL183:
 1209              	.LBE4:
 317:.\main.c      ****     } else {
 1210              		.loc 1 317 0
 1211 0186 60A8     		add	r0, sp, #384
 1212 0188 FFF7FEFF 		bl	FS_FindClose
ARM GAS  C:\Users\student\AppData\Local\Temp\cc7xlRSM.s 			page 32


 1213              	.LVL184:
 1214 018c 04E0     		b	.L60
 1215              	.L59:
 319:.\main.c      ****     }
 1216              		.loc 1 319 0
 1217 018e 2D48     		ldr	r0, .L66+40
 1218 0190 0A21     		movs	r1, #10
 1219 0192 4622     		movs	r2, #70
 1220 0194 FFF7FEFF 		bl	GUI_DispStringAt
 1221              	.LVL185:
 1222              	.L60:
 322:.\main.c      ****     if (audioFile2) {
 1223              		.loc 1 322 0
 1224 0198 3348     		ldr	r0, .L66+76
 1225 019a 2B49     		ldr	r1, .L66+44
 1226 019c FFF7FEFF 		bl	FS_FOpen
 1227              	.LVL186:
 1228 01a0 2A4B     		ldr	r3, .L66+48
 1229 01a2 D862     		str	r0, [r3, #44]
 323:.\main.c      ****         GUI_DispStringAt("File opened successfully", 10, 130);
 1230              		.loc 1 323 0
 1231 01a4 0028     		cmp	r0, #0
 1232 01a6 32D0     		beq	.L61
 1233              	.LBB5:
 324:.\main.c      ****         readWavHeader(audioFile2);
 1234              		.loc 1 324 0
 1235 01a8 2948     		ldr	r0, .L66+52
 1236 01aa 0A21     		movs	r1, #10
 1237 01ac 8222     		movs	r2, #130
 1238 01ae FFF7FEFF 		bl	GUI_DispStringAt
 1239              	.LVL187:
 325:.\main.c      ****         //FS_FSeek(audioFile, 44, FS_SEEK_SET); // skip the WAV header
 1240              		.loc 1 325 0
 1241 01b2 264C     		ldr	r4, .L66+48
 1242 01b4 E06A     		ldr	r0, [r4, #44]
 1243 01b6 FFF7FEFF 		bl	readWavHeader
 1244              	.LVL188:
 327:.\main.c      ****         loadingBufferFill = FS_Read(audioFile2, loadingBuffer2, AUDIO_BUFFER_SIZE * sizeof(uint16_t
 1245              		.loc 1 327 0
 1246 01ba 264D     		ldr	r5, .L66+56
 1247 01bc E06A     		ldr	r0, [r4, #44]
 1248 01be 296B     		ldr	r1, [r5, #48]
 1249 01c0 42F6F872 		movw	r2, #12280
 1250 01c4 FFF7FEFF 		bl	FS_Read
 1251              	.LVL189:
 1252 01c8 4008     		lsrs	r0, r0, #1
 1253 01ca 6062     		str	r0, [r4, #36]
 328:.\main.c      ****         char textBuffer[128];
 1254              		.loc 1 328 0
 1255 01cc E06A     		ldr	r0, [r4, #44]
 1256 01ce 696B     		ldr	r1, [r5, #52]
 1257 01d0 42F6F872 		movw	r2, #12280
 1258 01d4 FFF7FEFF 		bl	FS_Read
 1259              	.LVL190:
 1260 01d8 4008     		lsrs	r0, r0, #1
 1261 01da A062     		str	r0, [r4, #40]
 330:.\main.c      ****         
ARM GAS  C:\Users\student\AppData\Local\Temp\cc7xlRSM.s 			page 33


 1262              		.loc 1 330 0
 1263 01dc 626A     		ldr	r2, [r4, #36]
 1264 01de 6846     		mov	r0, sp
 1265 01e0 1D49     		ldr	r1, .L66+60
 1266 01e2 FFF7FEFF 		bl	sprintf
 1267              	.LVL191:
 332:.\main.c      ****         if (currentBufferFill > 0) {
 1268              		.loc 1 332 0
 1269 01e6 6846     		mov	r0, sp
 1270 01e8 0A21     		movs	r1, #10
 1271 01ea 4FF48C72 		mov	r2, #280
 1272 01ee FFF7FEFF 		bl	GUI_DispStringAt
 1273              	.LVL192:
 333:.\main.c      ****             GUI_DispStringAt("Data loaded into buffer", 10, 150);
 1274              		.loc 1 333 0
 1275 01f2 636A     		ldr	r3, [r4, #36]
 1276 01f4 2BB1     		cbz	r3, .L62
 334:.\main.c      ****         } else {
 1277              		.loc 1 334 0
 1278 01f6 1948     		ldr	r0, .L66+64
 1279 01f8 0A21     		movs	r1, #10
 1280 01fa 9622     		movs	r2, #150
 1281 01fc FFF7FEFF 		bl	GUI_DispStringAt
 1282              	.LVL193:
 1283 0200 0AE0     		b	.L48
 1284              	.L62:
 336:.\main.c      ****         }
 1285              		.loc 1 336 0
 1286 0202 1748     		ldr	r0, .L66+68
 1287 0204 0A21     		movs	r1, #10
 1288 0206 AA22     		movs	r2, #170
 1289 0208 FFF7FEFF 		bl	GUI_DispStringAt
 1290              	.LVL194:
 1291 020c 04E0     		b	.L48
 1292              	.L61:
 1293              	.LBE5:
 339:.\main.c      ****     }
 1294              		.loc 1 339 0
 1295 020e 1548     		ldr	r0, .L66+72
 1296 0210 0A21     		movs	r1, #10
 1297 0212 8222     		movs	r2, #130
 1298 0214 FFF7FEFF 		bl	GUI_DispStringAt
 1299              	.LVL195:
 1300              	.L48:
 341:.\main.c      **** 
 1301              		.loc 1 341 0
 1302 0218 73B0     		add	sp, sp, #460
 1303              		.cfi_def_cfa_offset 12
 1304              		@ sp needed
 1305 021a 30BD     		pop	{r4, r5, pc}
 1306              	.L67:
 1307              		.align	2
 1308              	.L66:
 1309 021c F8000000 		.word	.LC13
 1310 0220 08010000 		.word	.LC14
 1311 0224 24010000 		.word	.LC15
 1312 0228 28010000 		.word	.LC16
ARM GAS  C:\Users\student\AppData\Local\Temp\cc7xlRSM.s 			page 34


 1313 022c 3C010000 		.word	.LC17
 1314 0230 4C010000 		.word	.LC18
 1315 0234 08000000 		.word	.LANCHOR0+8
 1316 0238 58010000 		.word	.LC19
 1317 023c 64010000 		.word	.LC20
 1318 0240 68010000 		.word	.LC21
 1319 0244 70010000 		.word	.LC22
 1320 0248 80010000 		.word	.LC23
 1321 024c 00000000 		.word	.LANCHOR1
 1322 0250 84010000 		.word	.LC24
 1323 0254 00000000 		.word	.LANCHOR0
 1324 0258 A0010000 		.word	.LC25
 1325 025c B0010000 		.word	.LC26
 1326 0260 C8010000 		.word	.LC27
 1327 0264 DC010000 		.word	.LC28
 1328 0268 20000000 		.word	.LANCHOR0+32
 1329              		.cfi_endproc
 1330              	.LFE68:
 1331              		.size	InitializeAudioFile, .-InitializeAudioFile
 1332              		.global	__aeabi_d2iz
 1333              		.section	.text.playAudio,"ax",%progbits
 1334              		.align	2
 1335              		.global	playAudio
 1336              		.thumb
 1337              		.thumb_func
 1338              		.type	playAudio, %function
 1339              	playAudio:
 1340              	.LFB69:
 343:.\main.c      ****     signed short int signedSample1 = currentBuffer1[audioSampleIndex];
 1341              		.loc 1 343 0
 1342              		.cfi_startproc
 1343              		@ args = 0, pretend = 0, frame = 0
 1344              		@ frame_needed = 0, uses_anonymous_args = 0
 1345 0000 2DE9F843 		push	{r3, r4, r5, r6, r7, r8, r9, lr}
 1346              		.cfi_def_cfa_offset 32
 1347              		.cfi_offset 3, -32
 1348              		.cfi_offset 4, -28
 1349              		.cfi_offset 5, -24
 1350              		.cfi_offset 6, -20
 1351              		.cfi_offset 7, -16
 1352              		.cfi_offset 8, -12
 1353              		.cfi_offset 9, -8
 1354              		.cfi_offset 14, -4
 344:.\main.c      ****     signed short int signedSample2 = currentBuffer2[audioSampleIndex];
 1355              		.loc 1 344 0
 1356 0004 284C     		ldr	r4, .L74+8
 1357 0006 226B     		ldr	r2, [r4, #48]
 1358 0008 284D     		ldr	r5, .L74+12
 1359 000a AB69     		ldr	r3, [r5, #24]
 1360 000c 33F81290 		ldrh	r9, [r3, r2, lsl #1]
 1361              	.LVL196:
 345:.\main.c      ****     
 1362              		.loc 1 345 0
 1363 0010 226B     		ldr	r2, [r4, #48]
 1364 0012 2B6B     		ldr	r3, [r5, #48]
 1365 0014 33F81270 		ldrh	r7, [r3, r2, lsl #1]
 1366              	.LVL197:
ARM GAS  C:\Users\student\AppData\Local\Temp\cc7xlRSM.s 			page 35


 348:.\main.c      ****     float scalingFactor1 = volumeControlCoef1 / totalVolumeControl;
 1367              		.loc 1 348 0
 1368 0018 6868     		ldr	r0, [r5, #4]	@ float
 1369 001a A168     		ldr	r1, [r4, #8]	@ float
 1370 001c FFF7FEFF 		bl	__aeabi_fadd
 1371              	.LVL198:
 1372 0020 0646     		mov	r6, r0
 1373              	.LVL199:
 349:.\main.c      ****     float scalingFactor2 = volumeControlCoef2 / totalVolumeControl;
 1374              		.loc 1 349 0
 1375 0022 6868     		ldr	r0, [r5, #4]	@ float
 1376              	.LVL200:
 1377 0024 3146     		mov	r1, r6
 1378 0026 FFF7FEFF 		bl	__aeabi_fdiv
 1379              	.LVL201:
 1380 002a 8046     		mov	r8, r0
 1381              	.LVL202:
 350:.\main.c      ****     signedSample1 = (signed short int)(signedSample1 * scalingFactor1);
 1382              		.loc 1 350 0
 1383 002c A068     		ldr	r0, [r4, #8]	@ float
 1384              	.LVL203:
 1385 002e 3146     		mov	r1, r6
 1386 0030 FFF7FEFF 		bl	__aeabi_fdiv
 1387              	.LVL204:
 1388 0034 0546     		mov	r5, r0
 1389              	.LVL205:
 351:.\main.c      ****     signedSample2 = (signed short int)(signedSample2 * scalingFactor2);
 1390              		.loc 1 351 0
 1391 0036 0FFA89F0 		sxth	r0, r9
 1392              	.LVL206:
 1393 003a FFF7FEFF 		bl	__aeabi_i2f
 1394              	.LVL207:
 1395 003e 4146     		mov	r1, r8
 1396 0040 FFF7FEFF 		bl	__aeabi_fmul
 1397              	.LVL208:
 1398 0044 FFF7FEFF 		bl	__aeabi_f2iz
 1399              	.LVL209:
 1400 0048 84B2     		uxth	r4, r0
 1401              	.LVL210:
 352:.\main.c      ****     
 1402              		.loc 1 352 0
 1403 004a 38B2     		sxth	r0, r7
 1404 004c FFF7FEFF 		bl	__aeabi_i2f
 1405              	.LVL211:
 1406 0050 2946     		mov	r1, r5
 1407 0052 FFF7FEFF 		bl	__aeabi_fmul
 1408              	.LVL212:
 1409 0056 FFF7FEFF 		bl	__aeabi_f2iz
 1410              	.LVL213:
 354:.\main.c      ****     
 1411              		.loc 1 354 0
 1412 005a 24B2     		sxth	r4, r4
 1413 005c 00B2     		sxth	r0, r0
 1414 005e 2044     		add	r0, r0, r4
 1415              	.LVL214:
 1416 0060 FFF7FEFF 		bl	__aeabi_i2d
 1417              	.LVL215:
ARM GAS  C:\Users\student\AppData\Local\Temp\cc7xlRSM.s 			page 36


 1418 0064 0EA3     		adr	r3, .L74
 1419 0066 D3E90023 		ldrd	r2, [r3]
 1420 006a FFF7FEFF 		bl	__aeabi_dmul
 1421              	.LVL216:
 1422 006e FFF7FEFF 		bl	__aeabi_d2iz
 1423              	.LVL217:
 356:.\main.c      ****     if (mixedSample < -32768) mixedSample = -32768;
 1424              		.loc 1 356 0
 1425 0072 B0F5004F 		cmp	r0, #32768
 1426 0076 01DB     		blt	.L69
 1427 0078 47F6FF70 		movw	r0, #32767
 1428              	.LVL218:
 1429              	.L69:
 357:.\main.c      ****     //signedSample *= volumeControlCoef;
 1430              		.loc 1 357 0
 1431 007c 10F5004F 		cmn	r0, #32768
 1432 0080 00DA     		bge	.L70
 1433 0082 0B48     		ldr	r0, .L74+16
 1434              	.LVL219:
 1435              	.L70:
 359:.\main.c      ****     //adjustVolume(&adjustedSample, 0.3); // Adjust volume
 1436              		.loc 1 359 0
 1437 0084 A0F50040 		sub	r0, r0, #32768
 1438              	.LVL220:
 362:.\main.c      ****     SPIM_Audio_WriteTxData(adjustedSample);
 1439              		.loc 1 362 0
 1440 0088 074A     		ldr	r2, .L74+8
 1441 008a 136B     		ldr	r3, [r2, #48]
 1442 008c 0133     		adds	r3, r3, #1
 1443 008e 1363     		str	r3, [r2, #48]
 363:.\main.c      **** }
 1444              		.loc 1 363 0
 1445 0090 80B2     		uxth	r0, r0
 1446              	.LVL221:
 1447 0092 FFF7FEFF 		bl	SPIM_Audio_WriteTxData
 1448              	.LVL222:
 1449 0096 BDE8F883 		pop	{r3, r4, r5, r6, r7, r8, r9, pc}
 1450              	.LVL223:
 1451              	.L75:
 1452 009a 00BFAFF3 		.align	3
 1452      0080
 1453              	.L74:
 1454 00a0 33333333 		.word	858993459
 1455 00a4 3333EB3F 		.word	1072378675
 1456 00a8 00000000 		.word	.LANCHOR1
 1457 00ac 00000000 		.word	.LANCHOR0
 1458 00b0 0080FFFF 		.word	-32768
 1459              		.cfi_endproc
 1460              	.LFE69:
 1461              		.size	playAudio, .-playAudio
 1462 00b4 AFF30080 		.section	.text.audioTimerISRHandler,"ax",%progbits
 1463              		.align	2
 1464              		.global	audioTimerISRHandler
 1465              		.thumb
 1466              		.thumb_func
 1467              		.type	audioTimerISRHandler, %function
 1468              	audioTimerISRHandler:
ARM GAS  C:\Users\student\AppData\Local\Temp\cc7xlRSM.s 			page 37


 1469              	.LFB70:
 366:.\main.c      ****     if (!fileEnd1) {
 1470              		.loc 1 366 0
 1471              		.cfi_startproc
 1472              		@ args = 0, pretend = 0, frame = 0
 1473              		@ frame_needed = 0, uses_anonymous_args = 0
 1474 0000 08B5     		push	{r3, lr}
 1475              		.cfi_def_cfa_offset 8
 1476              		.cfi_offset 3, -8
 1477              		.cfi_offset 14, -4
 367:.\main.c      ****     	if (audioSampleIndex >= AUDIO_BUFFER_SIZE) {
 1478              		.loc 1 367 0
 1479 0002 0E4B     		ldr	r3, .L80
 1480 0004 1B68     		ldr	r3, [r3]
 1481 0006 ABB9     		cbnz	r3, .L77
 368:.\main.c      ****             audioSampleIndex = 0;
 1482              		.loc 1 368 0
 1483 0008 0C4B     		ldr	r3, .L80
 1484 000a 1A6B     		ldr	r2, [r3, #48]
 1485 000c 41F2FB73 		movw	r3, #6139
 1486 0010 9A42     		cmp	r2, r3
 1487 0012 0DD9     		bls	.L78
 1488              	.LBB6:
 369:.\main.c      ****             switchBuffers = 0x1;
 1489              		.loc 1 369 0
 1490 0014 094B     		ldr	r3, .L80
 1491 0016 0022     		movs	r2, #0
 1492 0018 1A63     		str	r2, [r3, #48]
 370:.\main.c      ****             // Switch the pointers of the buffers
 1493              		.loc 1 370 0
 1494 001a 0122     		movs	r2, #1
 1495 001c 5A63     		str	r2, [r3, #52]
 372:.\main.c      ****             currentBuffer1 = loadingBuffer1;
 1496              		.loc 1 372 0
 1497 001e 084B     		ldr	r3, .L80+4
 1498 0020 9A69     		ldr	r2, [r3, #24]
 1499              	.LVL224:
 373:.\main.c      ****             loadingBuffer1 = temp;
 1500              		.loc 1 373 0
 1501 0022 D969     		ldr	r1, [r3, #28]
 1502 0024 9961     		str	r1, [r3, #24]
 374:.\main.c      ****             temp = currentBuffer2;
 1503              		.loc 1 374 0
 1504 0026 DA61     		str	r2, [r3, #28]
 375:.\main.c      ****             currentBuffer2 = loadingBuffer2;
 1505              		.loc 1 375 0
 1506 0028 1A6B     		ldr	r2, [r3, #48]
 1507              	.LVL225:
 376:.\main.c      ****             loadingBuffer2 = temp;
 1508              		.loc 1 376 0
 1509 002a 596B     		ldr	r1, [r3, #52]
 1510 002c 1963     		str	r1, [r3, #48]
 377:.\main.c      ****     	}
 1511              		.loc 1 377 0
 1512 002e 5A63     		str	r2, [r3, #52]
 1513              	.LVL226:
 1514              	.L78:
ARM GAS  C:\Users\student\AppData\Local\Temp\cc7xlRSM.s 			page 38


 1515              	.LBE6:
 379:.\main.c      ****     }
 1516              		.loc 1 379 0
 1517 0030 FFF7FEFF 		bl	playAudio
 1518              	.LVL227:
 1519              	.L77:
 382:.\main.c      **** }
 1520              		.loc 1 382 0
 1521 0034 FFF7FEFF 		bl	AudioTimer_ReadStatusRegister
 1522              	.LVL228:
 1523 0038 08BD     		pop	{r3, pc}
 1524              	.L81:
 1525 003a 00BF     		.align	2
 1526              	.L80:
 1527 003c 00000000 		.word	.LANCHOR1
 1528 0040 00000000 		.word	.LANCHOR0
 1529              		.cfi_endproc
 1530              	.LFE70:
 1531              		.size	audioTimerISRHandler, .-audioTimerISRHandler
 1532              		.section	.text.MPU_ByteWriteL,"ax",%progbits
 1533              		.align	2
 1534              		.global	MPU_ByteWriteL
 1535              		.thumb
 1536              		.thumb_func
 1537              		.type	MPU_ByteWriteL, %function
 1538              	MPU_ByteWriteL:
 1539              	.LFB73:
 427:.\main.c      **** }
 428:.\main.c      **** 
 429:.\main.c      **** void MPU_ByteWriteL(uint8_t reg, uint8_t byte){
 1540              		.loc 1 429 0
 1541              		.cfi_startproc
 1542              		@ args = 0, pretend = 0, frame = 0
 1543              		@ frame_needed = 0, uses_anonymous_args = 0
 1544              	.LVL229:
 1545 0000 38B5     		push	{r3, r4, r5, lr}
 1546              		.cfi_def_cfa_offset 16
 1547              		.cfi_offset 3, -16
 1548              		.cfi_offset 4, -12
 1549              		.cfi_offset 5, -8
 1550              		.cfi_offset 14, -4
 1551 0002 0546     		mov	r5, r0
 1552 0004 0C46     		mov	r4, r1
 430:.\main.c      ****     /* Writes a single Byte to the I2C device at address 0x68.
 431:.\main.c      ****     parameters:
 432:.\main.c      ****         uint8_t reg: the register on the device to write to
 433:.\main.c      ****         uint8_t byte: the byte to be written
 434:.\main.c      ****     
 435:.\main.c      ****     returns:
 436:.\main.c      ****         void
 437:.\main.c      ****     */
 438:.\main.c      ****     
 439:.\main.c      ****     I2C_MASTER_L_MasterSendStart(0x68, 0);      //start a write to the MPU to begin the transaction
 1553              		.loc 1 439 0
 1554 0006 6820     		movs	r0, #104
 1555              	.LVL230:
 1556 0008 0021     		movs	r1, #0
ARM GAS  C:\Users\student\AppData\Local\Temp\cc7xlRSM.s 			page 39


 1557              	.LVL231:
 1558 000a FFF7FEFF 		bl	I2C_MASTER_L_MasterSendStart
 1559              	.LVL232:
 440:.\main.c      ****     I2C_MASTER_L_MasterWriteByte(reg);          //send the address of the register we want to write
 1560              		.loc 1 440 0
 1561 000e 2846     		mov	r0, r5
 1562 0010 FFF7FEFF 		bl	I2C_MASTER_L_MasterWriteByte
 1563              	.LVL233:
 441:.\main.c      ****     I2C_MASTER_L_MasterWriteByte(byte);         //send the byte
 1564              		.loc 1 441 0
 1565 0014 2046     		mov	r0, r4
 1566 0016 FFF7FEFF 		bl	I2C_MASTER_L_MasterWriteByte
 1567              	.LVL234:
 442:.\main.c      ****     I2C_MASTER_L_MasterSendStop();              //send the stop signal to end the transaction
 1568              		.loc 1 442 0
 1569 001a FFF7FEFF 		bl	I2C_MASTER_L_MasterSendStop
 1570              	.LVL235:
 1571 001e 38BD     		pop	{r3, r4, r5, pc}
 1572              		.cfi_endproc
 1573              	.LFE73:
 1574              		.size	MPU_ByteWriteL, .-MPU_ByteWriteL
 1575              		.section	.text.main,"ax",%progbits
 1576              		.align	2
 1577              		.global	main
 1578              		.thumb
 1579              		.thumb_func
 1580              		.type	main, %function
 1581              	main:
 1582              	.LFB74:
 443:.\main.c      **** }
 444:.\main.c      **** 
 445:.\main.c      **** int main()
 446:.\main.c      **** {
 1583              		.loc 1 446 0
 1584              		.cfi_startproc
 1585              		@ args = 0, pretend = 0, frame = 0
 1586              		@ frame_needed = 0, uses_anonymous_args = 0
 1587 0000 F8B5     		push	{r3, r4, r5, r6, r7, lr}
 1588              		.cfi_def_cfa_offset 24
 1589              		.cfi_offset 3, -24
 1590              		.cfi_offset 4, -20
 1591              		.cfi_offset 5, -16
 1592              		.cfi_offset 6, -12
 1593              		.cfi_offset 7, -8
 1594              		.cfi_offset 14, -4
 447:.\main.c      **** 	CyGlobalIntEnable; /* Enable global interrupts. */
 1595              		.loc 1 447 0
 1596              	@ 447 ".\main.c" 1
 1597 0002 62B6     		CPSIE   i
 1598              	@ 0 "" 2
 448:.\main.c      ****     
 449:.\main.c      **** 	/* Place your initialization/startup code here (e.g. MyInst_Start()) */
 450:.\main.c      **** 	SPIM_Audio_Start();
 1599              		.loc 1 450 0
 1600              		.thumb
 1601 0004 FFF7FEFF 		bl	SPIM_Audio_Start
 1602              	.LVL236:
ARM GAS  C:\Users\student\AppData\Local\Temp\cc7xlRSM.s 			page 40


 451:.\main.c      **** 	GUI_Initialize();
 1603              		.loc 1 451 0
 1604 0008 FFF7FEFF 		bl	GUI_Initialize
 1605              	.LVL237:
 452:.\main.c      ****     InitializeAudioFile();
 1606              		.loc 1 452 0
 1607 000c FFF7FEFF 		bl	InitializeAudioFile
 1608              	.LVL238:
 453:.\main.c      ****     AudioTimer_Start();
 1609              		.loc 1 453 0
 1610 0010 FFF7FEFF 		bl	AudioTimer_Start
 1611              	.LVL239:
 454:.\main.c      **** 	audiotimer_isr_StartEx(audioTimerISRHandler); // start the ISR
 1612              		.loc 1 454 0
 1613 0014 6448     		ldr	r0, .L98
 1614 0016 FFF7FEFF 		bl	audiotimer_isr_StartEx
 1615              	.LVL240:
 455:.\main.c      ****     
 456:.\main.c      ****     GUI_Clear();
 1616              		.loc 1 456 0
 1617 001a FFF7FEFF 		bl	GUI_Clear
 1618              	.LVL241:
 457:.\main.c      ****     GUI_DispStringAt("Dynamix", 100, 10);
 1619              		.loc 1 457 0
 1620 001e 6348     		ldr	r0, .L98+4
 1621 0020 6421     		movs	r1, #100
 1622 0022 0A22     		movs	r2, #10
 1623 0024 FFF7FEFF 		bl	GUI_DispStringAt
 1624              	.LVL242:
 458:.\main.c      ****     GUI_DispStringAt("Time: 00:00", 80, 30);
 1625              		.loc 1 458 0
 1626 0028 6148     		ldr	r0, .L98+8
 1627 002a 5021     		movs	r1, #80
 1628 002c 1E22     		movs	r2, #30
 1629 002e FFF7FEFF 		bl	GUI_DispStringAt
 1630              	.LVL243:
 459:.\main.c      ****     sprintf(volumeControlString1, "Volume: %02u%% ", (uint16)(100*volumeControlCoef1));
 1631              		.loc 1 459 0
 1632 0032 604C     		ldr	r4, .L98+12
 1633 0034 6068     		ldr	r0, [r4, #4]	@ float
 1634 0036 6049     		ldr	r1, .L98+16
 1635 0038 FFF7FEFF 		bl	__aeabi_fmul
 1636              	.LVL244:
 1637 003c FFF7FEFF 		bl	__aeabi_f2uiz
 1638              	.LVL245:
 1639 0040 82B2     		uxth	r2, r0
 1640 0042 5E4D     		ldr	r5, .L98+20
 1641 0044 5E4F     		ldr	r7, .L98+24
 1642 0046 2846     		mov	r0, r5
 1643 0048 3946     		mov	r1, r7
 1644 004a FFF7FEFF 		bl	sprintf
 1645              	.LVL246:
 460:.\main.c      ****     GUI_DispStringAt(volumeControlString1, 20, 50);
 1646              		.loc 1 460 0
 1647 004e 2846     		mov	r0, r5
 1648 0050 1421     		movs	r1, #20
 1649 0052 3222     		movs	r2, #50
ARM GAS  C:\Users\student\AppData\Local\Temp\cc7xlRSM.s 			page 41


 1650 0054 FFF7FEFF 		bl	GUI_DispStringAt
 1651              	.LVL247:
 461:.\main.c      ****     sprintf(volumeControlString2, "Volume: %02u%% ", (uint16)(100*volumeControlCoef2));
 1652              		.loc 1 461 0
 1653 0058 5A4D     		ldr	r5, .L98+28
 1654 005a A868     		ldr	r0, [r5, #8]	@ float
 1655 005c 5649     		ldr	r1, .L98+16
 1656 005e FFF7FEFF 		bl	__aeabi_fmul
 1657              	.LVL248:
 1658 0062 FFF7FEFF 		bl	__aeabi_f2uiz
 1659              	.LVL249:
 1660 0066 82B2     		uxth	r2, r0
 1661 0068 574E     		ldr	r6, .L98+32
 1662 006a 3046     		mov	r0, r6
 1663 006c 3946     		mov	r1, r7
 1664 006e FFF7FEFF 		bl	sprintf
 1665              	.LVL250:
 462:.\main.c      ****     GUI_DispStringAt(volumeControlString2, 120, 50);
 1666              		.loc 1 462 0
 1667 0072 3046     		mov	r0, r6
 1668 0074 7821     		movs	r1, #120
 1669 0076 3222     		movs	r2, #50
 1670 0078 FFF7FEFF 		bl	GUI_DispStringAt
 1671              	.LVL251:
 463:.\main.c      ****     
 464:.\main.c      ****     DisplayAmplitudeBar(currentBuffer1, AUDIO_BUFFER_SIZE, TRACK_1);
 1672              		.loc 1 464 0
 1673 007c A069     		ldr	r0, [r4, #24]
 1674 007e 41F2FC71 		movw	r1, #6140
 1675 0082 0022     		movs	r2, #0
 1676 0084 FFF7FEFF 		bl	DisplayAmplitudeBar
 1677              	.LVL252:
 465:.\main.c      ****     DisplayAmplitudeBar(currentBuffer2, AUDIO_BUFFER_SIZE, TRACK_2);
 1678              		.loc 1 465 0
 1679 0088 206B     		ldr	r0, [r4, #48]
 1680 008a 41F2FC71 		movw	r1, #6140
 1681 008e 0122     		movs	r2, #1
 1682 0090 FFF7FEFF 		bl	DisplayAmplitudeBar
 1683              	.LVL253:
 466:.\main.c      ****     uint16_t numSecs = (overall_size-44) / SAMPLE_RATE / sizeof(uint16);
 1684              		.loc 1 466 0
 1685 0094 EB68     		ldr	r3, [r5, #12]
 1686              	.LVL254:
 467:.\main.c      ****     
 468:.\main.c      ****     Get_ADCs_Timer_Start();
 1687              		.loc 1 468 0
 1688 0096 FFF7FEFF 		bl	Get_ADCs_Timer_Start
 1689              	.LVL255:
 469:.\main.c      ****     ADC_FlexSensor_L_Start();
 1690              		.loc 1 469 0
 1691 009a FFF7FEFF 		bl	ADC_FlexSensor_L_Start
 1692              	.LVL256:
 470:.\main.c      ****     TimeStamp_Timer_Start();
 1693              		.loc 1 470 0
 1694 009e FFF7FEFF 		bl	TimeStamp_Timer_Start
 1695              	.LVL257:
 471:.\main.c      ****     ADC_FlexSensor_R_Start();
ARM GAS  C:\Users\student\AppData\Local\Temp\cc7xlRSM.s 			page 42


 1696              		.loc 1 471 0
 1697 00a2 FFF7FEFF 		bl	ADC_FlexSensor_R_Start
 1698              	.LVL258:
 472:.\main.c      ****     timestamp_timer_isr_StartEx(updateSecondsTimer);
 1699              		.loc 1 472 0
 1700 00a6 4948     		ldr	r0, .L98+36
 1701 00a8 FFF7FEFF 		bl	timestamp_timer_isr_StartEx
 1702              	.LVL259:
 473:.\main.c      ****     I2C_MASTER_L_Start();
 1703              		.loc 1 473 0
 1704 00ac FFF7FEFF 		bl	I2C_MASTER_L_Start
 1705              	.LVL260:
 474:.\main.c      ****     I2C_MASTER_L_MasterSendStart(0x68, 0);      //starts an I2C write. The address of the MPU is 0x
 1706              		.loc 1 474 0
 1707 00b0 6820     		movs	r0, #104
 1708 00b2 0021     		movs	r1, #0
 1709 00b4 FFF7FEFF 		bl	I2C_MASTER_L_MasterSendStart
 1710              	.LVL261:
 475:.\main.c      ****     I2C_MASTER_L_MasterWriteByte(0x1A);         //writes the address of the target register. 1A is 
 1711              		.loc 1 475 0
 1712 00b8 1A20     		movs	r0, #26
 1713 00ba FFF7FEFF 		bl	I2C_MASTER_L_MasterWriteByte
 1714              	.LVL262:
 476:.\main.c      ****     I2C_MASTER_L_MasterWriteByte(0x00);         //writes sets the frame sync to disabled and the DL
 1715              		.loc 1 476 0
 1716 00be 0020     		movs	r0, #0
 1717 00c0 FFF7FEFF 		bl	I2C_MASTER_L_MasterWriteByte
 1718              	.LVL263:
 477:.\main.c      ****     I2C_MASTER_L_MasterSendStop();              //stops an I2C transaction.
 1719              		.loc 1 477 0
 1720 00c4 FFF7FEFF 		bl	I2C_MASTER_L_MasterSendStop
 1721              	.LVL264:
 478:.\main.c      ****     
 479:.\main.c      ****     MPU_ByteWriteL(0x6B, 0x00);  //takes the MPU out of sleep mode
 1722              		.loc 1 479 0
 1723 00c8 6B20     		movs	r0, #107
 1724 00ca 0021     		movs	r1, #0
 1725 00cc FFF7FEFF 		bl	MPU_ByteWriteL
 1726              	.LVL265:
 480:.\main.c      ****     MPU_ByteWriteL(0x1C, 0x00);  //sets the accelerometer to +/- 2 gees range
 1727              		.loc 1 480 0
 1728 00d0 1C20     		movs	r0, #28
 1729 00d2 0021     		movs	r1, #0
 1730 00d4 FFF7FEFF 		bl	MPU_ByteWriteL
 1731              	.LVL266:
 481:.\main.c      ****     MPU_ByteWriteL(0x23, 0x00);  //disables FIFO buffer and DLPF
 1732              		.loc 1 481 0
 1733 00d8 2320     		movs	r0, #35
 1734 00da 0021     		movs	r1, #0
 1735 00dc FFF7FEFF 		bl	MPU_ByteWriteL
 1736              	.LVL267:
 482:.\main.c      ****     
 483:.\main.c      ****     get_adcs_isr_StartEx(getADCs);
 1737              		.loc 1 483 0
 1738 00e0 3B48     		ldr	r0, .L98+40
 1739 00e2 FFF7FEFF 		bl	get_adcs_isr_StartEx
 1740              	.LVL268:
ARM GAS  C:\Users\student\AppData\Local\Temp\cc7xlRSM.s 			page 43


 484:.\main.c      ****     
 485:.\main.c      ****     int bufferCount = 1;
 1741              		.loc 1 485 0
 1742 00e6 0124     		movs	r4, #1
 1743              	.LVL269:
 1744              	.L86:
 486:.\main.c      **** 	for(;;)
 487:.\main.c      **** 	{
 488:.\main.c      ****     	/* Place your application code here. */
 489:.\main.c      ****         if (switchBuffers && (!fileEnd1 || !fileEnd2)) {
 1745              		.loc 1 489 0
 1746 00e8 364B     		ldr	r3, .L98+28
 1747 00ea 5B6B     		ldr	r3, [r3, #52]
 1748 00ec 002B     		cmp	r3, #0
 1749 00ee FBD0     		beq	.L86
 1750              		.loc 1 489 0 is_stmt 0 discriminator 1
 1751 00f0 344B     		ldr	r3, .L98+28
 1752 00f2 1B68     		ldr	r3, [r3]
 1753 00f4 1BB1     		cbz	r3, .L87
 1754              		.loc 1 489 0 discriminator 2
 1755 00f6 334B     		ldr	r3, .L98+28
 1756 00f8 5B68     		ldr	r3, [r3, #4]
 1757 00fa 002B     		cmp	r3, #0
 1758 00fc F4D1     		bne	.L86
 1759              	.L87:
 1760              	.LVL270:
 1761              	.LBB7:
 490:.\main.c      ****             // Load new data into the buffer that is not currently in use
 491:.\main.c      ****             size_t bytesRead1 = 0;
 492:.\main.c      ****             size_t bytesRead2 = 0;
 493:.\main.c      ****             if (!fileEnd1) bytesRead1 = FS_Read(audioFile1, loadingBuffer1, AUDIO_BUFFER_SIZE * siz
 1762              		.loc 1 493 0 is_stmt 1
 1763 00fe 314B     		ldr	r3, .L98+28
 1764 0100 1B68     		ldr	r3, [r3]
 1765 0102 4BB9     		cbnz	r3, .L95
 1766              		.loc 1 493 0 is_stmt 0 discriminator 1
 1767 0104 2F4B     		ldr	r3, .L98+28
 1768 0106 186A     		ldr	r0, [r3, #32]
 1769 0108 2A4B     		ldr	r3, .L98+12
 1770 010a D969     		ldr	r1, [r3, #28]
 1771 010c 42F6F872 		movw	r2, #12280
 1772 0110 FFF7FEFF 		bl	FS_Read
 1773              	.LVL271:
 1774 0114 4508     		lsrs	r5, r0, #1
 1775              	.LVL272:
 1776 0116 00E0     		b	.L89
 1777              	.LVL273:
 1778              	.L95:
 491:.\main.c      ****             size_t bytesRead2 = 0;
 1779              		.loc 1 491 0 is_stmt 1
 1780 0118 0025     		movs	r5, #0
 1781              	.LVL274:
 1782              	.L89:
 494:.\main.c      ****             if (!fileEnd2) bytesRead2 = FS_Read(audioFile2, loadingBuffer2, AUDIO_BUFFER_SIZE * siz
 1783              		.loc 1 494 0
 1784 011a 2A4B     		ldr	r3, .L98+28
 1785 011c 5B68     		ldr	r3, [r3, #4]
ARM GAS  C:\Users\student\AppData\Local\Temp\cc7xlRSM.s 			page 44


 1786 011e 4BB9     		cbnz	r3, .L96
 1787              		.loc 1 494 0 is_stmt 0 discriminator 1
 1788 0120 284B     		ldr	r3, .L98+28
 1789 0122 D86A     		ldr	r0, [r3, #44]
 1790 0124 234B     		ldr	r3, .L98+12
 1791 0126 596B     		ldr	r1, [r3, #52]
 1792 0128 42F6F872 		movw	r2, #12280
 1793 012c FFF7FEFF 		bl	FS_Read
 1794              	.LVL275:
 1795 0130 4008     		lsrs	r0, r0, #1
 1796              	.LVL276:
 1797 0132 00E0     		b	.L90
 1798              	.LVL277:
 1799              	.L96:
 492:.\main.c      ****             if (!fileEnd1) bytesRead1 = FS_Read(audioFile1, loadingBuffer1, AUDIO_BUFFER_SIZE * siz
 1800              		.loc 1 492 0 is_stmt 1
 1801 0134 0020     		movs	r0, #0
 1802              	.LVL278:
 1803              	.L90:
 495:.\main.c      ****             if (bytesRead1 == 0 && !fileEnd1) {
 1804              		.loc 1 495 0
 1805 0136 2DB9     		cbnz	r5, .L91
 1806              		.loc 1 495 0 is_stmt 0 discriminator 1
 1807 0138 224B     		ldr	r3, .L98+28
 1808 013a 1B68     		ldr	r3, [r3]
 1809 013c 13B9     		cbnz	r3, .L91
 496:.\main.c      ****                 // Buffer underflow, handle error or wait
 497:.\main.c      ****                 fileEnd1 = 0x1;
 1810              		.loc 1 497 0 is_stmt 1
 1811 013e 0122     		movs	r2, #1
 1812 0140 204B     		ldr	r3, .L98+28
 1813 0142 1A60     		str	r2, [r3]
 1814              	.L91:
 498:.\main.c      ****             }
 499:.\main.c      ****             if (bytesRead2 == 0 && !fileEnd2) {
 1815              		.loc 1 499 0
 1816 0144 28B9     		cbnz	r0, .L92
 1817              		.loc 1 499 0 is_stmt 0 discriminator 1
 1818 0146 1F4B     		ldr	r3, .L98+28
 1819 0148 5B68     		ldr	r3, [r3, #4]
 1820 014a 13B9     		cbnz	r3, .L92
 500:.\main.c      ****                 // Buffer underflow, handle error or wait
 501:.\main.c      ****                 fileEnd2 = 0x1;
 1821              		.loc 1 501 0 is_stmt 1
 1822 014c 0122     		movs	r2, #1
 1823 014e 1D4B     		ldr	r3, .L98+28
 1824 0150 5A60     		str	r2, [r3, #4]
 1825              	.L92:
 502:.\main.c      ****             }
 503:.\main.c      ****             if (fileEnd1 && fileEnd2) {
 1826              		.loc 1 503 0
 1827 0152 1C4B     		ldr	r3, .L98+28
 1828 0154 1B68     		ldr	r3, [r3]
 1829 0156 93B1     		cbz	r3, .L93
 1830              		.loc 1 503 0 is_stmt 0 discriminator 1
 1831 0158 1A4B     		ldr	r3, .L98+28
 1832 015a 5B68     		ldr	r3, [r3, #4]
ARM GAS  C:\Users\student\AppData\Local\Temp\cc7xlRSM.s 			page 45


 1833 015c 7BB1     		cbz	r3, .L93
 504:.\main.c      ****                 GUI_SetColor(GUI_LIGHTBLUE);
 1834              		.loc 1 504 0 is_stmt 1
 1835 015e 1D48     		ldr	r0, .L98+44
 1836              	.LVL279:
 1837 0160 FFF7FEFF 		bl	GUI_SetColor
 1838              	.LVL280:
 505:.\main.c      ****                 GUI_DispStringAt("Playback complete!", 50, 300);
 1839              		.loc 1 505 0
 1840 0164 1C48     		ldr	r0, .L98+48
 1841 0166 3221     		movs	r1, #50
 1842 0168 4FF49672 		mov	r2, #300
 1843 016c FFF7FEFF 		bl	GUI_DispStringAt
 1844              	.LVL281:
 506:.\main.c      ****             	FS_FClose(audioFile1);
 1845              		.loc 1 506 0
 1846 0170 144B     		ldr	r3, .L98+28
 1847 0172 186A     		ldr	r0, [r3, #32]
 1848 0174 FFF7FEFF 		bl	FS_FClose
 1849              	.LVL282:
 507:.\main.c      ****             	FS_Unmount("0:");
 1850              		.loc 1 507 0
 1851 0178 1848     		ldr	r0, .L98+52
 1852 017a FFF7FEFF 		bl	FS_Unmount
 1853              	.LVL283:
 1854              	.L93:
 508:.\main.c      ****             }
 509:.\main.c      ****             switchBuffers = 0x0;
 1855              		.loc 1 509 0
 1856 017e 0022     		movs	r2, #0
 1857 0180 104B     		ldr	r3, .L98+28
 1858 0182 5A63     		str	r2, [r3, #52]
 510:.\main.c      ****             if (bufferCount >= SAMPLE_RATE * SECONDS_PER_BAR / AUDIO_BUFFER_SIZE) { // draw a bar e
 1859              		.loc 1 510 0
 1860 0184 062C     		cmp	r4, #6
 1861 0186 0DDD     		ble	.L94
 511:.\main.c      ****             	DisplayAmplitudeBar(currentBuffer1, AUDIO_BUFFER_SIZE, TRACK_1);
 1862              		.loc 1 511 0
 1863 0188 0A4C     		ldr	r4, .L98+12
 1864              	.LVL284:
 1865 018a A069     		ldr	r0, [r4, #24]
 1866 018c 41F2FC71 		movw	r1, #6140
 1867 0190 FFF7FEFF 		bl	DisplayAmplitudeBar
 1868              	.LVL285:
 512:.\main.c      ****             	DisplayAmplitudeBar(currentBuffer2, AUDIO_BUFFER_SIZE, TRACK_2);
 1869              		.loc 1 512 0
 1870 0194 206B     		ldr	r0, [r4, #48]
 1871 0196 41F2FC71 		movw	r1, #6140
 1872 019a 0122     		movs	r2, #1
 1873 019c FFF7FEFF 		bl	DisplayAmplitudeBar
 1874              	.LVL286:
 513:.\main.c      ****                 bufferCount = 0;
 1875              		.loc 1 513 0
 1876 01a0 0024     		movs	r4, #0
 1877 01a2 A1E7     		b	.L86
 1878              	.LVL287:
 1879              	.L94:
ARM GAS  C:\Users\student\AppData\Local\Temp\cc7xlRSM.s 			page 46


 514:.\main.c      ****             } else bufferCount++;
 1880              		.loc 1 514 0
 1881 01a4 0134     		adds	r4, r4, #1
 1882              	.LVL288:
 1883 01a6 9FE7     		b	.L86
 1884              	.L99:
 1885              		.align	2
 1886              	.L98:
 1887 01a8 00000000 		.word	audioTimerISRHandler
 1888 01ac F0010000 		.word	.LC29
 1889 01b0 F8010000 		.word	.LC30
 1890 01b4 00000000 		.word	.LANCHOR0
 1891 01b8 0000C842 		.word	1120403456
 1892 01bc 00000000 		.word	volumeControlString1
 1893 01c0 10000000 		.word	.LC1
 1894 01c4 00000000 		.word	.LANCHOR1
 1895 01c8 00000000 		.word	volumeControlString2
 1896 01cc 00000000 		.word	updateSecondsTimer
 1897 01d0 00000000 		.word	getADCs
 1898 01d4 8080FF00 		.word	16744576
 1899 01d8 04020000 		.word	.LC31
 1900 01dc 24010000 		.word	.LC15
 1901              	.LBE7:
 1902              		.cfi_endproc
 1903              	.LFE74:
 1904              		.size	main, .-main
 1905              		.comm	timeString,12,4
 1906              		.global	secondsCount
 1907              		.global	rectangleIndexTrackTwo
 1908              		.global	rectangleIndexTrackOne
 1909              		.comm	mpuString1,24,4
 1910              		.comm	geeForce,4,4
 1911              		.comm	combinedData,2,2
 1912              		.comm	bottomByte,1,1
 1913              		.comm	topByte,1,1
 1914              		.comm	volumeControlString2,128,4
 1915              		.comm	volumeControlString1,128,4
 1916              		.global	volumeControlCoef2
 1917              		.global	volumeControlCoef1
 1918              		.global	fileEnd2
 1919              		.global	fileEnd1
 1920              		.global	switchBuffers
 1921              		.global	loadingBufferFill
 1922              		.global	currentBufferFill
 1923              		.global	audioFile2
 1924              		.global	audioFile1
 1925              		.global	overall_size
 1926              		.global	file2
 1927              		.global	file1
 1928              		.global	loadingBuffer2
 1929              		.global	currentBuffer2
 1930              		.global	loadingBuffer1
 1931              		.global	currentBuffer1
 1932              		.comm	audioBuffer4,12280,4
 1933              		.comm	audioBuffer3,12280,4
 1934              		.comm	audioBuffer2,12280,4
 1935              		.comm	audioBuffer1,12280,4
ARM GAS  C:\Users\student\AppData\Local\Temp\cc7xlRSM.s 			page 47


 1936              		.global	audioSampleIndex
 1937              		.data
 1938              		.align	2
 1939              		.set	.LANCHOR0,. + 0
 1940              		.type	secondsCount, %object
 1941              		.size	secondsCount, 4
 1942              	secondsCount:
 1943 0000 01000000 		.word	1
 1944              		.type	volumeControlCoef1, %object
 1945              		.size	volumeControlCoef1, 4
 1946              	volumeControlCoef1:
 1947 0004 0000803F 		.word	1065353216
 1948              		.type	file1, %object
 1949              		.size	file1, 16
 1950              	file1:
 1951 0008 636C6172 		.ascii	"clarity.wav\000"
 1951      6974792E 
 1951      77617600 
 1952 0014 00000000 		.space	4
 1953              		.type	currentBuffer1, %object
 1954              		.size	currentBuffer1, 4
 1955              	currentBuffer1:
 1956 0018 00000000 		.word	audioBuffer1
 1957              		.type	loadingBuffer1, %object
 1958              		.size	loadingBuffer1, 4
 1959              	loadingBuffer1:
 1960 001c 00000000 		.word	audioBuffer2
 1961              		.type	file2, %object
 1962              		.size	file2, 14
 1963              	file2:
 1964 0020 64696579 		.ascii	"dieyoung.wav\000"
 1964      6F756E67 
 1964      2E776176 
 1964      00
 1965 002d 00       		.space	1
 1966 002e 0000     		.space	2
 1967              		.type	currentBuffer2, %object
 1968              		.size	currentBuffer2, 4
 1969              	currentBuffer2:
 1970 0030 00000000 		.word	audioBuffer3
 1971              		.type	loadingBuffer2, %object
 1972              		.size	loadingBuffer2, 4
 1973              	loadingBuffer2:
 1974 0034 00000000 		.word	audioBuffer4
 1975              		.section	.rodata.str1.4,"aMS",%progbits,1
 1976              		.align	2
 1977              	.LC0:
 1978 0000 54696D65 		.ascii	"Time: %02u:%02u\000"
 1978      3A202530 
 1978      32753A25 
 1978      30327500 
 1979              	.LC1:
 1980 0010 566F6C75 		.ascii	"Volume: %02u%% \000"
 1980      6D653A20 
 1980      25303275 
 1980      25252000 
 1981              	.LC2:
ARM GAS  C:\Users\student\AppData\Local\Temp\cc7xlRSM.s 			page 48


 1982 0020 44657363 		.ascii	"Descriptor: %c%c%c%c\000"
 1982      72697074 
 1982      6F723A20 
 1982      25632563 
 1982      25632563 
 1983 0035 000000   		.space	3
 1984              	.LC3:
 1985 0038 4F766572 		.ascii	"Overall size: %lu bytes\000"
 1985      616C6C20 
 1985      73697A65 
 1985      3A20256C 
 1985      75206279 
 1986              	.LC4:
 1987 0050 466F726D 		.ascii	"Format: %c%c%c%c\000"
 1987      61743A20 
 1987      25632563 
 1987      25632563 
 1987      00
 1988 0061 000000   		.space	3
 1989              	.LC5:
 1990 0064 466D7420 		.ascii	"Fmt marker: %c%c%c%c\000"
 1990      6D61726B 
 1990      65723A20 
 1990      25632563 
 1990      25632563 
 1991 0079 000000   		.space	3
 1992              	.LC6:
 1993 007c 4C656E67 		.ascii	"Length of fmt: %lu\000"
 1993      7468206F 
 1993      6620666D 
 1993      743A2025 
 1993      6C7500
 1994 008f 00       		.space	1
 1995              	.LC7:
 1996 0090 466F726D 		.ascii	"Format type: %u\000"
 1996      61742074 
 1996      7970653A 
 1996      20257500 
 1997              	.LC8:
 1998 00a0 4368616E 		.ascii	"Channels: %u\000"
 1998      6E656C73 
 1998      3A202575 
 1998      00
 1999 00ad 000000   		.space	3
 2000              	.LC9:
 2001 00b0 53616D70 		.ascii	"Sample rate: %lu\000"
 2001      6C652072 
 2001      6174653A 
 2001      20256C75 
 2001      00
 2002 00c1 000000   		.space	3
 2003              	.LC10:
 2004 00c4 42797465 		.ascii	"Byte rate: %lu\000"
 2004      20726174 
 2004      653A2025 
 2004      6C7500
 2005 00d3 00       		.space	1
ARM GAS  C:\Users\student\AppData\Local\Temp\cc7xlRSM.s 			page 49


 2006              	.LC11:
 2007 00d4 426C6F63 		.ascii	"Block align: %u\000"
 2007      6B20616C 
 2007      69676E3A 
 2007      20257500 
 2008              	.LC12:
 2009 00e4 42697473 		.ascii	"Bits per sample: %u\000"
 2009      20706572 
 2009      2073616D 
 2009      706C653A 
 2009      20257500 
 2010              	.LC13:
 2011 00f8 53442063 		.ascii	"SD card name:\000"
 2011      61726420 
 2011      6E616D65 
 2011      3A00
 2012 0106 0000     		.space	2
 2013              	.LC14:
 2014 0108 4661696C 		.ascii	"Failed to get SD card name\000"
 2014      65642074 
 2014      6F206765 
 2014      74205344 
 2014      20636172 
 2015 0123 00       		.space	1
 2016              	.LC15:
 2017 0124 303A00   		.ascii	"0:\000"
 2018 0127 00       		.space	1
 2019              	.LC16:
 2020 0128 4661696C 		.ascii	"Failed to mount SD\000"
 2020      65642074 
 2020      6F206D6F 
 2020      756E7420 
 2020      534400
 2021 013b 00       		.space	1
 2022              	.LC17:
 2023 013c 53442043 		.ascii	"SD Card mounted\000"
 2023      61726420 
 2023      6D6F756E 
 2023      74656400 
 2024              	.LC18:
 2025 014c 303A5C36 		.ascii	"0:\\6115FP\000"
 2025      31313546 
 2025      5000
 2026 0156 0000     		.space	2
 2027              	.LC19:
 2028 0158 46696C65 		.ascii	"Filename: \000"
 2028      6E616D65 
 2028      3A2000
 2029 0163 00       		.space	1
 2030              	.LC20:
 2031 0164 2C00     		.ascii	",\000"
 2032 0166 0000     		.space	2
 2033              	.LC21:
 2034 0168 48455245 		.ascii	"HERE\000"
 2034      00
 2035 016d 000000   		.space	3
 2036              	.LC22:
ARM GAS  C:\Users\student\AppData\Local\Temp\cc7xlRSM.s 			page 50


 2037 0170 4E6F2066 		.ascii	"No files found\000"
 2037      696C6573 
 2037      20666F75 
 2037      6E6400
 2038 017f 00       		.space	1
 2039              	.LC23:
 2040 0180 7200     		.ascii	"r\000"
 2041 0182 0000     		.space	2
 2042              	.LC24:
 2043 0184 46696C65 		.ascii	"File opened successfully\000"
 2043      206F7065 
 2043      6E656420 
 2043      73756363 
 2043      65737366 
 2044 019d 000000   		.space	3
 2045              	.LC25:
 2046 01a0 42756666 		.ascii	"Buffer fill: %u\000"
 2046      65722066 
 2046      696C6C3A 
 2046      20257500 
 2047              	.LC26:
 2048 01b0 44617461 		.ascii	"Data loaded into buffer\000"
 2048      206C6F61 
 2048      64656420 
 2048      696E746F 
 2048      20627566 
 2049              	.LC27:
 2050 01c8 4661696C 		.ascii	"Failed to load data\000"
 2050      65642074 
 2050      6F206C6F 
 2050      61642064 
 2050      61746100 
 2051              	.LC28:
 2052 01dc 4661696C 		.ascii	"Failed to open file\000"
 2052      65642074 
 2052      6F206F70 
 2052      656E2066 
 2052      696C6500 
 2053              	.LC29:
 2054 01f0 44796E61 		.ascii	"Dynamix\000"
 2054      6D697800 
 2055              	.LC30:
 2056 01f8 54696D65 		.ascii	"Time: 00:00\000"
 2056      3A203030 
 2056      3A303000 
 2057              	.LC31:
 2058 0204 506C6179 		.ascii	"Playback complete!\000"
 2058      6261636B 
 2058      20636F6D 
 2058      706C6574 
 2058      652100
 2059 0217 00       		.bss
 2060              		.align	2
 2061              		.set	.LANCHOR1,. + 0
 2062              		.type	fileEnd1, %object
 2063              		.size	fileEnd1, 4
 2064              	fileEnd1:
ARM GAS  C:\Users\student\AppData\Local\Temp\cc7xlRSM.s 			page 51


 2065 0000 00000000 		.space	4
 2066              		.type	fileEnd2, %object
 2067              		.size	fileEnd2, 4
 2068              	fileEnd2:
 2069 0004 00000000 		.space	4
 2070              		.type	volumeControlCoef2, %object
 2071              		.size	volumeControlCoef2, 4
 2072              	volumeControlCoef2:
 2073 0008 00000000 		.space	4
 2074              		.type	overall_size, %object
 2075              		.size	overall_size, 4
 2076              	overall_size:
 2077 000c 00000000 		.space	4
 2078              		.type	rectangleIndexTrackOne, %object
 2079              		.size	rectangleIndexTrackOne, 4
 2080              	rectangleIndexTrackOne:
 2081 0010 00000000 		.space	4
 2082              		.type	rectangleIndexTrackTwo, %object
 2083              		.size	rectangleIndexTrackTwo, 4
 2084              	rectangleIndexTrackTwo:
 2085 0014 00000000 		.space	4
 2086              		.type	previousOutput, %object
 2087              		.size	previousOutput, 4
 2088              	previousOutput:
 2089 0018 00000000 		.space	4
 2090              		.type	previousInput, %object
 2091              		.size	previousInput, 4
 2092              	previousInput:
 2093 001c 00000000 		.space	4
 2094              		.type	audioFile1, %object
 2095              		.size	audioFile1, 4
 2096              	audioFile1:
 2097 0020 00000000 		.space	4
 2098              		.type	currentBufferFill, %object
 2099              		.size	currentBufferFill, 4
 2100              	currentBufferFill:
 2101 0024 00000000 		.space	4
 2102              		.type	loadingBufferFill, %object
 2103              		.size	loadingBufferFill, 4
 2104              	loadingBufferFill:
 2105 0028 00000000 		.space	4
 2106              		.type	audioFile2, %object
 2107              		.size	audioFile2, 4
 2108              	audioFile2:
 2109 002c 00000000 		.space	4
 2110              		.type	audioSampleIndex, %object
 2111              		.size	audioSampleIndex, 4
 2112              	audioSampleIndex:
 2113 0030 00000000 		.space	4
 2114              		.type	switchBuffers, %object
 2115              		.size	switchBuffers, 4
 2116              	switchBuffers:
 2117 0034 00000000 		.space	4
 2118              		.text
 2119              	.Letext0:
 2120              		.file 2 "c:\\program files (x86)\\cypress\\psoc creator\\3.3\\psoc creator\\import\\gnu\\arm\\4.9.
 2121              		.file 3 "c:\\program files (x86)\\cypress\\psoc creator\\3.3\\psoc creator\\import\\gnu\\arm\\4.9.
ARM GAS  C:\Users\student\AppData\Local\Temp\cc7xlRSM.s 			page 52


 2122              		.file 4 "Generated_Source\\PSoC5/cytypes.h"
 2123              		.file 5 "c:\\program files (x86)\\cypress\\psoc creator\\3.3\\psoc creator\\import\\gnu\\arm\\4.9.
 2124              		.file 6 "..\\..\\emWinGraphics_v5_46\\Code\\Include\\PSoC4_5/LCD.h"
 2125              		.file 7 "..\\..\\emWinGraphics_v5_46\\Code\\Include\\PSoC4_5/GUI_Type.h"
 2126              		.file 8 "..\\..\\emFile\\Code\\Include\\PSoC5/FS_Types.h"
 2127              		.file 9 "..\\..\\emFile\\Code\\Include\\PSoC5/FS.h"
 2128              		.file 10 "Generated_Source\\PSoC5/core_cm3.h"
 2129              		.file 11 "..\\..\\emWinGraphics_v5_46\\Code\\Include\\PSoC4_5/GUI.h"
 2130              		.file 12 "c:\\program files (x86)\\cypress\\psoc creator\\3.3\\psoc creator\\import\\gnu\\arm\\4.9
 2131              		.file 13 "Generated_Source\\PSoC5/ADC_FlexSensor_L.h"
 2132              		.file 14 "Generated_Source\\PSoC5/TimeStamp_Timer.h"
 2133              		.file 15 "Generated_Source\\PSoC5/ADC_FlexSensor_R.h"
 2134              		.file 16 "Generated_Source\\PSoC5/Get_ADCs_Timer.h"
 2135              		.file 17 "Generated_Source\\PSoC5/SPIM_TFT.h"
 2136              		.file 18 "c:\\program files (x86)\\cypress\\psoc creator\\3.3\\psoc creator\\import\\gnu\\arm\\4.9
 2137              		.file 19 "<built-in>"
 2138              		.file 20 "Generated_Source\\PSoC5/CyLib.h"
 2139              		.file 21 "Generated_Source\\PSoC5/SPIM_Audio.h"
 2140              		.file 22 "Generated_Source\\PSoC5/AudioTimer.h"
 2141              		.file 23 "Generated_Source\\PSoC5/I2C_MASTER_L.h"
 2142              		.file 24 "Generated_Source\\PSoC5/audiotimer_isr.h"
 2143              		.file 25 "Generated_Source\\PSoC5/timestamp_timer_isr.h"
 2144              		.file 26 "Generated_Source\\PSoC5/get_adcs_isr.h"