ARM GAS  C:\Users\student\AppData\Local\Temp\cc7xlRSM.s 			page 1


   1              		.syntax unified
   2              		.cpu cortex-m3
   3              		.fpu softvfp
   4              		.eabi_attribute 20, 1
   5              		.eabi_attribute 21, 1
   6              		.eabi_attribute 23, 3
   7              		.eabi_attribute 24, 1
   8              		.eabi_attribute 25, 1
   9              		.eabi_attribute 26, 1
  10              		.eabi_attribute 30, 1
  11              		.eabi_attribute 34, 1
  12              		.eabi_attribute 18, 4
  13              		.thumb
  14              		.file	"main.c"
  15              		.text
  16              	.Ltext0:
  17              		.cfi_sections	.debug_frame
  18              		.section	.text.updateSecondsTimer,"ax",%progbits
  19              		.align	2
  20              		.global	updateSecondsTimer
  21              		.thumb
  22              		.thumb_func
  23              		.type	updateSecondsTimer, %function
  24              	updateSecondsTimer:
  25              	.LFB71:
  26              		.file 1 ".\\main.c"
   1:.\main.c      **** /* ========================================
   2:.\main.c      ****  *
   3:.\main.c      ****  * Copyright YOUR COMPANY, THE YEAR
   4:.\main.c      ****  * All Rights Reserved
   5:.\main.c      ****  * UNPUBLISHED, LICENSED SOFTWARE.
   6:.\main.c      ****  *
   7:.\main.c      ****  * CONFIDENTIAL AND PROPRIETARY INFORMATION
   8:.\main.c      ****  * WHICH IS THE PROPERTY OF your company.
   9:.\main.c      ****  *
  10:.\main.c      ****  * ========================================
  11:.\main.c      **** */
  12:.\main.c      **** #include <project.h>
  13:.\main.c      **** #include <math.h>
  14:.\main.c      **** #include <stdlib.h>
  15:.\main.c      **** #include "GUI.h"
  16:.\main.c      **** #include "tft.h"
  17:.\main.c      **** #include <math.h>
  18:.\main.c      **** #include <stdint.h>
  19:.\main.c      **** #include <stddef.h>
  20:.\main.c      **** #include <stdio.h>
  21:.\main.c      **** #include "main.h"
  22:.\main.c      **** #include <FS.h>
  23:.\main.c      **** #include <string.h>
  24:.\main.c      **** #include <Global.h>
  25:.\main.c      **** 
  26:.\main.c      **** typedef enum {
  27:.\main.c      **** 	FILTER_LOW_PASS,
  28:.\main.c      **** 	FILTER_HIGH_PASS
  29:.\main.c      **** } FilterType;
  30:.\main.c      **** 
  31:.\main.c      **** typedef enum {
ARM GAS  C:\Users\student\AppData\Local\Temp\cc7xlRSM.s 			page 2


  32:.\main.c      **** 	TRACK_1,
  33:.\main.c      **** 	TRACK_2
  34:.\main.c      **** } TrackType;
  35:.\main.c      **** 
  36:.\main.c      **** // Global variables
  37:.\main.c      **** #define SAMPLE_OFFSET 32768
  38:.\main.c      **** #define SAMPLE_RATE 11025
  39:.\main.c      **** volatile uint32_t audioSampleIndex = 0;
  40:.\main.c      **** 
  41:.\main.c      **** #define AUDIO_BUFFER_SIZE 6140
  42:.\main.c      **** signed short int audioBuffer1[AUDIO_BUFFER_SIZE];
  43:.\main.c      **** signed short int audioBuffer2[AUDIO_BUFFER_SIZE];
  44:.\main.c      **** signed short int audioBuffer3[AUDIO_BUFFER_SIZE];
  45:.\main.c      **** signed short int audioBuffer4[AUDIO_BUFFER_SIZE];
  46:.\main.c      **** signed short int* currentBuffer1 = audioBuffer1;  // Pointer to the current buffer being played
  47:.\main.c      **** signed short int* loadingBuffer1 = audioBuffer2;  // Pointer to the buffer being loaded
  48:.\main.c      **** signed short int* currentBuffer2 = audioBuffer3;  // Pointer to the current buffer being played
  49:.\main.c      **** signed short int* loadingBuffer2 = audioBuffer4;  // Pointer to the buffer being loaded
  50:.\main.c      **** 
  51:.\main.c      **** #define SECONDS_PER_BAR 4
  52:.\main.c      **** 
  53:.\main.c      **** char file1[16] = "clarity.wav";
  54:.\main.c      **** char file2[14] = "dieyoung.wav";
  55:.\main.c      **** volatile uint32 overall_size = 0;
  56:.\main.c      **** FS_FILE* audioFile1 = NULL;  // Global file pointer for audio data
  57:.\main.c      **** FS_FILE* audioFile2 = NULL;  // Global file pointer for audio data
  58:.\main.c      **** volatile size_t currentBufferFill = 0;  // How much valid data is in the current buffer
  59:.\main.c      **** volatile size_t loadingBufferFill = 0;  // How much valid data is in the loading buffer
  60:.\main.c      **** volatile int switchBuffers = 0x0;    // Flag to switch buffers
  61:.\main.c      **** volatile int fileEnd1 = 0x0;
  62:.\main.c      **** volatile int fileEnd2 = 0x0;
  63:.\main.c      **** 
  64:.\main.c      **** volatile float volumeControlCoef1 = 1;
  65:.\main.c      **** volatile float volumeControlCoef2 = 0;
  66:.\main.c      **** char volumeControlString1[128];
  67:.\main.c      **** char volumeControlString2[128];
  68:.\main.c      **** 
  69:.\main.c      **** #define LSBperGee 16384.0       //from the register map, for the +/- 2 G setting, there are 16384 L
  70:.\main.c      **** 
  71:.\main.c      **** uint8_t topByte;        //we'll use these to hold and process the data from the MPU
  72:.\main.c      **** uint8_t bottomByte;
  73:.\main.c      **** uint16_t combinedData;
  74:.\main.c      **** float geeForce;
  75:.\main.c      **** char mpuString1[24];
  76:.\main.c      **** 
  77:.\main.c      **** // Audio processing variables
  78:.\main.c      **** static int previousOutput = 0;
  79:.\main.c      **** static int previousInput = 0;
  80:.\main.c      **** 
  81:.\main.c      **** #define DISPLAY_WIDTH 320  // Assume display width is 320 pixels
  82:.\main.c      **** #define DISPLAY_HEIGHT 240 // Assume display height is 240 pixels
  83:.\main.c      **** 
  84:.\main.c      **** volatile int rectangleIndexTrackOne = 0;  // Index to track which rectangle (or second) is being di
  85:.\main.c      **** volatile int rectangleIndexTrackTwo = 0;
  86:.\main.c      **** 
  87:.\main.c      **** volatile int secondsCount = 1;
  88:.\main.c      **** char timeString[12];
ARM GAS  C:\Users\student\AppData\Local\Temp\cc7xlRSM.s 			page 3


  89:.\main.c      **** 
  90:.\main.c      **** void DisplayAmplitudeBar(signed short int* buffer, size_t bufferSize, TrackType trackType) {
  91:.\main.c      ****     int samplesPerSecond = SAMPLE_RATE;
  92:.\main.c      ****     long sumAmplitude = 0;
  93:.\main.c      ****     int waveformHeight = DISPLAY_HEIGHT * 0.4;
  94:.\main.c      ****     int waveformWidth = DISPLAY_WIDTH * 0.6;
  95:.\main.c      ****     
  96:.\main.c      ****     // Calculate the average amplitude for the current buffer
  97:.\main.c      ****     size_t i;
  98:.\main.c      ****     for (i = 0; i < bufferSize; ++i) {
  99:.\main.c      ****         sumAmplitude += abs(buffer[i]);
 100:.\main.c      ****     }
 101:.\main.c      **** 
 102:.\main.c      ****     int avgAmplitude = sumAmplitude / bufferSize;
 103:.\main.c      **** 
 104:.\main.c      ****     // Scale the average amplitude to fit the display height
 105:.\main.c      ****     int barHeight = (avgAmplitude * waveformHeight) / SAMPLE_OFFSET;
 106:.\main.c      **** 
 107:.\main.c      ****     GUI_SetColor(GUI_BLUE);
 108:.\main.c      ****     // Calculate the width of each bar based on the expected number of buffers to display
 109:.\main.c      ****     uint16_t numSecs = (overall_size-44) / SAMPLE_RATE / sizeof(uint16);
 110:.\main.c      ****     int barWidth = SECONDS_PER_BAR * waveformWidth / numSecs;
 111:.\main.c      **** 
 112:.\main.c      ****     // Draw a rectangle for the current buffer
 113:.\main.c      ****     int widthOffset = (DISPLAY_WIDTH - waveformWidth) * (0.75);
 114:.\main.c      ****     int xMidpoint;
 115:.\main.c      ****     int rectangleIndex;
 116:.\main.c      ****     if (trackType == TRACK_1) {
 117:.\main.c      ****         GUI_SetColor(GUI_BLUE);
 118:.\main.c      ****         xMidpoint = 60;
 119:.\main.c      ****         rectangleIndex = rectangleIndexTrackOne;
 120:.\main.c      ****         rectangleIndexTrackOne++;
 121:.\main.c      ****     } else {
 122:.\main.c      ****         // trackType = TRACK_2
 123:.\main.c      ****         GUI_SetColor(GUI_GREEN);
 124:.\main.c      ****         xMidpoint = 180;
 125:.\main.c      ****         rectangleIndex = rectangleIndexTrackTwo;
 126:.\main.c      ****         rectangleIndexTrackTwo++;
 127:.\main.c      ****     }
 128:.\main.c      ****     GUI_FillRect(xMidpoint-(barHeight/2), rectangleIndex * barWidth + widthOffset, xMidpoint+(barHe
 129:.\main.c      ****     //char *barHeightBuffer;
 130:.\main.c      ****     //sprintf(barHeightBuffer, "Bar Height: %u", (uint16)barHeight);
 131:.\main.c      ****     //GUI_DispStringAt(barHeightBuffer, 10, 220);
 132:.\main.c      ****     
 133:.\main.c      ****     // Increment the rectangle index for the next buffer
 134:.\main.c      ****     rectangleIndex++;
 135:.\main.c      ****     if (rectangleIndex * barWidth >= DISPLAY_WIDTH) {
 136:.\main.c      ****         // rectangleIndex = 0;  // Reset if we reach the end of the display
 137:.\main.c      ****         // GUI_Clear();  // Clear the screen to start over
 138:.\main.c      ****     }
 139:.\main.c      **** }
 140:.\main.c      **** 
 141:.\main.c      **** 
 142:.\main.c      **** void adjustVolume(uint16_t *sample, float volumeScale) {
 143:.\main.c      **** 	int adjustedSample = (int)(*sample) - SAMPLE_OFFSET;
 144:.\main.c      **** 	adjustedSample = (int)(adjustedSample * volumeScale);
 145:.\main.c      **** 
ARM GAS  C:\Users\student\AppData\Local\Temp\cc7xlRSM.s 			page 4


 146:.\main.c      **** 	// Clip to prevent overflow and underflow
 147:.\main.c      **** 	if (adjustedSample > 32767) adjustedSample = 32767;
 148:.\main.c      **** 	if (adjustedSample < -32768) adjustedSample = -32768;
 149:.\main.c      **** 
 150:.\main.c      **** 	*sample = (uint16_t)(adjustedSample + SAMPLE_OFFSET);
 151:.\main.c      **** }
 152:.\main.c      **** 
 153:.\main.c      **** void applyFilter(uint16_t *sample, float rc, float dt, FilterType filterType) {
 154:.\main.c      **** 	float alpha = dt / (rc + dt);
 155:.\main.c      **** 	float currentInput = (float)(*sample) - SAMPLE_OFFSET;
 156:.\main.c      **** 	float currentOutput;
 157:.\main.c      **** 
 158:.\main.c      **** 	if (filterType == FILTER_LOW_PASS) {
 159:.\main.c      ****     	currentOutput = alpha * currentInput + (1 - alpha) * previousOutput;
 160:.\main.c      **** 	} else { // FILTER_HIGH_PASS
 161:.\main.c      ****     	currentOutput = (1 - alpha) * (previousOutput + currentInput - previousInput);
 162:.\main.c      **** 	}
 163:.\main.c      **** 
 164:.\main.c      **** 	previousInput = currentInput;
 165:.\main.c      **** 	previousOutput = currentOutput;
 166:.\main.c      **** 
 167:.\main.c      **** 	currentOutput += SAMPLE_OFFSET;
 168:.\main.c      **** 	*sample = (uint16_t)(currentOutput > 65535 ? 65535 : currentOutput < 0 ? 0 : currentOutput);
 169:.\main.c      **** }
 170:.\main.c      **** 
 171:.\main.c      **** void GUI_Initialize()
 172:.\main.c      **** {
 173:.\main.c      **** 	SPIM_TFT_Start();
 174:.\main.c      **** 	GUI_Init();                         	// initialize graphics library
 175:.\main.c      **** 	GUI_Clear();
 176:.\main.c      **** 	GUI_SetFont(&GUI_Font8x16);
 177:.\main.c      **** }
 178:.\main.c      **** 
 179:.\main.c      **** void readWavHeader(FS_FILE* filePtr) {
 180:.\main.c      ****     unsigned char buffer4[4];
 181:.\main.c      ****     unsigned char buffer2[2];
 182:.\main.c      ****     char debugString[128];
 183:.\main.c      **** 
 184:.\main.c      ****     // Read RIFF header
 185:.\main.c      ****     FS_Read(filePtr, buffer4, 4);  // Read the 'RIFF' descriptor
 186:.\main.c      ****     sprintf(debugString, "Descriptor: %c%c%c%c", buffer4[0], buffer4[1], buffer4[2], buffer4[3]);
 187:.\main.c      ****     GUI_DispStringAt(debugString, 10, 30);
 188:.\main.c      **** 
 189:.\main.c      ****     // Read size of file
 190:.\main.c      ****     FS_Read(filePtr, buffer4, 4);
 191:.\main.c      ****     overall_size = buffer4[0] | (buffer4[1] << 8) | (buffer4[2] << 16) | (buffer4[3] << 24);
 192:.\main.c      ****     sprintf(debugString, "Overall size: %lu bytes", overall_size);
 193:.\main.c      ****     GUI_DispStringAt(debugString, 10, 50);
 194:.\main.c      **** 
 195:.\main.c      ****     // Read WAVE string
 196:.\main.c      ****     FS_Read(filePtr, buffer4, 4);
 197:.\main.c      ****     sprintf(debugString, "Format: %c%c%c%c", buffer4[0], buffer4[1], buffer4[2], buffer4[3]);
 198:.\main.c      ****     GUI_DispStringAt(debugString, 10, 70);
 199:.\main.c      **** 
 200:.\main.c      ****     // Read format chunk marker
 201:.\main.c      ****     FS_Read(filePtr, buffer4, 4);
 202:.\main.c      ****     sprintf(debugString, "Fmt marker: %c%c%c%c", buffer4[0], buffer4[1], buffer4[2], buffer4[3]);
ARM GAS  C:\Users\student\AppData\Local\Temp\cc7xlRSM.s 			page 5


 203:.\main.c      ****     GUI_DispStringAt(debugString, 10, 90);
 204:.\main.c      **** 
 205:.\main.c      ****     // Read length of format data
 206:.\main.c      ****     FS_Read(filePtr, buffer4, 4);
 207:.\main.c      ****     uint32 length_of_fmt = buffer4[0] | (buffer4[1] << 8) | (buffer4[2] << 16) | (buffer4[3] << 24)
 208:.\main.c      ****     sprintf(debugString, "Length of fmt: %lu", length_of_fmt);
 209:.\main.c      ****     GUI_DispStringAt(debugString, 10, 110);
 210:.\main.c      **** 
 211:.\main.c      ****     // Read format type
 212:.\main.c      ****     FS_Read(filePtr, buffer2, 2);
 213:.\main.c      ****     uint16 format_type = buffer2[0] | (buffer2[1] << 8);
 214:.\main.c      ****     sprintf(debugString, "Format type: %u", format_type);
 215:.\main.c      ****     GUI_DispStringAt(debugString, 10, 130);
 216:.\main.c      **** 
 217:.\main.c      ****     // Read channels
 218:.\main.c      ****     FS_Read(filePtr, buffer2, 2);
 219:.\main.c      ****     uint16 channels = buffer2[0] | (buffer2[1] << 8);
 220:.\main.c      ****     sprintf(debugString, "Channels: %u", channels);
 221:.\main.c      ****     GUI_DispStringAt(debugString, 10, 150);
 222:.\main.c      **** 
 223:.\main.c      ****     // Read sample rate
 224:.\main.c      ****     FS_Read(filePtr, buffer4, 4);
 225:.\main.c      ****     uint32 sample_rate = buffer4[0] | (buffer4[1] << 8) | (buffer4[2] << 16) | (buffer4[3] << 24);
 226:.\main.c      ****     sprintf(debugString, "Sample rate: %lu", sample_rate);
 227:.\main.c      ****     GUI_DispStringAt(debugString, 10, 170);
 228:.\main.c      **** 
 229:.\main.c      ****     // Read byte rate
 230:.\main.c      ****     FS_Read(filePtr, buffer4, 4);
 231:.\main.c      ****     uint32 byte_rate = buffer4[0] | (buffer4[1] << 8) | (buffer4[2] << 16) | (buffer4[3] << 24);
 232:.\main.c      ****     sprintf(debugString, "Byte rate: %lu", byte_rate);
 233:.\main.c      ****     GUI_DispStringAt(debugString, 10, 190);
 234:.\main.c      **** 
 235:.\main.c      ****     // Read block align
 236:.\main.c      ****     FS_Read(filePtr, buffer2, 2);
 237:.\main.c      ****     uint16 block_align = buffer2[0] | (buffer2[1] << 8);
 238:.\main.c      ****     sprintf(debugString, "Block align: %u", block_align);
 239:.\main.c      ****     GUI_DispStringAt(debugString, 10, 210);
 240:.\main.c      **** 
 241:.\main.c      ****     // Read bits per sample
 242:.\main.c      ****     FS_Read(filePtr, buffer2, 2);
 243:.\main.c      ****     uint16 bits_per_sample = buffer2[0] | (buffer2[1] << 8);
 244:.\main.c      ****     sprintf(debugString, "Bits per sample: %u", bits_per_sample);
 245:.\main.c      ****     GUI_DispStringAt(debugString, 10, 230);
 246:.\main.c      **** }
 247:.\main.c      **** 
 248:.\main.c      **** void InitializeAudioFile() {
 249:.\main.c      ****     char sdVolName[10];
 250:.\main.c      ****     FS_Init();
 251:.\main.c      ****     CyDelay(2000u);  // Delay to ensure stability after initialization
 252:.\main.c      **** 
 253:.\main.c      ****     if(FS_GetVolumeName(0u, &sdVolName[0], sizeof(sdVolName) - 1) == 0) {
 254:.\main.c      ****         sdVolName[sizeof(sdVolName) - 1] = '\0';  // Ensure null termination
 255:.\main.c      ****         GUI_DispStringAt("SD card name:", 10, 10);
 256:.\main.c      ****         GUI_DispStringAt(sdVolName, 10, 30);
 257:.\main.c      ****     } else {
 258:.\main.c      ****         GUI_DispStringAt("Failed to get SD card name", 10, 10);
 259:.\main.c      ****     }
ARM GAS  C:\Users\student\AppData\Local\Temp\cc7xlRSM.s 			page 6


 260:.\main.c      ****     
 261:.\main.c      ****     if(FS_Mount("0:") == 0) {
 262:.\main.c      ****         GUI_DispStringAt("Failed to mount SD", 10, 50);
 263:.\main.c      ****         return;
 264:.\main.c      ****     } else {
 265:.\main.c      ****         GUI_DispStringAt("SD Card mounted", 10, 50);
 266:.\main.c      ****     }
 267:.\main.c      **** 
 268:.\main.c      ****     // New block: List all files
 269:.\main.c      ****     FS_FIND_DATA fd;
 270:.\main.c      ****     char filename[256];  // Adjust size as needed
 271:.\main.c      ****     if(FS_FindFirstFile(&fd, "0:\\6115FP", file1, 16)) {
 272:.\main.c      ****         do {
 273:.\main.c      ****             char* fileString;
 274:.\main.c      ****             strcpy(fileString, "Filename: ");
 275:.\main.c      ****             strcat(fileString, filename);
 276:.\main.c      ****             strcat(fileString, ",");
 277:.\main.c      ****             GUI_DispStringAt("HERE", 10, 70);  // Display file name
 278:.\main.c      ****             CyDelay(500);  // Delay for visibility
 279:.\main.c      ****         } while(0);  // Corrected to remove extra arguments
 280:.\main.c      ****         FS_FindClose(&fd);
 281:.\main.c      ****     } else {
 282:.\main.c      ****         GUI_DispStringAt("No files found", 10, 70);
 283:.\main.c      ****     }
 284:.\main.c      **** 
 285:.\main.c      ****     // Continue with your existing file operations
 286:.\main.c      ****     audioFile1 = FS_FOpen(file1, "r");
 287:.\main.c      ****     if (audioFile1) {
 288:.\main.c      ****         GUI_DispStringAt("File opened successfully", 10, 130);
 289:.\main.c      ****         readWavHeader(audioFile1);
 290:.\main.c      ****         //FS_FSeek(audioFile, 44, FS_SEEK_SET); // skip the WAV header
 291:.\main.c      ****         currentBufferFill = FS_Read(audioFile1, currentBuffer1, AUDIO_BUFFER_SIZE * sizeof(uint16_t
 292:.\main.c      ****         loadingBufferFill = FS_Read(audioFile1, loadingBuffer1, AUDIO_BUFFER_SIZE * sizeof(uint16_t
 293:.\main.c      ****         char textBuffer[128];
 294:.\main.c      ****         sprintf(textBuffer, "Buffer fill: %u", currentBufferFill);
 295:.\main.c      ****         
 296:.\main.c      ****         GUI_DispStringAt(textBuffer, 10, 280);
 297:.\main.c      ****         if (currentBufferFill > 0) {
 298:.\main.c      ****             GUI_DispStringAt("Data loaded into buffer", 10, 150);
 299:.\main.c      ****         } else {
 300:.\main.c      ****             GUI_DispStringAt("Failed to load data", 10, 170);
 301:.\main.c      ****         }
 302:.\main.c      ****     } else {
 303:.\main.c      ****         GUI_DispStringAt("Failed to open file", 10, 130);
 304:.\main.c      ****     }
 305:.\main.c      ****     
 306:.\main.c      ****     CyDelay(1000);
 307:.\main.c      ****     FS_FIND_DATA fd2;
 308:.\main.c      ****     if(FS_FindFirstFile(&fd, "0:\\6115FP", file2, 16)) {
 309:.\main.c      ****         do {
 310:.\main.c      ****             char* fileString;
 311:.\main.c      ****             strcpy(fileString, "Filename: ");
 312:.\main.c      ****             strcat(fileString, filename);
 313:.\main.c      ****             strcat(fileString, ",");
 314:.\main.c      ****             GUI_DispStringAt("HERE", 10, 70);  // Display file name
 315:.\main.c      ****             CyDelay(500);  // Delay for visibility
 316:.\main.c      ****         } while(0);  // Corrected to remove extra arguments
ARM GAS  C:\Users\student\AppData\Local\Temp\cc7xlRSM.s 			page 7


 317:.\main.c      ****         FS_FindClose(&fd);
 318:.\main.c      ****     } else {
 319:.\main.c      ****         GUI_DispStringAt("No files found", 10, 70);
 320:.\main.c      ****     }
 321:.\main.c      ****     // Continue with your existing file operations
 322:.\main.c      ****     audioFile2 = FS_FOpen(file2, "r");
 323:.\main.c      ****     if (audioFile2) {
 324:.\main.c      ****         GUI_DispStringAt("File opened successfully", 10, 130);
 325:.\main.c      ****         readWavHeader(audioFile2);
 326:.\main.c      ****         //FS_FSeek(audioFile, 44, FS_SEEK_SET); // skip the WAV header
 327:.\main.c      ****         currentBufferFill = FS_Read(audioFile2, currentBuffer2, AUDIO_BUFFER_SIZE * sizeof(uint16_t
 328:.\main.c      ****         loadingBufferFill = FS_Read(audioFile2, loadingBuffer2, AUDIO_BUFFER_SIZE * sizeof(uint16_t
 329:.\main.c      ****         char textBuffer[128];
 330:.\main.c      ****         sprintf(textBuffer, "Buffer fill: %u", currentBufferFill);
 331:.\main.c      ****         
 332:.\main.c      ****         GUI_DispStringAt(textBuffer, 10, 280);
 333:.\main.c      ****         if (currentBufferFill > 0) {
 334:.\main.c      ****             GUI_DispStringAt("Data loaded into buffer", 10, 150);
 335:.\main.c      ****         } else {
 336:.\main.c      ****             GUI_DispStringAt("Failed to load data", 10, 170);
 337:.\main.c      ****         }
 338:.\main.c      ****     } else {
 339:.\main.c      ****         GUI_DispStringAt("Failed to open file", 10, 130);
 340:.\main.c      ****     }
 341:.\main.c      **** }
 342:.\main.c      **** 
 343:.\main.c      **** void playAudio() {
 344:.\main.c      ****     signed short int signedSample1 = currentBuffer1[audioSampleIndex];
 345:.\main.c      ****     signed short int signedSample2 = currentBuffer2[audioSampleIndex];
 346:.\main.c      ****     
 347:.\main.c      ****     // TODO: calculate scaling factor normalized based on the sum of the two audio tracks
 348:.\main.c      ****     float totalVolumeControl = volumeControlCoef1 + volumeControlCoef2;
 349:.\main.c      ****     float scalingFactor1 = volumeControlCoef1 / totalVolumeControl;
 350:.\main.c      ****     float scalingFactor2 = volumeControlCoef2 / totalVolumeControl;
 351:.\main.c      ****     signedSample1 = (signed short int)(signedSample1 * scalingFactor1);
 352:.\main.c      ****     signedSample2 = (signed short int)(signedSample2 * scalingFactor2);
 353:.\main.c      ****     
 354:.\main.c      ****     int mixedSample = 0.85 * (signedSample1 + signedSample2);
 355:.\main.c      ****     
 356:.\main.c      ****     if (mixedSample > 32767) mixedSample = 32767;
 357:.\main.c      ****     if (mixedSample < -32768) mixedSample = -32768;
 358:.\main.c      ****     //signedSample *= volumeControlCoef;
 359:.\main.c      ****     uint16 adjustedSample = mixedSample + SAMPLE_OFFSET;
 360:.\main.c      ****     //adjustVolume(&adjustedSample, 0.3); // Adjust volume
 361:.\main.c      ****     
 362:.\main.c      ****     audioSampleIndex++;
 363:.\main.c      ****     SPIM_Audio_WriteTxData(adjustedSample);
 364:.\main.c      **** }
 365:.\main.c      **** 
 366:.\main.c      **** CY_ISR(audioTimerISRHandler) {
 367:.\main.c      ****     if (!fileEnd1) {
 368:.\main.c      ****     	if (audioSampleIndex >= AUDIO_BUFFER_SIZE) {
 369:.\main.c      ****             audioSampleIndex = 0;
 370:.\main.c      ****             switchBuffers = 0x1;
 371:.\main.c      ****             // Switch the pointers of the buffers
 372:.\main.c      ****             signed short int* temp = currentBuffer1;
 373:.\main.c      ****             currentBuffer1 = loadingBuffer1;
ARM GAS  C:\Users\student\AppData\Local\Temp\cc7xlRSM.s 			page 8


 374:.\main.c      ****             loadingBuffer1 = temp;
 375:.\main.c      ****             temp = currentBuffer2;
 376:.\main.c      ****             currentBuffer2 = loadingBuffer2;
 377:.\main.c      ****             loadingBuffer2 = temp;
 378:.\main.c      ****     	}
 379:.\main.c      ****         playAudio();
 380:.\main.c      ****     }
 381:.\main.c      ****     // UpdateVolumeControlAndDisplay();
 382:.\main.c      **** 	AudioTimer_ReadStatusRegister(); // Clear the timer interrupt
 383:.\main.c      **** }
 384:.\main.c      **** 
 385:.\main.c      **** CY_ISR(updateSecondsTimer) {
  27              		.loc 1 385 0
  28              		.cfi_startproc
  29              		@ args = 0, pretend = 0, frame = 0
  30              		@ frame_needed = 0, uses_anonymous_args = 0
  31 0000 38B5     		push	{r3, r4, r5, lr}
  32              		.cfi_def_cfa_offset 16
  33              		.cfi_offset 3, -16
  34              		.cfi_offset 4, -12
  35              		.cfi_offset 5, -8
  36              		.cfi_offset 14, -4
 386:.\main.c      ****     GUI_SetColor(GUI_WHITE);
  37              		.loc 1 386 0
  38 0002 6FF07F40 		mvn	r0, #-16777216
  39 0006 FFF7FEFF 		bl	GUI_SetColor
  40              	.LVL0:
 387:.\main.c      ****     uint16 currMin = secondsCount / 60;
  41              		.loc 1 387 0
  42 000a 164C     		ldr	r4, .L5
  43 000c 2168     		ldr	r1, [r4]
  44 000e 164B     		ldr	r3, .L5+4
  45 0010 83FB0102 		smull	r0, r2, r3, r1
  46 0014 0A44     		add	r2, r2, r1
  47 0016 C917     		asrs	r1, r1, #31
  48 0018 C1EB6212 		rsb	r2, r1, r2, asr #5
  49              	.LVL1:
 388:.\main.c      ****     uint16 currSec = secondsCount % 60;
  50              		.loc 1 388 0
  51 001c 2068     		ldr	r0, [r4]
  52 001e 83FB0013 		smull	r1, r3, r3, r0
  53 0022 0344     		add	r3, r3, r0
  54 0024 C117     		asrs	r1, r0, #31
  55 0026 C1EB6313 		rsb	r3, r1, r3, asr #5
  56 002a C3EB0313 		rsb	r3, r3, r3, lsl #4
  57 002e 9B00     		lsls	r3, r3, #2
  58 0030 C31A     		subs	r3, r0, r3
  59              	.LVL2:
 389:.\main.c      ****     sprintf(timeString, "Time: %02u:%02u", currMin, currSec);
  60              		.loc 1 389 0
  61 0032 0E4D     		ldr	r5, .L5+8
  62 0034 2846     		mov	r0, r5
  63 0036 0E49     		ldr	r1, .L5+12
  64 0038 92B2     		uxth	r2, r2
  65 003a 9BB2     		uxth	r3, r3
  66 003c FFF7FEFF 		bl	sprintf
  67              	.LVL3:
ARM GAS  C:\Users\student\AppData\Local\Temp\cc7xlRSM.s 			page 9


 390:.\main.c      ****     GUI_DispStringAt(timeString, 80, 30);
  68              		.loc 1 390 0
  69 0040 2846     		mov	r0, r5
  70 0042 5021     		movs	r1, #80
  71 0044 1E22     		movs	r2, #30
  72 0046 FFF7FEFF 		bl	GUI_DispStringAt
  73              	.LVL4:
 391:.\main.c      ****     secondsCount++;
  74              		.loc 1 391 0
  75 004a 2368     		ldr	r3, [r4]
  76 004c 0133     		adds	r3, r3, #1
  77 004e 2360     		str	r3, [r4]
 392:.\main.c      ****     if (!fileEnd1 || !fileEnd2) TimeStamp_Timer_ReadStatusRegister();
  78              		.loc 1 392 0
  79 0050 084B     		ldr	r3, .L5+16
  80 0052 1B68     		ldr	r3, [r3]
  81 0054 13B1     		cbz	r3, .L2
  82              		.loc 1 392 0 is_stmt 0 discriminator 2
  83 0056 074B     		ldr	r3, .L5+16
  84 0058 5B68     		ldr	r3, [r3, #4]
  85 005a 0BB9     		cbnz	r3, .L1
  86              	.L2:
  87              		.loc 1 392 0 discriminator 3
  88 005c FFF7FEFF 		bl	TimeStamp_Timer_ReadStatusRegister
  89              	.LVL5:
  90              	.L1:
  91 0060 38BD     		pop	{r3, r4, r5, pc}
  92              	.L6:
  93 0062 00BF     		.align	2
  94              	.L5:
  95 0064 00000000 		.word	.LANCHOR0
  96 0068 89888888 		.word	-2004318071
  97 006c 00000000 		.word	timeString
  98 0070 00000000 		.word	.LC0
  99 0074 00000000 		.word	.LANCHOR1
 100              		.cfi_endproc
 101              	.LFE71:
 102              		.size	updateSecondsTimer, .-updateSecondsTimer
 103              		.global	__aeabi_i2d
 104              		.global	__aeabi_dmul
 105              		.global	__aeabi_d2f
 106              		.global	__aeabi_fmul
 107              		.global	__aeabi_f2uiz
 108              		.section	.text.getADCs,"ax",%progbits
 109              		.align	2
 110              		.global	getADCs
 111              		.thumb
 112              		.thumb_func
 113              		.type	getADCs, %function
 114              	getADCs:
 115              	.LFB72:
 393:.\main.c      **** }
 394:.\main.c      **** 
 395:.\main.c      **** CY_ISR(getADCs) {
 116              		.loc 1 395 0 is_stmt 1
 117              		.cfi_startproc
 118              		@ args = 0, pretend = 0, frame = 0
ARM GAS  C:\Users\student\AppData\Local\Temp\cc7xlRSM.s 			page 10


 119              		@ frame_needed = 0, uses_anonymous_args = 0
 120 0000 70B5     		push	{r4, r5, r6, lr}
 121              		.cfi_def_cfa_offset 16
 122              		.cfi_offset 4, -16
 123              		.cfi_offset 5, -12
 124              		.cfi_offset 6, -8
 125              		.cfi_offset 14, -4
 396:.\main.c      ****     ADC_FlexSensor_L_StartConvert();
 126              		.loc 1 396 0
 127 0002 FFF7FEFF 		bl	ADC_FlexSensor_L_StartConvert
 128              	.LVL6:
 129              	.L8:
 397:.\main.c      ****     while (!ADC_FlexSensor_L_IsEndConversion(ADC_FlexSensor_L_RETURN_STATUS));
 130              		.loc 1 397 0 discriminator 1
 131 0006 0120     		movs	r0, #1
 132 0008 FFF7FEFF 		bl	ADC_FlexSensor_L_IsEndConversion
 133              	.LVL7:
 134 000c 0028     		cmp	r0, #0
 135 000e FAD0     		beq	.L8
 398:.\main.c      ****     uint16_t adcValue1 = ADC_FlexSensor_L_GetResult16();
 136              		.loc 1 398 0
 137 0010 FFF7FEFF 		bl	ADC_FlexSensor_L_GetResult16
 138              	.LVL8:
 399:.\main.c      ****     volumeControlCoef1 = (adcValue1 / 4096.0);  // Normalize and invert ADC value to 0-1 range
 139              		.loc 1 399 0
 140 0014 80B2     		uxth	r0, r0
 141 0016 FFF7FEFF 		bl	__aeabi_i2d
 142              	.LVL9:
 143 001a 0022     		movs	r2, #0
 144 001c 234B     		ldr	r3, .L11
 145 001e FFF7FEFF 		bl	__aeabi_dmul
 146              	.LVL10:
 147 0022 FFF7FEFF 		bl	__aeabi_d2f
 148              	.LVL11:
 149 0026 224B     		ldr	r3, .L11+4
 150 0028 5860     		str	r0, [r3, #4]	@ float
 400:.\main.c      ****     ADC_FlexSensor_R_StartConvert();
 151              		.loc 1 400 0
 152 002a FFF7FEFF 		bl	ADC_FlexSensor_R_StartConvert
 153              	.LVL12:
 154              	.L9:
 401:.\main.c      ****     while (!ADC_FlexSensor_R_IsEndConversion(ADC_FlexSensor_R_RETURN_STATUS));
 155              		.loc 1 401 0 discriminator 1
 156 002e 0120     		movs	r0, #1
 157 0030 FFF7FEFF 		bl	ADC_FlexSensor_R_IsEndConversion
 158              	.LVL13:
 159 0034 0028     		cmp	r0, #0
 160 0036 FAD0     		beq	.L9
 402:.\main.c      ****     uint16_t adcValue2 = ADC_FlexSensor_R_GetResult16();
 161              		.loc 1 402 0
 162 0038 FFF7FEFF 		bl	ADC_FlexSensor_R_GetResult16
 163              	.LVL14:
 164 003c 80B2     		uxth	r0, r0
 165              	.LVL15:
 403:.\main.c      ****     volumeControlCoef2 = (adcValue2 * 2 / 65536.0);  // Normalize and invert ADC value to 0-1 range
 166              		.loc 1 403 0
 167 003e 4000     		lsls	r0, r0, #1
ARM GAS  C:\Users\student\AppData\Local\Temp\cc7xlRSM.s 			page 11


 168              	.LVL16:
 169 0040 FFF7FEFF 		bl	__aeabi_i2d
 170              	.LVL17:
 171 0044 0022     		movs	r2, #0
 172 0046 1B4B     		ldr	r3, .L11+8
 173 0048 FFF7FEFF 		bl	__aeabi_dmul
 174              	.LVL18:
 175 004c FFF7FEFF 		bl	__aeabi_d2f
 176              	.LVL19:
 177 0050 194C     		ldr	r4, .L11+12
 178 0052 A060     		str	r0, [r4, #8]	@ float
 404:.\main.c      **** 	// high adcValue = unflexed, low = flexed
 405:.\main.c      ****     GUI_SetColor(GUI_WHITE);
 179              		.loc 1 405 0
 180 0054 6FF07F40 		mvn	r0, #-16777216
 181 0058 FFF7FEFF 		bl	GUI_SetColor
 182              	.LVL20:
 406:.\main.c      ****     sprintf(volumeControlString1, "Volume: %02u%% ", (uint16)(100*volumeControlCoef1));
 183              		.loc 1 406 0
 184 005c 144B     		ldr	r3, .L11+4
 185 005e 5868     		ldr	r0, [r3, #4]	@ float
 186 0060 1649     		ldr	r1, .L11+16
 187 0062 FFF7FEFF 		bl	__aeabi_fmul
 188              	.LVL21:
 189 0066 FFF7FEFF 		bl	__aeabi_f2uiz
 190              	.LVL22:
 191 006a 82B2     		uxth	r2, r0
 192 006c 144E     		ldr	r6, .L11+20
 193 006e 154D     		ldr	r5, .L11+24
 194 0070 3046     		mov	r0, r6
 195 0072 2946     		mov	r1, r5
 196 0074 FFF7FEFF 		bl	sprintf
 197              	.LVL23:
 407:.\main.c      ****     GUI_DispStringAt(volumeControlString1, 20, 50);
 198              		.loc 1 407 0
 199 0078 3046     		mov	r0, r6
 200 007a 1421     		movs	r1, #20
 201 007c 3222     		movs	r2, #50
 202 007e FFF7FEFF 		bl	GUI_DispStringAt
 203              	.LVL24:
 408:.\main.c      ****     
 409:.\main.c      ****     sprintf(volumeControlString2, "Volume: %02u%% ", (uint16)(100*volumeControlCoef2));
 204              		.loc 1 409 0
 205 0082 A068     		ldr	r0, [r4, #8]	@ float
 206 0084 0D49     		ldr	r1, .L11+16
 207 0086 FFF7FEFF 		bl	__aeabi_fmul
 208              	.LVL25:
 209 008a FFF7FEFF 		bl	__aeabi_f2uiz
 210              	.LVL26:
 211 008e 82B2     		uxth	r2, r0
 212 0090 0D4C     		ldr	r4, .L11+28
 213 0092 2046     		mov	r0, r4
 214 0094 2946     		mov	r1, r5
 215 0096 FFF7FEFF 		bl	sprintf
 216              	.LVL27:
 410:.\main.c      ****     GUI_DispStringAt(volumeControlString2, 120, 50);
 217              		.loc 1 410 0
ARM GAS  C:\Users\student\AppData\Local\Temp\cc7xlRSM.s 			page 12


 218 009a 2046     		mov	r0, r4
 219 009c 7821     		movs	r1, #120
 220 009e 3222     		movs	r2, #50
 221 00a0 FFF7FEFF 		bl	GUI_DispStringAt
 222              	.LVL28:
 411:.\main.c      ****     
 412:.\main.c      ****     //I2C_MASTER_L_MasterSendStart(0x68, 0);      //start the transaction
 413:.\main.c      ****     //I2C_MASTER_L_MasterWriteByte(0x3B);         //The register address for the X-acceleration is 
 414:.\main.c      ****     //I2C_MASTER_L_MasterSendRestart(0x68, 1);    //MasterSendRestart sends another start condition
 415:.\main.c      ****     
 416:.\main.c      ****     //topByte = I2C_MASTER_L_MasterReadByte(I2C_MASTER_L_ACK_DATA);       //receive the first byte 
 417:.\main.c      ****     //bottomByte = I2C_MASTER_L_MasterReadByte(I2C_MASTER_L_NAK_DATA);    //receive the second byte
 418:.\main.c      ****     
 419:.\main.c      ****     //I2C_MASTER_L_MasterSendStop();      //end the transaction
 420:.\main.c      ****     
 421:.\main.c      ****     //combinedData = ((uint16_t)topByte << 8) | (uint16_t)bottomByte;     //combine the two bytes i
 422:.\main.c      **** 
 423:.\main.c      ****     //geeForce = (int16_t)combinedData / LSBperGee;
 424:.\main.c      ****     //sprintf(mpuString1, "Filter: %u", (uint16)(geeForce*10000));
 425:.\main.c      ****     //GUI_DispStringAt(mpuString1, 80, 70);
 426:.\main.c      ****     Get_ADCs_Timer_ReadStatusRegister();
 223              		.loc 1 426 0
 224 00a4 FFF7FEFF 		bl	Get_ADCs_Timer_ReadStatusRegister
 225              	.LVL29:
 226 00a8 70BD     		pop	{r4, r5, r6, pc}
 227              	.L12:
 228 00aa 00BF     		.align	2
 229              	.L11:
 230 00ac 0000303F 		.word	1060110336
 231 00b0 00000000 		.word	.LANCHOR0
 232 00b4 0000F03E 		.word	1055916032
 233 00b8 00000000 		.word	.LANCHOR1
 234 00bc 0000C842 		.word	1120403456
 235 00c0 00000000 		.word	volumeControlString1
 236 00c4 10000000 		.word	.LC1
 237 00c8 00000000 		.word	volumeControlString2
 238              		.cfi_endproc
 239              	.LFE72:
 240              		.size	getADCs, .-getADCs
 241              		.section	.text.DisplayAmplitudeBar,"ax",%progbits
 242              		.align	2
 243              		.global	DisplayAmplitudeBar
 244              		.thumb
 245              		.thumb_func
 246              		.type	DisplayAmplitudeBar, %function
 247              	DisplayAmplitudeBar:
 248              	.LFB63:
  90:.\main.c      ****     int samplesPerSecond = SAMPLE_RATE;
 249              		.loc 1 90 0
 250              		.cfi_startproc
 251              		@ args = 0, pretend = 0, frame = 0
 252              		@ frame_needed = 0, uses_anonymous_args = 0
 253              	.LVL30:
 254 0000 70B5     		push	{r4, r5, r6, lr}
 255              		.cfi_def_cfa_offset 16
 256              		.cfi_offset 4, -16
 257              		.cfi_offset 5, -12
ARM GAS  C:\Users\student\AppData\Local\Temp\cc7xlRSM.s 			page 13


 258              		.cfi_offset 6, -8
 259              		.cfi_offset 14, -4
 260 0002 1546     		mov	r5, r2
 261              	.LVL31:
  98:.\main.c      ****         sumAmplitude += abs(buffer[i]);
 262              		.loc 1 98 0
 263 0004 0023     		movs	r3, #0
  92:.\main.c      ****     int waveformHeight = DISPLAY_HEIGHT * 0.4;
 264              		.loc 1 92 0
 265 0006 1C46     		mov	r4, r3
  98:.\main.c      ****         sumAmplitude += abs(buffer[i]);
 266              		.loc 1 98 0
 267 0008 06E0     		b	.L14
 268              	.LVL32:
 269              	.L15:
  99:.\main.c      ****     }
 270              		.loc 1 99 0 discriminator 3
 271 000a 30F91320 		ldrsh	r2, [r0, r3, lsl #1]
 272 000e 002A     		cmp	r2, #0
 273 0010 B8BF     		it	lt
 274 0012 5242     		rsblt	r2, r2, #0
 275 0014 1444     		add	r4, r4, r2
 276              	.LVL33:
  98:.\main.c      ****         sumAmplitude += abs(buffer[i]);
 277              		.loc 1 98 0 discriminator 3
 278 0016 0133     		adds	r3, r3, #1
 279              	.LVL34:
 280              	.L14:
  98:.\main.c      ****         sumAmplitude += abs(buffer[i]);
 281              		.loc 1 98 0 is_stmt 0 discriminator 1
 282 0018 8B42     		cmp	r3, r1
 283 001a F6D3     		bcc	.L15
 102:.\main.c      **** 
 284              		.loc 1 102 0 is_stmt 1
 285 001c B4FBF1F4 		udiv	r4, r4, r1
 286              	.LVL35:
 105:.\main.c      **** 
 287              		.loc 1 105 0
 288 0020 04EB4404 		add	r4, r4, r4, lsl #1
 289              	.LVL36:
 290 0024 6401     		lsls	r4, r4, #5
 291 0026 2246     		mov	r2, r4
 292 0028 002C     		cmp	r4, #0
 293 002a 02DA     		bge	.L16
 294 002c 04F5FF42 		add	r2, r4, #32640
 295 0030 7F32     		adds	r2, r2, #127
 296              	.L16:
 297 0032 D413     		asrs	r4, r2, #15
 298              	.LVL37:
 107:.\main.c      ****     // Calculate the width of each bar based on the expected number of buffers to display
 299              		.loc 1 107 0
 300 0034 4FF47F00 		mov	r0, #16711680
 301              	.LVL38:
 302 0038 FFF7FEFF 		bl	GUI_SetColor
 303              	.LVL39:
 109:.\main.c      ****     int barWidth = SECONDS_PER_BAR * waveformWidth / numSecs;
 304              		.loc 1 109 0
ARM GAS  C:\Users\student\AppData\Local\Temp\cc7xlRSM.s 			page 14


 305 003c 174B     		ldr	r3, .L20
 306 003e DB68     		ldr	r3, [r3, #12]
 307 0040 2C3B     		subs	r3, r3, #44
 308 0042 174E     		ldr	r6, .L20+4
 309 0044 A6FB0336 		umull	r3, r6, r6, r3
 310              	.LVL40:
 311 0048 C6F38F33 		ubfx	r3, r6, #14, #16
 110:.\main.c      **** 
 312              		.loc 1 110 0
 313 004c 4FF44076 		mov	r6, #768
 314              	.LVL41:
 315 0050 96FBF3F6 		sdiv	r6, r6, r3
 316              	.LVL42:
 116:.\main.c      ****         GUI_SetColor(GUI_BLUE);
 317              		.loc 1 116 0
 318 0054 55B9     		cbnz	r5, .L17
 117:.\main.c      ****         xMidpoint = 60;
 319              		.loc 1 117 0
 320 0056 4FF47F00 		mov	r0, #16711680
 321 005a FFF7FEFF 		bl	GUI_SetColor
 322              	.LVL43:
 119:.\main.c      ****         rectangleIndexTrackOne++;
 323              		.loc 1 119 0
 324 005e 0F4A     		ldr	r2, .L20
 325 0060 1369     		ldr	r3, [r2, #16]
 326              	.LVL44:
 120:.\main.c      ****     } else {
 327              		.loc 1 120 0
 328 0062 1169     		ldr	r1, [r2, #16]
 329 0064 0131     		adds	r1, r1, #1
 330 0066 1161     		str	r1, [r2, #16]
 118:.\main.c      ****         rectangleIndex = rectangleIndexTrackOne;
 331              		.loc 1 118 0
 332 0068 3C22     		movs	r2, #60
 333 006a 09E0     		b	.L18
 334              	.LVL45:
 335              	.L17:
 123:.\main.c      ****         xMidpoint = 180;
 336              		.loc 1 123 0
 337 006c 4FF47F40 		mov	r0, #65280
 338 0070 FFF7FEFF 		bl	GUI_SetColor
 339              	.LVL46:
 125:.\main.c      ****         rectangleIndexTrackTwo++;
 340              		.loc 1 125 0
 341 0074 094A     		ldr	r2, .L20
 342 0076 5369     		ldr	r3, [r2, #20]
 126:.\main.c      ****     }
 343              		.loc 1 126 0
 344 0078 5169     		ldr	r1, [r2, #20]
 345 007a 0131     		adds	r1, r1, #1
 346 007c 5161     		str	r1, [r2, #20]
 124:.\main.c      ****         rectangleIndex = rectangleIndexTrackTwo;
 347              		.loc 1 124 0
 348 007e B422     		movs	r2, #180
 349              	.LVL47:
 350              	.L18:
 128:.\main.c      ****     //char *barHeightBuffer;
ARM GAS  C:\Users\student\AppData\Local\Temp\cc7xlRSM.s 			page 15


 351              		.loc 1 128 0
 352 0080 04EBD474 		add	r4, r4, r4, lsr #31
 353              	.LVL48:
 354 0084 6410     		asrs	r4, r4, #1
 355 0086 06FB03F1 		mul	r1, r6, r3
 356 008a 03FB0663 		mla	r3, r3, r6, r6
 357 008e 101B     		subs	r0, r2, r4
 358 0090 6031     		adds	r1, r1, #96
 359 0092 2244     		add	r2, r2, r4
 360              	.LVL49:
 361 0094 6033     		adds	r3, r3, #96
 362 0096 FFF7FEFF 		bl	GUI_FillRect
 363              	.LVL50:
 364 009a 70BD     		pop	{r4, r5, r6, pc}
 365              	.LVL51:
 366              	.L21:
 367              		.align	2
 368              	.L20:
 369 009c 00000000 		.word	.LANCHOR1
 370 00a0 3BC637BE 		.word	-1103641029
 371              		.cfi_endproc
 372              	.LFE63:
 373              		.size	DisplayAmplitudeBar, .-DisplayAmplitudeBar
 374              		.global	__aeabi_i2f
 375              		.global	__aeabi_f2iz
 376              		.section	.text.adjustVolume,"ax",%progbits
 377              		.align	2
 378              		.global	adjustVolume
 379              		.thumb
 380              		.thumb_func
 381              		.type	adjustVolume, %function
 382              	adjustVolume:
 383              	.LFB64:
 142:.\main.c      **** 	int adjustedSample = (int)(*sample) - SAMPLE_OFFSET;
 384              		.loc 1 142 0
 385              		.cfi_startproc
 386              		@ args = 0, pretend = 0, frame = 0
 387              		@ frame_needed = 0, uses_anonymous_args = 0
 388              	.LVL52:
 389 0000 38B5     		push	{r3, r4, r5, lr}
 390              		.cfi_def_cfa_offset 16
 391              		.cfi_offset 3, -16
 392              		.cfi_offset 4, -12
 393              		.cfi_offset 5, -8
 394              		.cfi_offset 14, -4
 395 0002 0446     		mov	r4, r0
 396 0004 0D46     		mov	r5, r1
 143:.\main.c      **** 	adjustedSample = (int)(adjustedSample * volumeScale);
 397              		.loc 1 143 0
 398 0006 0088     		ldrh	r0, [r0]
 399              	.LVL53:
 144:.\main.c      **** 
 400              		.loc 1 144 0
 401 0008 A0F50040 		sub	r0, r0, #32768
 402              	.LVL54:
 403 000c FFF7FEFF 		bl	__aeabi_i2f
 404              	.LVL55:
ARM GAS  C:\Users\student\AppData\Local\Temp\cc7xlRSM.s 			page 16


 405 0010 2946     		mov	r1, r5
 406 0012 FFF7FEFF 		bl	__aeabi_fmul
 407              	.LVL56:
 408 0016 FFF7FEFF 		bl	__aeabi_f2iz
 409              	.LVL57:
 147:.\main.c      **** 	if (adjustedSample < -32768) adjustedSample = -32768;
 410              		.loc 1 147 0
 411 001a B0F5004F 		cmp	r0, #32768
 412 001e 01DB     		blt	.L23
 413 0020 47F6FF70 		movw	r0, #32767
 414              	.LVL58:
 415              	.L23:
 148:.\main.c      **** 
 416              		.loc 1 148 0
 417 0024 10F5004F 		cmn	r0, #32768
 418 0028 00DA     		bge	.L24
 419 002a 0248     		ldr	r0, .L28
 420              	.LVL59:
 421              	.L24:
 150:.\main.c      **** }
 422              		.loc 1 150 0
 423 002c A0F50040 		sub	r0, r0, #32768
 424              	.LVL60:
 425 0030 2080     		strh	r0, [r4]	@ movhi
 426 0032 38BD     		pop	{r3, r4, r5, pc}
 427              	.LVL61:
 428              	.L29:
 429              		.align	2
 430              	.L28:
 431 0034 0080FFFF 		.word	-32768
 432              		.cfi_endproc
 433              	.LFE64:
 434              		.size	adjustVolume, .-adjustVolume
 435              		.global	__aeabi_fadd
 436              		.global	__aeabi_fdiv
 437              		.global	__aeabi_ui2f
 438              		.global	__aeabi_fsub
 439              		.global	__aeabi_fcmpgt
 440              		.global	__aeabi_fcmplt
 441              		.section	.text.applyFilter,"ax",%progbits
 442              		.align	2
 443              		.global	applyFilter
 444              		.thumb
 445              		.thumb_func
 446              		.type	applyFilter, %function
 447              	applyFilter:
 448              	.LFB65:
 153:.\main.c      **** 	float alpha = dt / (rc + dt);
 449              		.loc 1 153 0
 450              		.cfi_startproc
 451              		@ args = 0, pretend = 0, frame = 0
 452              		@ frame_needed = 0, uses_anonymous_args = 0
 453              	.LVL62:
 454 0000 2DE9F041 		push	{r4, r5, r6, r7, r8, lr}
 455              		.cfi_def_cfa_offset 24
 456              		.cfi_offset 4, -24
 457              		.cfi_offset 5, -20
ARM GAS  C:\Users\student\AppData\Local\Temp\cc7xlRSM.s 			page 17


 458              		.cfi_offset 6, -16
 459              		.cfi_offset 7, -12
 460              		.cfi_offset 8, -8
 461              		.cfi_offset 14, -4
 462 0004 0446     		mov	r4, r0
 463 0006 1546     		mov	r5, r2
 464 0008 1E46     		mov	r6, r3
 154:.\main.c      **** 	float currentInput = (float)(*sample) - SAMPLE_OFFSET;
 465              		.loc 1 154 0
 466 000a 0846     		mov	r0, r1
 467              	.LVL63:
 468 000c 1146     		mov	r1, r2
 469              	.LVL64:
 470 000e FFF7FEFF 		bl	__aeabi_fadd
 471              	.LVL65:
 472 0012 0146     		mov	r1, r0
 473 0014 2846     		mov	r0, r5
 474 0016 FFF7FEFF 		bl	__aeabi_fdiv
 475              	.LVL66:
 476 001a 0546     		mov	r5, r0
 477              	.LVL67:
 155:.\main.c      **** 	float currentOutput;
 478              		.loc 1 155 0
 479 001c 2088     		ldrh	r0, [r4]
 480              	.LVL68:
 481 001e FFF7FEFF 		bl	__aeabi_ui2f
 482              	.LVL69:
 483 0022 4FF08E41 		mov	r1, #1191182336
 484 0026 FFF7FEFF 		bl	__aeabi_fsub
 485              	.LVL70:
 486 002a 0746     		mov	r7, r0
 487              	.LVL71:
 158:.\main.c      ****     	currentOutput = alpha * currentInput + (1 - alpha) * previousOutput;
 488              		.loc 1 158 0
 489 002c C6B9     		cbnz	r6, .L31
 159:.\main.c      **** 	} else { // FILTER_HIGH_PASS
 490              		.loc 1 159 0
 491 002e 2846     		mov	r0, r5
 492              	.LVL72:
 493 0030 3946     		mov	r1, r7
 494 0032 FFF7FEFF 		bl	__aeabi_fmul
 495              	.LVL73:
 496 0036 0646     		mov	r6, r0
 497 0038 4FF07E50 		mov	r0, #1065353216
 498 003c 2946     		mov	r1, r5
 499 003e FFF7FEFF 		bl	__aeabi_fsub
 500              	.LVL74:
 501 0042 0546     		mov	r5, r0
 502              	.LVL75:
 503 0044 254B     		ldr	r3, .L38
 504 0046 9869     		ldr	r0, [r3, #24]
 505 0048 FFF7FEFF 		bl	__aeabi_i2f
 506              	.LVL76:
 507 004c 0146     		mov	r1, r0
 508 004e 2846     		mov	r0, r5
 509 0050 FFF7FEFF 		bl	__aeabi_fmul
 510              	.LVL77:
ARM GAS  C:\Users\student\AppData\Local\Temp\cc7xlRSM.s 			page 18


 511 0054 0146     		mov	r1, r0
 512 0056 3046     		mov	r0, r6
 513 0058 FFF7FEFF 		bl	__aeabi_fadd
 514              	.LVL78:
 515 005c 0546     		mov	r5, r0
 516              	.LVL79:
 517 005e 19E0     		b	.L32
 518              	.LVL80:
 519              	.L31:
 161:.\main.c      **** 	}
 520              		.loc 1 161 0
 521 0060 4FF07E50 		mov	r0, #1065353216
 522              	.LVL81:
 523 0064 2946     		mov	r1, r5
 524 0066 FFF7FEFF 		bl	__aeabi_fsub
 525              	.LVL82:
 526 006a 0646     		mov	r6, r0
 527 006c 1B4D     		ldr	r5, .L38
 528              	.LVL83:
 529 006e A869     		ldr	r0, [r5, #24]
 530 0070 FFF7FEFF 		bl	__aeabi_i2f
 531              	.LVL84:
 532 0074 3946     		mov	r1, r7
 533 0076 FFF7FEFF 		bl	__aeabi_fadd
 534              	.LVL85:
 535 007a 8046     		mov	r8, r0
 536 007c E869     		ldr	r0, [r5, #28]
 537 007e FFF7FEFF 		bl	__aeabi_i2f
 538              	.LVL86:
 539 0082 0146     		mov	r1, r0
 540 0084 4046     		mov	r0, r8
 541 0086 FFF7FEFF 		bl	__aeabi_fsub
 542              	.LVL87:
 543 008a 0146     		mov	r1, r0
 544 008c 3046     		mov	r0, r6
 545 008e FFF7FEFF 		bl	__aeabi_fmul
 546              	.LVL88:
 547 0092 0546     		mov	r5, r0
 548              	.LVL89:
 549              	.L32:
 164:.\main.c      **** 	previousOutput = currentOutput;
 550              		.loc 1 164 0
 551 0094 114E     		ldr	r6, .L38
 552 0096 3846     		mov	r0, r7
 553              	.LVL90:
 554 0098 FFF7FEFF 		bl	__aeabi_f2iz
 555              	.LVL91:
 556 009c F061     		str	r0, [r6, #28]
 165:.\main.c      **** 
 557              		.loc 1 165 0
 558 009e 2846     		mov	r0, r5
 559 00a0 FFF7FEFF 		bl	__aeabi_f2iz
 560              	.LVL92:
 561 00a4 B061     		str	r0, [r6, #24]
 167:.\main.c      **** 	*sample = (uint16_t)(currentOutput > 65535 ? 65535 : currentOutput < 0 ? 0 : currentOutput);
 562              		.loc 1 167 0
 563 00a6 2846     		mov	r0, r5
ARM GAS  C:\Users\student\AppData\Local\Temp\cc7xlRSM.s 			page 19


 564 00a8 4FF08E41 		mov	r1, #1191182336
 565 00ac FFF7FEFF 		bl	__aeabi_fadd
 566              	.LVL93:
 567 00b0 0546     		mov	r5, r0
 568              	.LVL94:
 168:.\main.c      **** }
 569              		.loc 1 168 0
 570 00b2 0B49     		ldr	r1, .L38+4
 571 00b4 FFF7FEFF 		bl	__aeabi_fcmpgt
 572              	.LVL95:
 573 00b8 58B9     		cbnz	r0, .L35
 168:.\main.c      **** }
 574              		.loc 1 168 0 is_stmt 0 discriminator 2
 575 00ba 2846     		mov	r0, r5
 576 00bc 0021     		movs	r1, #0
 577 00be FFF7FEFF 		bl	__aeabi_fcmplt
 578              	.LVL96:
 579 00c2 20B9     		cbnz	r0, .L36
 168:.\main.c      **** }
 580              		.loc 1 168 0 discriminator 5
 581 00c4 2846     		mov	r0, r5
 582 00c6 FFF7FEFF 		bl	__aeabi_f2uiz
 583              	.LVL97:
 584 00ca 80B2     		uxth	r0, r0
 585 00cc 03E0     		b	.L33
 586              	.L36:
 168:.\main.c      **** }
 587              		.loc 1 168 0
 588 00ce 0020     		movs	r0, #0
 589 00d0 01E0     		b	.L33
 590              	.L35:
 591 00d2 4FF6FF70 		movw	r0, #65535
 592              	.L33:
 168:.\main.c      **** }
 593              		.loc 1 168 0 discriminator 8
 594 00d6 2080     		strh	r0, [r4]	@ movhi
 595 00d8 BDE8F081 		pop	{r4, r5, r6, r7, r8, pc}
 596              	.LVL98:
 597              	.L39:
 598              		.align	2
 599              	.L38:
 600 00dc 00000000 		.word	.LANCHOR1
 601 00e0 00FF7F47 		.word	1199570688
 602              		.cfi_endproc
 603              	.LFE65:
 604              		.size	applyFilter, .-applyFilter
 605              		.section	.text.GUI_Initialize,"ax",%progbits
 606              		.align	2
 607              		.global	GUI_Initialize
 608              		.thumb
 609              		.thumb_func
 610              		.type	GUI_Initialize, %function
 611              	GUI_Initialize:
 612              	.LFB66:
 172:.\main.c      **** 	SPIM_TFT_Start();
 613              		.loc 1 172 0 is_stmt 1
 614              		.cfi_startproc
ARM GAS  C:\Users\student\AppData\Local\Temp\cc7xlRSM.s 			page 20


 615              		@ args = 0, pretend = 0, frame = 0
 616              		@ frame_needed = 0, uses_anonymous_args = 0
 617 0000 08B5     		push	{r3, lr}
 618              		.cfi_def_cfa_offset 8
 619              		.cfi_offset 3, -8
 620              		.cfi_offset 14, -4
 173:.\main.c      **** 	GUI_Init();                         	// initialize graphics library
 621              		.loc 1 173 0
 622 0002 FFF7FEFF 		bl	SPIM_TFT_Start
 623              	.LVL99:
 174:.\main.c      **** 	GUI_Clear();
 624              		.loc 1 174 0
 625 0006 FFF7FEFF 		bl	GUI_Init
 626              	.LVL100:
 175:.\main.c      **** 	GUI_SetFont(&GUI_Font8x16);
 627              		.loc 1 175 0
 628 000a FFF7FEFF 		bl	GUI_Clear
 629              	.LVL101:
 176:.\main.c      **** }
 630              		.loc 1 176 0
 631 000e 0248     		ldr	r0, .L42
 632 0010 FFF7FEFF 		bl	GUI_SetFont
 633              	.LVL102:
 634 0014 08BD     		pop	{r3, pc}
 635              	.L43:
 636 0016 00BF     		.align	2
 637              	.L42:
 638 0018 00000000 		.word	GUI_Font8x16
 639              		.cfi_endproc
 640              	.LFE66:
 641              		.size	GUI_Initialize, .-GUI_Initialize
 642              		.section	.text.readWavHeader,"ax",%progbits
 643              		.align	2
 644              		.global	readWavHeader
 645              		.thumb
 646              		.thumb_func
 647              		.type	readWavHeader, %function
 648              	readWavHeader:
 649              	.LFB67:
 179:.\main.c      ****     unsigned char buffer4[4];
 650              		.loc 1 179 0
 651              		.cfi_startproc
 652              		@ args = 0, pretend = 0, frame = 136
 653              		@ frame_needed = 0, uses_anonymous_args = 0
 654              	.LVL103:
 655 0000 10B5     		push	{r4, lr}
 656              		.cfi_def_cfa_offset 8
 657              		.cfi_offset 4, -8
 658              		.cfi_offset 14, -4
 659 0002 A4B0     		sub	sp, sp, #144
 660              		.cfi_def_cfa_offset 152
 661 0004 0446     		mov	r4, r0
 185:.\main.c      ****     sprintf(debugString, "Descriptor: %c%c%c%c", buffer4[0], buffer4[1], buffer4[2], buffer4[3]);
 662              		.loc 1 185 0
 663 0006 23A9     		add	r1, sp, #140
 664 0008 0422     		movs	r2, #4
 665 000a FFF7FEFF 		bl	FS_Read
ARM GAS  C:\Users\student\AppData\Local\Temp\cc7xlRSM.s 			page 21


 666              	.LVL104:
 186:.\main.c      ****     GUI_DispStringAt(debugString, 10, 30);
 667              		.loc 1 186 0
 668 000e 9DF88C20 		ldrb	r2, [sp, #140]	@ zero_extendqisi2
 669 0012 9DF88D30 		ldrb	r3, [sp, #141]	@ zero_extendqisi2
 670 0016 9DF88E00 		ldrb	r0, [sp, #142]	@ zero_extendqisi2
 671 001a 9DF88F10 		ldrb	r1, [sp, #143]	@ zero_extendqisi2
 672 001e 0090     		str	r0, [sp]
 673 0020 0191     		str	r1, [sp, #4]
 674 0022 02A8     		add	r0, sp, #8
 675 0024 7E49     		ldr	r1, .L46
 676 0026 FFF7FEFF 		bl	sprintf
 677              	.LVL105:
 187:.\main.c      **** 
 678              		.loc 1 187 0
 679 002a 02A8     		add	r0, sp, #8
 680 002c 0A21     		movs	r1, #10
 681 002e 1E22     		movs	r2, #30
 682 0030 FFF7FEFF 		bl	GUI_DispStringAt
 683              	.LVL106:
 190:.\main.c      ****     overall_size = buffer4[0] | (buffer4[1] << 8) | (buffer4[2] << 16) | (buffer4[3] << 24);
 684              		.loc 1 190 0
 685 0034 2046     		mov	r0, r4
 686 0036 23A9     		add	r1, sp, #140
 687 0038 0422     		movs	r2, #4
 688 003a FFF7FEFF 		bl	FS_Read
 689              	.LVL107:
 191:.\main.c      ****     sprintf(debugString, "Overall size: %lu bytes", overall_size);
 690              		.loc 1 191 0
 691 003e 9DF88C30 		ldrb	r3, [sp, #140]	@ zero_extendqisi2
 692 0042 9DF88D20 		ldrb	r2, [sp, #141]	@ zero_extendqisi2
 693 0046 43EA0223 		orr	r3, r3, r2, lsl #8
 694 004a 9DF88E20 		ldrb	r2, [sp, #142]	@ zero_extendqisi2
 695 004e 43EA0243 		orr	r3, r3, r2, lsl #16
 696 0052 9DF88F20 		ldrb	r2, [sp, #143]	@ zero_extendqisi2
 697 0056 43EA0263 		orr	r3, r3, r2, lsl #24
 698 005a 724A     		ldr	r2, .L46+4
 699 005c D360     		str	r3, [r2, #12]
 192:.\main.c      ****     GUI_DispStringAt(debugString, 10, 50);
 700              		.loc 1 192 0
 701 005e D268     		ldr	r2, [r2, #12]
 702 0060 02A8     		add	r0, sp, #8
 703 0062 7149     		ldr	r1, .L46+8
 704 0064 FFF7FEFF 		bl	sprintf
 705              	.LVL108:
 193:.\main.c      **** 
 706              		.loc 1 193 0
 707 0068 02A8     		add	r0, sp, #8
 708 006a 0A21     		movs	r1, #10
 709 006c 3222     		movs	r2, #50
 710 006e FFF7FEFF 		bl	GUI_DispStringAt
 711              	.LVL109:
 196:.\main.c      ****     sprintf(debugString, "Format: %c%c%c%c", buffer4[0], buffer4[1], buffer4[2], buffer4[3]);
 712              		.loc 1 196 0
 713 0072 2046     		mov	r0, r4
 714 0074 23A9     		add	r1, sp, #140
 715 0076 0422     		movs	r2, #4
ARM GAS  C:\Users\student\AppData\Local\Temp\cc7xlRSM.s 			page 22


 716 0078 FFF7FEFF 		bl	FS_Read
 717              	.LVL110:
 197:.\main.c      ****     GUI_DispStringAt(debugString, 10, 70);
 718              		.loc 1 197 0
 719 007c 9DF88C20 		ldrb	r2, [sp, #140]	@ zero_extendqisi2
 720 0080 9DF88D30 		ldrb	r3, [sp, #141]	@ zero_extendqisi2
 721 0084 9DF88E00 		ldrb	r0, [sp, #142]	@ zero_extendqisi2
 722 0088 9DF88F10 		ldrb	r1, [sp, #143]	@ zero_extendqisi2
 723 008c 0090     		str	r0, [sp]
 724 008e 0191     		str	r1, [sp, #4]
 725 0090 02A8     		add	r0, sp, #8
 726 0092 6649     		ldr	r1, .L46+12
 727 0094 FFF7FEFF 		bl	sprintf
 728              	.LVL111:
 198:.\main.c      **** 
 729              		.loc 1 198 0
 730 0098 02A8     		add	r0, sp, #8
 731 009a 0A21     		movs	r1, #10
 732 009c 4622     		movs	r2, #70
 733 009e FFF7FEFF 		bl	GUI_DispStringAt
 734              	.LVL112:
 201:.\main.c      ****     sprintf(debugString, "Fmt marker: %c%c%c%c", buffer4[0], buffer4[1], buffer4[2], buffer4[3]);
 735              		.loc 1 201 0
 736 00a2 2046     		mov	r0, r4
 737 00a4 23A9     		add	r1, sp, #140
 738 00a6 0422     		movs	r2, #4
 739 00a8 FFF7FEFF 		bl	FS_Read
 740              	.LVL113:
 202:.\main.c      ****     GUI_DispStringAt(debugString, 10, 90);
 741              		.loc 1 202 0
 742 00ac 9DF88C20 		ldrb	r2, [sp, #140]	@ zero_extendqisi2
 743 00b0 9DF88D30 		ldrb	r3, [sp, #141]	@ zero_extendqisi2
 744 00b4 9DF88E00 		ldrb	r0, [sp, #142]	@ zero_extendqisi2
 745 00b8 9DF88F10 		ldrb	r1, [sp, #143]	@ zero_extendqisi2
 746 00bc 0090     		str	r0, [sp]
 747 00be 0191     		str	r1, [sp, #4]
 748 00c0 02A8     		add	r0, sp, #8
 749 00c2 5B49     		ldr	r1, .L46+16
 750 00c4 FFF7FEFF 		bl	sprintf
 751              	.LVL114:
 203:.\main.c      **** 
 752              		.loc 1 203 0
 753 00c8 02A8     		add	r0, sp, #8
 754 00ca 0A21     		movs	r1, #10
 755 00cc 5A22     		movs	r2, #90
 756 00ce FFF7FEFF 		bl	GUI_DispStringAt
 757              	.LVL115:
 206:.\main.c      ****     uint32 length_of_fmt = buffer4[0] | (buffer4[1] << 8) | (buffer4[2] << 16) | (buffer4[3] << 24)
 758              		.loc 1 206 0
 759 00d2 2046     		mov	r0, r4
 760 00d4 23A9     		add	r1, sp, #140
 761 00d6 0422     		movs	r2, #4
 762 00d8 FFF7FEFF 		bl	FS_Read
 763              	.LVL116:
 207:.\main.c      ****     sprintf(debugString, "Length of fmt: %lu", length_of_fmt);
 764              		.loc 1 207 0
 765 00dc 9DF88C30 		ldrb	r3, [sp, #140]	@ zero_extendqisi2
ARM GAS  C:\Users\student\AppData\Local\Temp\cc7xlRSM.s 			page 23


 766 00e0 9DF88D20 		ldrb	r2, [sp, #141]	@ zero_extendqisi2
 767 00e4 43EA0223 		orr	r3, r3, r2, lsl #8
 768 00e8 9DF88E20 		ldrb	r2, [sp, #142]	@ zero_extendqisi2
 769 00ec 43EA0243 		orr	r3, r3, r2, lsl #16
 770 00f0 9DF88F20 		ldrb	r2, [sp, #143]	@ zero_extendqisi2
 771              	.LVL117:
 208:.\main.c      ****     GUI_DispStringAt(debugString, 10, 110);
 772              		.loc 1 208 0
 773 00f4 02A8     		add	r0, sp, #8
 774 00f6 4F49     		ldr	r1, .L46+20
 775 00f8 43EA0262 		orr	r2, r3, r2, lsl #24
 776              	.LVL118:
 777 00fc FFF7FEFF 		bl	sprintf
 778              	.LVL119:
 209:.\main.c      **** 
 779              		.loc 1 209 0
 780 0100 02A8     		add	r0, sp, #8
 781 0102 0A21     		movs	r1, #10
 782 0104 6E22     		movs	r2, #110
 783 0106 FFF7FEFF 		bl	GUI_DispStringAt
 784              	.LVL120:
 212:.\main.c      ****     uint16 format_type = buffer2[0] | (buffer2[1] << 8);
 785              		.loc 1 212 0
 786 010a 2046     		mov	r0, r4
 787 010c 22A9     		add	r1, sp, #136
 788 010e 0222     		movs	r2, #2
 789 0110 FFF7FEFF 		bl	FS_Read
 790              	.LVL121:
 213:.\main.c      ****     sprintf(debugString, "Format type: %u", format_type);
 791              		.loc 1 213 0
 792 0114 9DF88830 		ldrb	r3, [sp, #136]	@ zero_extendqisi2
 793 0118 9DF88920 		ldrb	r2, [sp, #137]	@ zero_extendqisi2
 794              	.LVL122:
 214:.\main.c      ****     GUI_DispStringAt(debugString, 10, 130);
 795              		.loc 1 214 0
 796 011c 02A8     		add	r0, sp, #8
 797 011e 4649     		ldr	r1, .L46+24
 798 0120 43EA0222 		orr	r2, r3, r2, lsl #8
 799              	.LVL123:
 800 0124 FFF7FEFF 		bl	sprintf
 801              	.LVL124:
 215:.\main.c      **** 
 802              		.loc 1 215 0
 803 0128 02A8     		add	r0, sp, #8
 804 012a 0A21     		movs	r1, #10
 805 012c 8222     		movs	r2, #130
 806 012e FFF7FEFF 		bl	GUI_DispStringAt
 807              	.LVL125:
 218:.\main.c      ****     uint16 channels = buffer2[0] | (buffer2[1] << 8);
 808              		.loc 1 218 0
 809 0132 2046     		mov	r0, r4
 810 0134 22A9     		add	r1, sp, #136
 811 0136 0222     		movs	r2, #2
 812 0138 FFF7FEFF 		bl	FS_Read
 813              	.LVL126:
 219:.\main.c      ****     sprintf(debugString, "Channels: %u", channels);
 814              		.loc 1 219 0
ARM GAS  C:\Users\student\AppData\Local\Temp\cc7xlRSM.s 			page 24


 815 013c 9DF88830 		ldrb	r3, [sp, #136]	@ zero_extendqisi2
 816 0140 9DF88920 		ldrb	r2, [sp, #137]	@ zero_extendqisi2
 817              	.LVL127:
 220:.\main.c      ****     GUI_DispStringAt(debugString, 10, 150);
 818              		.loc 1 220 0
 819 0144 02A8     		add	r0, sp, #8
 820 0146 3D49     		ldr	r1, .L46+28
 821 0148 43EA0222 		orr	r2, r3, r2, lsl #8
 822              	.LVL128:
 823 014c FFF7FEFF 		bl	sprintf
 824              	.LVL129:
 221:.\main.c      **** 
 825              		.loc 1 221 0
 826 0150 02A8     		add	r0, sp, #8
 827 0152 0A21     		movs	r1, #10
 828 0154 9622     		movs	r2, #150
 829 0156 FFF7FEFF 		bl	GUI_DispStringAt
 830              	.LVL130:
 224:.\main.c      ****     uint32 sample_rate = buffer4[0] | (buffer4[1] << 8) | (buffer4[2] << 16) | (buffer4[3] << 24);
 831              		.loc 1 224 0
 832 015a 2046     		mov	r0, r4
 833 015c 23A9     		add	r1, sp, #140
 834 015e 0422     		movs	r2, #4
 835 0160 FFF7FEFF 		bl	FS_Read
 836              	.LVL131:
 225:.\main.c      ****     sprintf(debugString, "Sample rate: %lu", sample_rate);
 837              		.loc 1 225 0
 838 0164 9DF88C30 		ldrb	r3, [sp, #140]	@ zero_extendqisi2
 839 0168 9DF88D20 		ldrb	r2, [sp, #141]	@ zero_extendqisi2
 840 016c 43EA0223 		orr	r3, r3, r2, lsl #8
 841 0170 9DF88E20 		ldrb	r2, [sp, #142]	@ zero_extendqisi2
 842 0174 43EA0243 		orr	r3, r3, r2, lsl #16
 843 0178 9DF88F20 		ldrb	r2, [sp, #143]	@ zero_extendqisi2
 844              	.LVL132:
 226:.\main.c      ****     GUI_DispStringAt(debugString, 10, 170);
 845              		.loc 1 226 0
 846 017c 02A8     		add	r0, sp, #8
 847 017e 3049     		ldr	r1, .L46+32
 848 0180 43EA0262 		orr	r2, r3, r2, lsl #24
 849              	.LVL133:
 850 0184 FFF7FEFF 		bl	sprintf
 851              	.LVL134:
 227:.\main.c      **** 
 852              		.loc 1 227 0
 853 0188 02A8     		add	r0, sp, #8
 854 018a 0A21     		movs	r1, #10
 855 018c AA22     		movs	r2, #170
 856 018e FFF7FEFF 		bl	GUI_DispStringAt
 857              	.LVL135:
 230:.\main.c      ****     uint32 byte_rate = buffer4[0] | (buffer4[1] << 8) | (buffer4[2] << 16) | (buffer4[3] << 24);
 858              		.loc 1 230 0
 859 0192 2046     		mov	r0, r4
 860 0194 23A9     		add	r1, sp, #140
 861 0196 0422     		movs	r2, #4
 862 0198 FFF7FEFF 		bl	FS_Read
 863              	.LVL136:
 231:.\main.c      ****     sprintf(debugString, "Byte rate: %lu", byte_rate);
ARM GAS  C:\Users\student\AppData\Local\Temp\cc7xlRSM.s 			page 25


 864              		.loc 1 231 0
 865 019c 9DF88C30 		ldrb	r3, [sp, #140]	@ zero_extendqisi2
 866 01a0 9DF88D20 		ldrb	r2, [sp, #141]	@ zero_extendqisi2
 867 01a4 43EA0223 		orr	r3, r3, r2, lsl #8
 868 01a8 9DF88E20 		ldrb	r2, [sp, #142]	@ zero_extendqisi2
 869 01ac 43EA0243 		orr	r3, r3, r2, lsl #16
 870 01b0 9DF88F20 		ldrb	r2, [sp, #143]	@ zero_extendqisi2
 871              	.LVL137:
 232:.\main.c      ****     GUI_DispStringAt(debugString, 10, 190);
 872              		.loc 1 232 0
 873 01b4 02A8     		add	r0, sp, #8
 874 01b6 2349     		ldr	r1, .L46+36
 875 01b8 43EA0262 		orr	r2, r3, r2, lsl #24
 876              	.LVL138:
 877 01bc FFF7FEFF 		bl	sprintf
 878              	.LVL139:
 233:.\main.c      **** 
 879              		.loc 1 233 0
 880 01c0 02A8     		add	r0, sp, #8
 881 01c2 0A21     		movs	r1, #10
 882 01c4 BE22     		movs	r2, #190
 883 01c6 FFF7FEFF 		bl	GUI_DispStringAt
 884              	.LVL140:
 236:.\main.c      ****     uint16 block_align = buffer2[0] | (buffer2[1] << 8);
 885              		.loc 1 236 0
 886 01ca 2046     		mov	r0, r4
 887 01cc 22A9     		add	r1, sp, #136
 888 01ce 0222     		movs	r2, #2
 889 01d0 FFF7FEFF 		bl	FS_Read
 890              	.LVL141:
 237:.\main.c      ****     sprintf(debugString, "Block align: %u", block_align);
 891              		.loc 1 237 0
 892 01d4 9DF88830 		ldrb	r3, [sp, #136]	@ zero_extendqisi2
 893 01d8 9DF88920 		ldrb	r2, [sp, #137]	@ zero_extendqisi2
 894              	.LVL142:
 238:.\main.c      ****     GUI_DispStringAt(debugString, 10, 210);
 895              		.loc 1 238 0
 896 01dc 02A8     		add	r0, sp, #8
 897 01de 1A49     		ldr	r1, .L46+40
 898 01e0 43EA0222 		orr	r2, r3, r2, lsl #8
 899              	.LVL143:
 900 01e4 FFF7FEFF 		bl	sprintf
 901              	.LVL144:
 239:.\main.c      **** 
 902              		.loc 1 239 0
 903 01e8 02A8     		add	r0, sp, #8
 904 01ea 0A21     		movs	r1, #10
 905 01ec D222     		movs	r2, #210
 906 01ee FFF7FEFF 		bl	GUI_DispStringAt
 907              	.LVL145:
 242:.\main.c      ****     uint16 bits_per_sample = buffer2[0] | (buffer2[1] << 8);
 908              		.loc 1 242 0
 909 01f2 2046     		mov	r0, r4
 910 01f4 22A9     		add	r1, sp, #136
 911 01f6 0222     		movs	r2, #2
 912 01f8 FFF7FEFF 		bl	FS_Read
 913              	.LVL146:
ARM GAS  C:\Users\student\AppData\Local\Temp\cc7xlRSM.s 			page 26


 243:.\main.c      ****     sprintf(debugString, "Bits per sample: %u", bits_per_sample);
 914              		.loc 1 243 0
 915 01fc 9DF88830 		ldrb	r3, [sp, #136]	@ zero_extendqisi2
 916 0200 9DF88920 		ldrb	r2, [sp, #137]	@ zero_extendqisi2
 917              	.LVL147:
 244:.\main.c      ****     GUI_DispStringAt(debugString, 10, 230);
 918              		.loc 1 244 0
 919 0204 02A8     		add	r0, sp, #8
 920 0206 1149     		ldr	r1, .L46+44
 921 0208 43EA0222 		orr	r2, r3, r2, lsl #8
 922              	.LVL148:
 923 020c FFF7FEFF 		bl	sprintf
 924              	.LVL149:
 245:.\main.c      **** }
 925              		.loc 1 245 0
 926 0210 02A8     		add	r0, sp, #8
 927 0212 0A21     		movs	r1, #10
 928 0214 E622     		movs	r2, #230
 929 0216 FFF7FEFF 		bl	GUI_DispStringAt
 930              	.LVL150:
 246:.\main.c      **** 
 931              		.loc 1 246 0
 932 021a 24B0     		add	sp, sp, #144
 933              		.cfi_def_cfa_offset 8
 934              		@ sp needed
 935 021c 10BD     		pop	{r4, pc}
 936              	.LVL151:
 937              	.L47:
 938 021e 00BF     		.align	2
 939              	.L46:
 940 0220 20000000 		.word	.LC2
 941 0224 00000000 		.word	.LANCHOR1
 942 0228 38000000 		.word	.LC3
 943 022c 50000000 		.word	.LC4
 944 0230 64000000 		.word	.LC5
 945 0234 7C000000 		.word	.LC6
 946 0238 90000000 		.word	.LC7
 947 023c A0000000 		.word	.LC8
 948 0240 B0000000 		.word	.LC9
 949 0244 C4000000 		.word	.LC10
 950 0248 D4000000 		.word	.LC11
 951 024c E4000000 		.word	.LC12
 952              		.cfi_endproc
 953              	.LFE67:
 954              		.size	readWavHeader, .-readWavHeader
 955              		.section	.text.InitializeAudioFile,"ax",%progbits
 956              		.align	2
 957              		.global	InitializeAudioFile
 958              		.thumb
 959              		.thumb_func
 960              		.type	InitializeAudioFile, %function
 961              	InitializeAudioFile:
 962              	.LFB68:
 248:.\main.c      ****     char sdVolName[10];
 963              		.loc 1 248 0
 964              		.cfi_startproc
 965              		@ args = 0, pretend = 0, frame = 456
ARM GAS  C:\Users\student\AppData\Local\Temp\cc7xlRSM.s 			page 27


 966              		@ frame_needed = 0, uses_anonymous_args = 0
 967 0000 30B5     		push	{r4, r5, lr}
 968              		.cfi_def_cfa_offset 12
 969              		.cfi_offset 4, -12
 970              		.cfi_offset 5, -8
 971              		.cfi_offset 14, -4
 972 0002 F3B0     		sub	sp, sp, #460
 973              		.cfi_def_cfa_offset 472
 250:.\main.c      ****     CyDelay(2000u);  // Delay to ensure stability after initialization
 974              		.loc 1 250 0
 975 0004 FFF7FEFF 		bl	FS_Init
 976              	.LVL152:
 251:.\main.c      **** 
 977              		.loc 1 251 0
 978 0008 4FF4FA60 		mov	r0, #2000
 979 000c FFF7FEFF 		bl	CyDelay
 980              	.LVL153:
 253:.\main.c      ****         sdVolName[sizeof(sdVolName) - 1] = '\0';  // Ensure null termination
 981              		.loc 1 253 0
 982 0010 0020     		movs	r0, #0
 983 0012 6FA9     		add	r1, sp, #444
 984 0014 0922     		movs	r2, #9
 985 0016 FFF7FEFF 		bl	FS_GetVolumeName
 986              	.LVL154:
 987 001a 68B9     		cbnz	r0, .L49
 254:.\main.c      ****         GUI_DispStringAt("SD card name:", 10, 10);
 988              		.loc 1 254 0
 989 001c 0023     		movs	r3, #0
 990 001e 8DF8C531 		strb	r3, [sp, #453]
 255:.\main.c      ****         GUI_DispStringAt(sdVolName, 10, 30);
 991              		.loc 1 255 0
 992 0022 7E48     		ldr	r0, .L66
 993 0024 0A21     		movs	r1, #10
 994 0026 0A46     		mov	r2, r1
 995 0028 FFF7FEFF 		bl	GUI_DispStringAt
 996              	.LVL155:
 256:.\main.c      ****     } else {
 997              		.loc 1 256 0
 998 002c 6FA8     		add	r0, sp, #444
 999 002e 0A21     		movs	r1, #10
 1000 0030 1E22     		movs	r2, #30
 1001 0032 FFF7FEFF 		bl	GUI_DispStringAt
 1002              	.LVL156:
 1003 0036 04E0     		b	.L50
 1004              	.L49:
 258:.\main.c      ****     }
 1005              		.loc 1 258 0
 1006 0038 7948     		ldr	r0, .L66+4
 1007 003a 0A21     		movs	r1, #10
 1008 003c 0A46     		mov	r2, r1
 1009 003e FFF7FEFF 		bl	GUI_DispStringAt
 1010              	.LVL157:
 1011              	.L50:
 261:.\main.c      ****         GUI_DispStringAt("Failed to mount SD", 10, 50);
 1012              		.loc 1 261 0
 1013 0042 7848     		ldr	r0, .L66+8
 1014 0044 FFF7FEFF 		bl	FS_Mount
ARM GAS  C:\Users\student\AppData\Local\Temp\cc7xlRSM.s 			page 28


 1015              	.LVL158:
 1016 0048 28B9     		cbnz	r0, .L51
 262:.\main.c      ****         return;
 1017              		.loc 1 262 0
 1018 004a 7748     		ldr	r0, .L66+12
 1019 004c 0A21     		movs	r1, #10
 1020 004e 3222     		movs	r2, #50
 1021 0050 FFF7FEFF 		bl	GUI_DispStringAt
 1022              	.LVL159:
 1023 0054 E0E0     		b	.L48
 1024              	.L51:
 265:.\main.c      ****     }
 1025              		.loc 1 265 0
 1026 0056 7548     		ldr	r0, .L66+16
 1027 0058 0A21     		movs	r1, #10
 1028 005a 3222     		movs	r2, #50
 1029 005c FFF7FEFF 		bl	GUI_DispStringAt
 1030              	.LVL160:
 271:.\main.c      ****         do {
 1031              		.loc 1 271 0
 1032 0060 60A8     		add	r0, sp, #384
 1033 0062 7349     		ldr	r1, .L66+20
 1034 0064 734A     		ldr	r2, .L66+24
 1035 0066 1023     		movs	r3, #16
 1036 0068 FFF7FEFF 		bl	FS_FindFirstFile
 1037              	.LVL161:
 1038 006c F8B1     		cbz	r0, .L53
 1039              	.LBB2:
 274:.\main.c      ****             strcat(fileString, filename);
 1040              		.loc 1 274 0
 1041 006e 724B     		ldr	r3, .L66+28
 1042 0070 03CB     		ldmia	r3!, {r0, r1}
 1043 0072 0024     		movs	r4, #0
 1044 0074 2060     		str	r0, [r4]	@ unaligned
 1045 0076 6160     		str	r1, [r4, #4]	@ unaligned
 1046 0078 1A88     		ldrh	r2, [r3]	@ unaligned
 1047 007a 9B78     		ldrb	r3, [r3, #2]	@ zero_extendqisi2
 1048 007c 2281     		strh	r2, [r4, #8]	@ unaligned
 1049 007e A372     		strb	r3, [r4, #10]
 275:.\main.c      ****             strcat(fileString, ",");
 1050              		.loc 1 275 0
 1051 0080 2046     		mov	r0, r4
 1052 0082 20A9     		add	r1, sp, #128
 1053 0084 FFF7FEFF 		bl	strcat
 1054              	.LVL162:
 276:.\main.c      ****             GUI_DispStringAt("HERE", 10, 70);  // Display file name
 1055              		.loc 1 276 0
 1056 0088 2046     		mov	r0, r4
 1057 008a FFF7FEFF 		bl	strlen
 1058              	.LVL163:
 1059 008e 6B4B     		ldr	r3, .L66+32
 1060 0090 1B88     		ldrh	r3, [r3]	@ unaligned
 1061 0092 2352     		strh	r3, [r4, r0]	@ unaligned
 277:.\main.c      ****             CyDelay(500);  // Delay for visibility
 1062              		.loc 1 277 0
 1063 0094 6A48     		ldr	r0, .L66+36
 1064 0096 0A21     		movs	r1, #10
ARM GAS  C:\Users\student\AppData\Local\Temp\cc7xlRSM.s 			page 29


 1065 0098 4622     		movs	r2, #70
 1066 009a FFF7FEFF 		bl	GUI_DispStringAt
 1067              	.LVL164:
 278:.\main.c      ****         } while(0);  // Corrected to remove extra arguments
 1068              		.loc 1 278 0
 1069 009e 4FF4FA70 		mov	r0, #500
 1070 00a2 FFF7FEFF 		bl	CyDelay
 1071              	.LVL165:
 1072              	.LBE2:
 280:.\main.c      ****     } else {
 1073              		.loc 1 280 0
 1074 00a6 60A8     		add	r0, sp, #384
 1075 00a8 FFF7FEFF 		bl	FS_FindClose
 1076              	.LVL166:
 1077 00ac 04E0     		b	.L54
 1078              	.L53:
 282:.\main.c      ****     }
 1079              		.loc 1 282 0
 1080 00ae 6548     		ldr	r0, .L66+40
 1081 00b0 0A21     		movs	r1, #10
 1082 00b2 4622     		movs	r2, #70
 1083 00b4 FFF7FEFF 		bl	GUI_DispStringAt
 1084              	.LVL167:
 1085              	.L54:
 286:.\main.c      ****     if (audioFile1) {
 1086              		.loc 1 286 0
 1087 00b8 5E48     		ldr	r0, .L66+24
 1088 00ba 6349     		ldr	r1, .L66+44
 1089 00bc FFF7FEFF 		bl	FS_FOpen
 1090              	.LVL168:
 1091 00c0 624B     		ldr	r3, .L66+48
 1092 00c2 1862     		str	r0, [r3, #32]
 287:.\main.c      ****         GUI_DispStringAt("File opened successfully", 10, 130);
 1093              		.loc 1 287 0
 1094 00c4 0028     		cmp	r0, #0
 1095 00c6 32D0     		beq	.L55
 1096              	.LBB3:
 288:.\main.c      ****         readWavHeader(audioFile1);
 1097              		.loc 1 288 0
 1098 00c8 6148     		ldr	r0, .L66+52
 1099 00ca 0A21     		movs	r1, #10
 1100 00cc 8222     		movs	r2, #130
 1101 00ce FFF7FEFF 		bl	GUI_DispStringAt
 1102              	.LVL169:
 289:.\main.c      ****         //FS_FSeek(audioFile, 44, FS_SEEK_SET); // skip the WAV header
 1103              		.loc 1 289 0
 1104 00d2 5E4C     		ldr	r4, .L66+48
 1105 00d4 206A     		ldr	r0, [r4, #32]
 1106 00d6 FFF7FEFF 		bl	readWavHeader
 1107              	.LVL170:
 291:.\main.c      ****         loadingBufferFill = FS_Read(audioFile1, loadingBuffer1, AUDIO_BUFFER_SIZE * sizeof(uint16_t
 1108              		.loc 1 291 0
 1109 00da 5E4D     		ldr	r5, .L66+56
 1110 00dc 206A     		ldr	r0, [r4, #32]
 1111 00de A969     		ldr	r1, [r5, #24]
 1112 00e0 42F6F872 		movw	r2, #12280
 1113 00e4 FFF7FEFF 		bl	FS_Read
ARM GAS  C:\Users\student\AppData\Local\Temp\cc7xlRSM.s 			page 30


 1114              	.LVL171:
 1115 00e8 4008     		lsrs	r0, r0, #1
 1116 00ea 6062     		str	r0, [r4, #36]
 292:.\main.c      ****         char textBuffer[128];
 1117              		.loc 1 292 0
 1118 00ec 206A     		ldr	r0, [r4, #32]
 1119 00ee E969     		ldr	r1, [r5, #28]
 1120 00f0 42F6F872 		movw	r2, #12280
 1121 00f4 FFF7FEFF 		bl	FS_Read
 1122              	.LVL172:
 1123 00f8 4008     		lsrs	r0, r0, #1
 1124 00fa A062     		str	r0, [r4, #40]
 294:.\main.c      ****         
 1125              		.loc 1 294 0
 1126 00fc 626A     		ldr	r2, [r4, #36]
 1127 00fe 6846     		mov	r0, sp
 1128 0100 5549     		ldr	r1, .L66+60
 1129 0102 FFF7FEFF 		bl	sprintf
 1130              	.LVL173:
 296:.\main.c      ****         if (currentBufferFill > 0) {
 1131              		.loc 1 296 0
 1132 0106 6846     		mov	r0, sp
 1133 0108 0A21     		movs	r1, #10
 1134 010a 4FF48C72 		mov	r2, #280
 1135 010e FFF7FEFF 		bl	GUI_DispStringAt
 1136              	.LVL174:
 297:.\main.c      ****             GUI_DispStringAt("Data loaded into buffer", 10, 150);
 1137              		.loc 1 297 0
 1138 0112 636A     		ldr	r3, [r4, #36]
 1139 0114 2BB1     		cbz	r3, .L56
 298:.\main.c      ****         } else {
 1140              		.loc 1 298 0
 1141 0116 5148     		ldr	r0, .L66+64
 1142 0118 0A21     		movs	r1, #10
 1143 011a 9622     		movs	r2, #150
 1144 011c FFF7FEFF 		bl	GUI_DispStringAt
 1145              	.LVL175:
 1146 0120 0AE0     		b	.L58
 1147              	.L56:
 300:.\main.c      ****         }
 1148              		.loc 1 300 0
 1149 0122 4F48     		ldr	r0, .L66+68
 1150 0124 0A21     		movs	r1, #10
 1151 0126 AA22     		movs	r2, #170
 1152 0128 FFF7FEFF 		bl	GUI_DispStringAt
 1153              	.LVL176:
 1154 012c 04E0     		b	.L58
 1155              	.L55:
 1156              	.LBE3:
 303:.\main.c      ****     }
 1157              		.loc 1 303 0
 1158 012e 4D48     		ldr	r0, .L66+72
 1159 0130 0A21     		movs	r1, #10
 1160 0132 8222     		movs	r2, #130
 1161 0134 FFF7FEFF 		bl	GUI_DispStringAt
 1162              	.LVL177:
 1163              	.L58:
ARM GAS  C:\Users\student\AppData\Local\Temp\cc7xlRSM.s 			page 31


 306:.\main.c      ****     FS_FIND_DATA fd2;
 1164              		.loc 1 306 0
 1165 0138 4FF47A70 		mov	r0, #1000
 1166 013c FFF7FEFF 		bl	CyDelay
 1167              	.LVL178:
 308:.\main.c      ****         do {
 1168              		.loc 1 308 0
 1169 0140 60A8     		add	r0, sp, #384
 1170 0142 3B49     		ldr	r1, .L66+20
 1171 0144 484A     		ldr	r2, .L66+76
 1172 0146 1023     		movs	r3, #16
 1173 0148 FFF7FEFF 		bl	FS_FindFirstFile
 1174              	.LVL179:
 1175 014c F8B1     		cbz	r0, .L59
 1176              	.LBB4:
 311:.\main.c      ****             strcat(fileString, filename);
 1177              		.loc 1 311 0
 1178 014e 3A4B     		ldr	r3, .L66+28
 1179 0150 03CB     		ldmia	r3!, {r0, r1}
 1180 0152 0024     		movs	r4, #0
 1181 0154 2060     		str	r0, [r4]	@ unaligned
 1182 0156 6160     		str	r1, [r4, #4]	@ unaligned
 1183 0158 1A88     		ldrh	r2, [r3]	@ unaligned
 1184 015a 9B78     		ldrb	r3, [r3, #2]	@ zero_extendqisi2
 1185 015c 2281     		strh	r2, [r4, #8]	@ unaligned
 1186 015e A372     		strb	r3, [r4, #10]
 312:.\main.c      ****             strcat(fileString, ",");
 1187              		.loc 1 312 0
 1188 0160 2046     		mov	r0, r4
 1189 0162 20A9     		add	r1, sp, #128
 1190 0164 FFF7FEFF 		bl	strcat
 1191              	.LVL180:
 313:.\main.c      ****             GUI_DispStringAt("HERE", 10, 70);  // Display file name
 1192              		.loc 1 313 0
 1193 0168 2046     		mov	r0, r4
 1194 016a FFF7FEFF 		bl	strlen
 1195              	.LVL181:
 1196 016e 334B     		ldr	r3, .L66+32
 1197 0170 1B88     		ldrh	r3, [r3]	@ unaligned
 1198 0172 2352     		strh	r3, [r4, r0]	@ unaligned
 314:.\main.c      ****             CyDelay(500);  // Delay for visibility
 1199              		.loc 1 314 0
 1200 0174 3248     		ldr	r0, .L66+36
 1201 0176 0A21     		movs	r1, #10
 1202 0178 4622     		movs	r2, #70
 1203 017a FFF7FEFF 		bl	GUI_DispStringAt
 1204              	.LVL182:
 315:.\main.c      ****         } while(0);  // Corrected to remove extra arguments
 1205              		.loc 1 315 0
 1206 017e 4FF4FA70 		mov	r0, #500
 1207 0182 FFF7FEFF 		bl	CyDelay
 1208              	.LVL183:
 1209              	.LBE4:
 317:.\main.c      ****     } else {
 1210              		.loc 1 317 0
 1211 0186 60A8     		add	r0, sp, #384
 1212 0188 FFF7FEFF 		bl	FS_FindClose
ARM GAS  C:\Users\student\AppData\Local\Temp\cc7xlRSM.s 			page 32


 1213              	.LVL184:
 1214 018c 04E0     		b	.L60
 1215              	.L59:
 319:.\main.c      ****     }
 1216              		.loc 1 319 0
 1217 018e 2D48     		ldr	r0, .L66+40
 1218 0190 0A21     		movs	r1, #10
 1219 0192 4622     		movs	r2, #70
 1220 0194 FFF7FEFF 		bl	GUI_DispStringAt
 1221              	.LVL185:
 1222              	.L60:
 322:.\main.c      ****     if (audioFile2) {
 1223              		.loc 1 322 0
 1224 0198 3348     		ldr	r0, .L66+76
 1225 019a 2B49     		ldr	r1, .L66+44
 1226 019c FFF7FEFF 		bl	FS_FOpen
 1227              	.LVL186:
 1228 01a0 2A4B     		ldr	r3, .L66+48
 1229 01a2 D862     		str	r0, [r3, #44]
 323:.\main.c      ****         GUI_DispStringAt("File opened successfully", 10, 130);
 1230              		.loc 1 323 0
 1231 01a4 0028     		cmp	r0, #0
 1232 01a6 32D0     		beq	.L61
 1233              	.LBB5:
 324:.\main.c      ****         readWavHeader(audioFile2);
 1234              		.loc 1 324 0
 1235 01a8 2948     		ldr	r0, .L66+52
 1236 01aa 0A21     		movs	r1, #10
 1237 01ac 8222     		movs	r2, #130
 1238 01ae FFF7FEFF 		bl	GUI_DispStringAt
 1239              	.LVL187:
 325:.\main.c      ****         //FS_FSeek(audioFile, 44, FS_SEEK_SET); // skip the WAV header
 1240              		.loc 1 325 0
 1241 01b2 264C     		ldr	r4, .L66+48
 1242 01b4 E06A     		ldr	r0, [r4, #44]
 1243 01b6 FFF7FEFF 		bl	readWavHeader
 1244              	.LVL188:
 327:.\main.c      ****         loadingBufferFill = FS_Read(audioFile2, loadingBuffer2, AUDIO_BUFFER_SIZE * sizeof(uint16_t
 1245              		.loc 1 327 0
 1246 01ba 264D     		ldr	r5, .L66+56
 1247 01bc E06A     		ldr	r0, [r4, #44]
 1248 01be 296B     		ldr	r1, [r5, #48]
 1249 01c0 42F6F872 		movw	r2, #12280
 1250 01c4 FFF7FEFF 		bl	FS_Read
 1251              	.LVL189:
 1252 01c8 4008     		lsrs	r0, r0, #1
 1253 01ca 6062     		str	r0, [r4, #36]
 328:.\main.c      ****         char textBuffer[128];
 1254              		.loc 1 328 0
 1255 01cc E06A     		ldr	r0, [r4, #44]
 1256 01ce 696B     		ldr	r1, [r5, #52]
 1257 01d0 42F6F872 		movw	r2, #12280
 1258 01d4 FFF7FEFF 		bl	FS_Read
 1259              	.LVL190:
 1260 01d8 4008     		lsrs	r0, r0, #1
 1261 01da A062     		str	r0, [r4, #40]
 330:.\main.c      ****         
ARM GAS  C:\Users\student\AppData\Local\Temp\cc7xlRSM.s 			page 33


 1262              		.loc 1 330 0
 1263 01dc 626A     		ldr	r2, [r4, #36]
 1264 01de 6846     		mov	r0, sp
 1265 01e0 1D49     		ldr	r1, .L66+60
 1266 01e2 FFF7FEFF 		bl	sprintf
 1267              	.LVL191:
 332:.\main.c      ****         if (currentBufferFill > 0) {
 1268              		.loc 1 332 0
 1269 01e6 6846     		mov	r0, sp
 1270 01e8 0A21     		movs	r1, #10
 1271 01ea 4FF48C72 		mov	r2, #280
 1272 01ee FFF7FEFF 		bl	GUI_DispStringAt
 1273              	.LVL192:
 333:.\main.c      ****             GUI_DispStringAt("Data loaded into buffer", 10, 150);
 1274              		.loc 1 333 0
 1275 01f2 636A     		ldr	r3, [r4, #36]
 1276 01f4 2BB1     		cbz	r3, .L62
 334:.\main.c      ****         } else {
 1277              		.loc 1 334 0
 1278 01f6 1948     		ldr	r0, .L66+64
 1279 01f8 0A21     		movs	r1, #10
 1280 01fa 9622     		movs	r2, #150
 1281 01fc FFF7FEFF 		bl	GUI_DispStringAt
 1282              	.LVL193:
 1283 0200 0AE0     		b	.L48
 1284              	.L62:
 336:.\main.c      ****         }
 1285              		.loc 1 336 0
 1286 0202 1748     		ldr	r0, .L66+68
 1287 0204 0A21     		movs	r1, #10
 1288 0206 AA22     		movs	r2, #170
 1289 0208 FFF7FEFF 		bl	GUI_DispStringAt
 1290              	.LVL194:
 1291 020c 04E0     		b	.L48
 1292              	.L61:
 1293              	.LBE5:
 339:.\main.c      ****     }
 1294              		.loc 1 339 0
 1295 020e 1548     		ldr	r0, .L66+72
 1296 0210 0A21     		movs	r1, #10
 1297 0212 8222     		movs	r2, #130
 1298 0214 FFF7FEFF 		bl	GUI_DispStringAt
 1299              	.LVL195:
 1300              	.L48:
 341:.\main.c      **** 
 1301              		.loc 1 341 0
 1302 0218 73B0     		add	sp, sp, #460
 1303              		.cfi_def_cfa_offset 12
 1304              		@ sp needed
 1305 021a 30BD     		pop	{r4, r5, pc}
 1306              	.L67:
 1307              		.align	2
 1308              	.L66:
 1309 021c F8000000 		.word	.LC13
 1310 0220 08010000 		.word	.LC14
 1311 0224 24010000 		.word	.LC15
 1312 0228 28010000 		.word	.LC16
ARM GAS  C:\Users\student\AppData\Local\Temp\cc7xlRSM.s 			page 34


 1313 022c 3C010000 		.word	.LC17
 1314 0230 4C010000 		.word	.LC18
 1315 0234 08000000 		.word	.LANCHOR0+8
 1316 0238 58010000 		.word	.LC19
 1317 023c 64010000 		.word	.LC20
 1318 0240 68010000 		.word	.LC21
 1319 0244 70010000 		.word	.LC22
 1320 0248 80010000 		.word	.LC23
 1321 024c 00000000 		.word	.LANCHOR1
 1322 0250 84010000 		.word	.LC24
 1323 0254 00000000 		.word	.LANCHOR0
 1324 0258 A0010000 		.word	.LC25
 1325 025c B0010000 		.word	.LC26
 1326 0260 C8010000 		.word	.LC27
 1327 0264 DC010000 		.word	.LC28
 1328 0268 20000000 		.word	.LANCHOR0+32
 1329              		.cfi_endproc
 1330              	.LFE68:
 1331              		.size	InitializeAudioFile, .-InitializeAudioFile
 1332              		.global	__aeabi_d2iz
 1333              		.section	.text.playAudio,"ax",%progbits
 1334              		.align	2
 1335              		.global	playAudio
 1336              		.thumb
 1337              		.thumb_func
 1338              		.type	playAudio, %function
 1339              	playAudio:
 1340              	.LFB69:
 343:.\main.c      ****     signed short int signedSample1 = currentBuffer1[audioSampleIndex];
 1341              		.loc 1 343 0
 1342              		.cfi_startproc
 1343              		@ args = 0, pretend = 0, frame = 0
 1344              		@ frame_needed = 0, uses_anonymous_args = 0
 1345 0000 2DE9F843 		push	{r3, r4, r5, r6, r7, r8, r9, lr}
 1346              		.cfi_def_cfa_offset 32
 1347              		.cfi_offset 3, -32
 1348              		.cfi_offset 4, -28
 1349              		.cfi_offset 5, -24
 1350              		.cfi_offset 6, -20
 1351              		.cfi_offset 7, -16
 1352              		.cfi_offset 8, -12
 1353              		.cfi_offset 9, -8
 1354              		.cfi_offset 14, -4
 344:.\main.c      ****     signed short int signedSample2 = currentBuffer2[audioSampleIndex];
 1355              		.loc 1 344 0
 1356 0004 284C     		ldr	r4, .L74+8
 1357 0006 226B     		ldr	r2, [r4, #48]
 1358 0008 284D     		ldr	r5, .L74+12
 1359 000a AB69     		ldr	r3, [r5, #24]
 1360 000c 33F81290 		ldrh	r9, [r3, r2, lsl #1]
 1361              	.LVL196:
 345:.\main.c      ****     
 1362              		.loc 1 345 0
 1363 0010 226B     		ldr	r2, [r4, #48]
 1364 0012 2B6B     		ldr	r3, [r5, #48]
 1365 0014 33F81270 		ldrh	r7, [r3, r2, lsl #1]
 1366              	.LVL197:
ARM GAS  C:\Users\student\AppData\Local\Temp\cc7xlRSM.s 			page 35


 348:.\main.c      ****     float scalingFactor1 = volumeControlCoef1 / totalVolumeControl;
 1367              		.loc 1 348 0
 1368 0018 6868     		ldr	r0, [r5, #4]	@ float
 1369 001a A168     		ldr	r1, [r4, #8]	@ float
 1370 001c FFF7FEFF 		bl	__aeabi_fadd
 1371              	.LVL198:
 1372 0020 0646     		mov	r6, r0
 1373              	.LVL199:
 349:.\main.c      ****     float scalingFactor2 = volumeControlCoef2 / totalVolumeControl;
 1374              		.loc 1 349 0
 1375 0022 6868     		ldr	r0, [r5, #4]	@ float
 1376              	.LVL200:
 1377 0024 3146     		mov	r1, r6
 1378 0026 FFF7FEFF 		bl	__aeabi_fdiv
 1379              	.LVL201:
 1380 002a 8046     		mov	r8, r0
 1381              	.LVL202:
 350:.\main.c      ****     signedSample1 = (signed short int)(signedSample1 * scalingFactor1);
 1382              		.loc 1 350 0
 1383 002c A068     		ldr	r0, [r4, #8]	@ float
 1384              	.LVL203:
 1385 002e 3146     		mov	r1, r6
 1386 0030 FFF7FEFF 		bl	__aeabi_fdiv
 1387              	.LVL204:
 1388 0034 0546     		mov	r5, r0
 1389              	.LVL205:
 351:.\main.c      ****     signedSample2 = (signed short int)(signedSample2 * scalingFactor2);
 1390              		.loc 1 351 0
 1391 0036 0FFA89F0 		sxth	r0, r9
 1392              	.LVL206:
 1393 003a FFF7FEFF 		bl	__aeabi_i2f
 1394              	.LVL207:
 1395 003e 4146     		mov	r1, r8
 1396 0040 FFF7FEFF 		bl	__aeabi_fmul
 1397              	.LVL208:
 1398 0044 FFF7FEFF 		bl	__aeabi_f2iz
 1399              	.LVL209:
 1400 0048 84B2     		uxth	r4, r0
 1401              	.LVL210:
 352:.\main.c      ****     
 1402              		.loc 1 352 0
 1403 004a 38B2     		sxth	r0, r7
 1404 004c FFF7FEFF 		bl	__aeabi_i2f
 1405              	.LVL211:
 1406 0050 2946     		mov	r1, r5
 1407 0052 FFF7FEFF 		bl	__aeabi_fmul
 1408              	.LVL212:
 1409 0056 FFF7FEFF 		bl	__aeabi_f2iz
 1410              	.LVL213:
 354:.\main.c      ****     
 1411              		.loc 1 354 0
 1412 005a 24B2     		sxth	r4, r4
 1413 005c 00B2     		sxth	r0, r0
 1414 005e 2044     		add	r0, r0, r4
 1415              	.LVL214:
 1416 0060 FFF7FEFF 		bl	__aeabi_i2d
 1417              	.LVL215:
ARM GAS  C:\Users\student\AppData\Local\Temp\cc7xlRSM.s 			page 36


 1418 0064 0EA3     		adr	r3, .L74
 1419 0066 D3E90023 		ldrd	r2, [r3]
 1420 006a FFF7FEFF 		bl	__aeabi_dmul
 1421              	.LVL216:
 1422 006e FFF7FEFF 		bl	__aeabi_d2iz
 1423              	.LVL217:
 356:.\main.c      ****     if (mixedSample < -32768) mixedSample = -32768;
 1424              		.loc 1 356 0
 1425 0072 B0F5004F 		cmp	r0, #32768
 1426 0076 01DB     		blt	.L69
 1427 0078 47F6FF70 		movw	r0, #32767
 1428              	.LVL218:
 1429              	.L69:
 357:.\main.c      ****     //signedSample *= volumeControlCoef;
 1430              		.loc 1 357 0
 1431 007c 10F5004F 		cmn	r0, #32768
 1432 0080 00DA     		bge	.L70
 1433 0082 0B48     		ldr	r0, .L74+16
 1434              	.LVL219:
 1435              	.L70:
 359:.\main.c      ****     //adjustVolume(&adjustedSample, 0.3); // Adjust volume
 1436              		.loc 1 359 0
 1437 0084 A0F50040 		sub	r0, r0, #32768
 1438              	.LVL220:
 362:.\main.c      ****     SPIM_Audio_WriteTxData(adjustedSample);
 1439              		.loc 1 362 0
 1440 0088 074A     		ldr	r2, .L74+8
 1441 008a 136B     		ldr	r3, [r2, #48]
 1442 008c 0133     		adds	r3, r3, #1
 1443 008e 1363     		str	r3, [r2, #48]
 363:.\main.c      **** }
 1444              		.loc 1 363 0
 1445 0090 80B2     		uxth	r0, r0
 1446              	.LVL221:
 1447 0092 FFF7FEFF 		bl	SPIM_Audio_WriteTxData
 1448              	.LVL222:
 1449 0096 BDE8F883 		pop	{r3, r4, r5, r6, r7, r8, r9, pc}
 1450              	.LVL223:
 1451              	.L75:
 1452 009a 00BFAFF3 		.align	3
 1452      0080
 1453              	.L74:
 1454 00a0 33333333 		.word	858993459
 1455 00a4 3333EB3F 		.word	1072378675
 1456 00a8 00000000 		.word	.LANCHOR1
 1457 00ac 00000000 		.word	.LANCHOR0
 1458 00b0 0080FFFF 		.word	-32768
 1459              		.cfi_endproc
 1460              	.LFE69:
 1461              		.size	playAudio, .-playAudio
 1462 00b4 AFF30080 		.section	.text.audioTimerISRHandler,"ax",%progbits
 1463              		.align	2
 1464              		.global	audioTimerISRHandler
 1465              		.thumb
 1466              		.thumb_func
 1467              		.type	audioTimerISRHandler, %function
 1468              	audioTimerISRHandler:
ARM GAS  C:\Users\student\AppData\Local\Temp\cc7xlRSM.s 			page 37


 1469              	.LFB70:
 366:.\main.c      ****     if (!fileEnd1) {
 1470              		.loc 1 366 0
 1471              		.cfi_startproc
 1472              		@ args = 0, pretend = 0, frame = 0
 1473              		@ frame_needed = 0, uses_anonymous_args = 0
 1474 0000 08B5     		push	{r3, lr}
 1475              		.cfi_def_cfa_offset 8
 1476              		.cfi_offset 3, -8
 1477              		.cfi_offset 14, -4
 367:.\main.c      ****     	if (audioSampleIndex >= AUDIO_BUFFER_SIZE) {
 1478              		.loc 1 367 0
 1479 0002 0E4B     		ldr	r3, .L80
 1480 0004 1B68     		ldr	r3, [r3]
 1481 0006 ABB9     		cbnz	r3, .L77
 368:.\main.c      ****             audioSampleIndex = 0;
 1482              		.loc 1 368 0
 1483 0008 0C4B     		ldr	r3, .L80
 1484 000a 1A6B     		ldr	r2, [r3, #48]
 1485 000c 41F2FB73 		movw	r3, #6139
 1486 0010 9A42     		cmp	r2, r3
 1487 0012 0DD9     		bls	.L78
 1488              	.LBB6:
 369:.\main.c      ****             switchBuffers = 0x1;
 1489              		.loc 1 369 0
 1490 0014 094B     		ldr	r3, .L80
 1491 0016 0022     		movs	r2, #0
 1492 0018 1A63     		str	r2, [r3, #48]
 370:.\main.c      ****             // Switch the pointers of the buffers
 1493              		.loc 1 370 0
 1494 001a 0122     		movs	r2, #1
 1495 001c 5A63     		str	r2, [r3, #52]
 372:.\main.c      ****             currentBuffer1 = loadingBuffer1;
 1496              		.loc 1 372 0
 1497 001e 084B     		ldr	r3, .L80+4
 1498 0020 9A69     		ldr	r2, [r3, #24]
 1499              	.LVL224:
 373:.\main.c      ****             loadingBuffer1 = temp;
 1500              		.loc 1 373 0
 1501 0022 D969     		ldr	r1, [r3, #28]
 1502 0024 9961     		str	r1, [r3, #24]
 374:.\main.c      ****             temp = currentBuffer2;
 1503              		.loc 1 374 0
 1504 0026 DA61     		str	r2, [r3, #28]
 375:.\main.c      ****             currentBuffer2 = loadingBuffer2;
 1505              		.loc 1 375 0
 1506 0028 1A6B     		ldr	r2, [r3, #48]
 1507              	.LVL225:
 376:.\main.c      ****             loadingBuffer2 = temp;
 1508              		.loc 1 376 0
 1509 002a 596B     		ldr	r1, [r3, #52]
 1510 002c 1963     		str	r1, [r3, #48]
 377:.\main.c      ****     	}
 1511              		.loc 1 377 0
 1512 002e 5A63     		str	r2, [r3, #52]
 1513              	.LVL226:
 1514              	.L78:
ARM GAS  C:\Users\student\AppData\Local\Temp\cc7xlRSM.s 			page 38


 1515              	.LBE6:
 379:.\main.c      ****     }
 1516              		.loc 1 379 0
 1517 0030 FFF7FEFF 		bl	playAudio
 1518              	.LVL227:
 1519              	.L77:
 382:.\main.c      **** }
 1520              		.loc 1 382 0
 1521 0034 FFF7FEFF 		bl	AudioTimer_ReadStatusRegister
 1522              	.LVL228:
 1523 0038 08BD     		pop	{r3, pc}
 1524              	.L81:
 1525 003a 00BF     		.align	2
 1526              	.L80:
 1527 003c 00000000 		.word	.LANCHOR1
 1528 0040 00000000 		.word	.LANCHOR0
 1529              		.cfi_endproc
 1530              	.LFE70:
 1531              		.size	audioTimerISRHandler, .-audioTimerISRHandler
 1532              		.section	.text.MPU_ByteWriteL,"ax",%progbits
 1533              		.align	2
 1534              		.global	MPU_ByteWriteL
 1535              		.thumb
 1536              		.thumb_func
 1537              		.type	MPU_ByteWriteL, %function
 1538              	MPU_ByteWriteL:
 1539              	.LFB73:
 427:.\main.c      **** }
 428:.\main.c      **** 
 429:.\main.c      **** void MPU_ByteWriteL(uint8_t reg, uint8_t byte){
 1540              		.loc 1 429 0
 1541              		.cfi_startproc
 1542              		@ args = 0, pretend = 0, frame = 0
 1543              		@ frame_needed = 0, uses_anonymous_args = 0
 1544              	.LVL229:
 1545 0000 38B5     		push	{r3, r4, r5, lr}
 1546              		.cfi_def_cfa_offset 16
 1547              		.cfi_offset 3, -16
 1548              		.cfi_offset 4, -12
 1549              		.cfi_offset 5, -8
 1550              		.cfi_offset 14, -4
 1551 0002 0546     		mov	r5, r0
 1552 0004 0C46     		mov	r4, r1
 430:.\main.c      ****     /* Writes a single Byte to the I2C device at address 0x68.
 431:.\main.c      ****     parameters:
 432:.\main.c      ****         uint8_t reg: the register on the device to write to
 433:.\main.c      ****         uint8_t byte: the byte to be written
 434:.\main.c      ****     
 435:.\main.c      ****     returns:
 436:.\main.c      ****         void
 437:.\main.c      ****     */
 438:.\main.c      ****     
 439:.\main.c      ****     I2C_MASTER_L_MasterSendStart(0x68, 0);      //start a write to the MPU to begin the transaction
 1553              		.loc 1 439 0
 1554 0006 6820     		movs	r0, #104
 1555              	.LVL230:
 1556 0008 0021     		movs	r1, #0
ARM GAS  C:\Users\student\AppData\Local\Temp\cc7xlRSM.s 			page 39


 1557              	.LVL231:
 1558 000a FFF7FEFF 		bl	I2C_MASTER_L_MasterSendStart
 1559              	.LVL232:
 440:.\main.c      ****     I2C_MASTER_L_MasterWriteByte(reg);          //send the address of the register we want to write
 1560              		.loc 1 440 0
 1561 000e 2846     		mov	r0, r5
 1562 0010 FFF7FEFF 		bl	I2C_MASTER_L_MasterWriteByte
 1563              	.LVL233:
 441:.\main.c      ****     I2C_MASTER_L_MasterWriteByte(byte);         //send the byte
 1564              		.loc 1 441 0
 1565 0014 2046     		mov	r0, r4
 1566 0016 FFF7FEFF 		bl	I2C_MASTER_L_MasterWriteByte
 1567              	.LVL234:
 442:.\main.c      ****     I2C_MASTER_L_MasterSendStop();              //send the stop signal to end the transaction
 1568              		.loc 1 442 0
 1569 001a FFF7FEFF 		bl	I2C_MASTER_L_MasterSendStop
 1570              	.LVL235:
 1571 001e 38BD     		pop	{r3, r4, r5, pc}
 1572              		.cfi_endproc
 1573              	.LFE73:
 1574              		.size	MPU_ByteWriteL, .-MPU_ByteWriteL
 1575              		.section	.text.main,"ax",%progbits
 1576              		.align	2
 1577              		.global	main
 1578              		.thumb
 1579              		.thumb_func
 1580              		.type	main, %function
 1581              	main:
 1582              	.LFB74:
 443:.\main.c      **** }
 444:.\main.c      **** 
 445:.\main.c      **** int main()
 446:.\main.c      **** {
 1583              		.loc 1 446 0
 1584              		.cfi_startproc
 1585              		@ args = 0, pretend = 0, frame = 0
 1586              		@ frame_needed = 0, uses_anonymous_args = 0
 1587 0000 F8B5     		push	{r3, r4, r5, r6, r7, lr}
 1588              		.cfi_def_cfa_offset 24
 1589              		.cfi_offset 3, -24
 1590              		.cfi_offset 4, -20
 1591              		.cfi_offset 5, -16
 1592              		.cfi_offset 6, -12
 1593              		.cfi_offset 7, -8
 1594              		.cfi_offset 14, -4
 447:.\main.c      **** 	CyGlobalIntEnable; /* Enable global interrupts. */
 1595              		.loc 1 447 0
 1596              	@ 447 ".\main.c" 1
 1597 0002 62B6     		CPSIE   i
 1598              	@ 0 "" 2
 448:.\main.c      ****     
 449:.\main.c      **** 	/* Place your initialization/startup code here (e.g. MyInst_Start()) */
 450:.\main.c      **** 	SPIM_Audio_Start();
 1599              		.loc 1 450 0
 1600              		.thumb
 1601 0004 FFF7FEFF 		bl	SPIM_Audio_Start
 1602              	.LVL236:
ARM GAS  C:\Users\student\AppData\Local\Temp\cc7xlRSM.s 			page 40


 451:.\main.c      **** 	GUI_Initialize();
 1603              		.loc 1 451 0
 1604 0008 FFF7FEFF 		bl	GUI_Initialize
 1605              	.LVL237:
 452:.\main.c      ****     InitializeAudioFile();
 1606              		.loc 1 452 0
 1607 000c FFF7FEFF 		bl	InitializeAudioFile
 1608              	.LVL238:
 453:.\main.c      ****     AudioTimer_Start();
 1609              		.loc 1 453 0
 1610 0010 FFF7FEFF 		bl	AudioTimer_Start
 1611              	.LVL239:
 454:.\main.c      **** 	audiotimer_isr_StartEx(audioTimerISRHandler); // start the ISR
 1612              		.loc 1 454 0
 1613 0014 6448     		ldr	r0, .L98
 1614 0016 FFF7FEFF 		bl	audiotimer_isr_StartEx
 1615              	.LVL240:
 455:.\main.c      ****     
 456:.\main.c      ****     GUI_Clear();
 1616              		.loc 1 456 0
 1617 001a FFF7FEFF 		bl	GUI_Clear
 1618              	.LVL241:
 457:.\main.c      ****     GUI_DispStringAt("Dynamix", 100, 10);
 1619              		.loc 1 457 0
 1620 001e 6348     		ldr	r0, .L98+4
 1621 0020 6421     		movs	r1, #100
 1622 0022 0A22     		movs	r2, #10
 1623 0024 FFF7FEFF 		bl	GUI_DispStringAt
 1624              	.LVL242:
 458:.\main.c      ****     GUI_DispStringAt("Time: 00:00", 80, 30);
 1625              		.loc 1 458 0
 1626 0028 6148     		ldr	r0, .L98+8
 1627 002a 5021     		movs	r1, #80
 1628 002c 1E22     		movs	r2, #30
 1629 002e FFF7FEFF 		bl	GUI_DispStringAt
 1630              	.LVL243:
 459:.\main.c      ****     sprintf(volumeControlString1, "Volume: %02u%% ", (uint16)(100*volumeControlCoef1));
 1631              		.loc 1 459 0
 1632 0032 604C     		ldr	r4, .L98+12
 1633 0034 6068     		ldr	r0, [r4, #4]	@ float
 1634 0036 6049     		ldr	r1, .L98+16
 1635 0038 FFF7FEFF 		bl	__aeabi_fmul
 1636              	.LVL244:
 1637 003c FFF7FEFF 		bl	__aeabi_f2uiz
 1638              	.LVL245:
 1639 0040 82B2     		uxth	r2, r0
 1640 0042 5E4D     		ldr	r5, .L98+20
 1641 0044 5E4F     		ldr	r7, .L98+24
 1642 0046 2846     		mov	r0, r5
 1643 0048 3946     		mov	r1, r7
 1644 004a FFF7FEFF 		bl	sprintf
 1645              	.LVL246:
 460:.\main.c      ****     GUI_DispStringAt(volumeControlString1, 20, 50);
 1646              		.loc 1 460 0
 1647 004e 2846     		mov	r0, r5
 1648 0050 1421     		movs	r1, #20
 1649 0052 3222     		movs	r2, #50
ARM GAS  C:\Users\student\AppData\Local\Temp\cc7xlRSM.s 			page 41


 1650 0054 FFF7FEFF 		bl	GUI_DispStringAt
 1651              	.LVL247:
 461:.\main.c      ****     sprintf(volumeControlString2, "Volume: %02u%% ", (uint16)(100*volumeControlCoef2));
 1652              		.loc 1 461 0
 1653 0058 5A4D     		ldr	r5, .L98+28
 1654 005a A868     		ldr	r0, [r5, #8]	@ float
 1655 005c 5649     		ldr	r1, .L98+16
 1656 005e FFF7FEFF 		bl	__aeabi_fmul
 1657              	.LVL248:
 1658 0062 FFF7FEFF 		bl	__aeabi_f2uiz
 1659              	.LVL249:
 1660 0066 82B2     		uxth	r2, r0
 1661 0068 574E     		ldr	r6, .L98+32
 1662 006a 3046     		mov	r0, r6
 1663 006c 3946     		mov	r1, r7
 1664 006e FFF7FEFF 		bl	sprintf
 1665              	.LVL250:
 462:.\main.c      ****     GUI_DispStringAt(volumeControlString2, 120, 50);
 1666              		.loc 1 462 0
 1667 0072 3046     		mov	r0, r6
 1668 0074 7821     		movs	r1, #120
 1669 0076 3222     		movs	r2, #50
 1670 0078 FFF7FEFF 		bl	GUI_DispStringAt
 1671              	.LVL251:
 463:.\main.c      ****     
 464:.\main.c      ****     DisplayAmplitudeBar(currentBuffer1, AUDIO_BUFFER_SIZE, TRACK_1);
 1672              		.loc 1 464 0
 1673 007c A069     		ldr	r0, [r4, #24]
 1674 007e 41F2FC71 		movw	r1, #6140
 1675 0082 0022     		movs	r2, #0
 1676 0084 FFF7FEFF 		bl	DisplayAmplitudeBar
 1677              	.LVL252:
 465:.\main.c      ****     DisplayAmplitudeBar(currentBuffer2, AUDIO_BUFFER_SIZE, TRACK_2);
 1678              		.loc 1 465 0
 1679 0088 206B     		ldr	r0, [r4, #48]
 1680 008a 41F2FC71 		movw	r1, #6140
 1681 008e 0122     		movs	r2, #1
 1682 0090 FFF7FEFF 		bl	DisplayAmplitudeBar
 1683              	.LVL253:
 466:.\main.c      ****     uint16_t numSecs = (overall_size-44) / SAMPLE_RATE / sizeof(uint16);
 1684              		.loc 1 466 0
 1685 0094 EB68     		ldr	r3, [r5, #12]
 1686              	.LVL254:
 467:.\main.c      ****     
 468:.\main.c      ****     Get_ADCs_Timer_Start();
 1687              		.loc 1 468 0
 1688 0096 FFF7FEFF 		bl	Get_ADCs_Timer_Start
 1689              	.LVL255:
 469:.\main.c      ****     ADC_FlexSensor_L_Start();
 1690              		.loc 1 469 0
 1691 009a FFF7FEFF 		bl	ADC_FlexSensor_L_Start
 1692              	.LVL256:
 470:.\main.c      ****     TimeStamp_Timer_Start();
 1693              		.loc 1 470 0
 1694 009e FFF7FEFF 		bl	TimeStamp_Timer_Start
 1695              	.LVL257:
 471:.\main.c      ****     ADC_FlexSensor_R_Start();
ARM GAS  C:\Users\student\AppData\Local\Temp\cc7xlRSM.s 			page 42


 1696              		.loc 1 471 0
 1697 00a2 FFF7FEFF 		bl	ADC_FlexSensor_R_Start
 1698              	.LVL258:
 472:.\main.c      ****     timestamp_timer_isr_StartEx(updateSecondsTimer);
 1699              		.loc 1 472 0
 1700 00a6 4948     		ldr	r0, .L98+36
 1701 00a8 FFF7FEFF 		bl	timestamp_timer_isr_StartEx
 1702              	.LVL259:
 473:.\main.c      ****     I2C_MASTER_L_Start();
 1703              		.loc 1 473 0
 1704 00ac FFF7FEFF 		bl	I2C_MASTER_L_Start
 1705              	.LVL260:
 474:.\main.c      ****     I2C_MASTER_L_MasterSendStart(0x68, 0);      //starts an I2C write. The address of the MPU is 0x
 1706              		.loc 1 474 0
 1707 00b0 6820     		movs	r0, #104
 1708 00b2 0021     		movs	r1, #0
 1709 00b4 FFF7FEFF 		bl	I2C_MASTER_L_MasterSendStart
 1710              	.LVL261:
 475:.\main.c      ****     I2C_MASTER_L_MasterWriteByte(0x1A);         //writes the address of the target register. 1A is 
 1711              		.loc 1 475 0
 1712 00b8 1A20     		movs	r0, #26
 1713 00ba FFF7FEFF 		bl	I2C_MASTER_L_MasterWriteByte
 1714              	.LVL262:
 476:.\main.c      ****     I2C_MASTER_L_MasterWriteByte(0x00);         //writes sets the frame sync to disabled and the DL
 1715              		.loc 1 476 0
 1716 00be 0020     		movs	r0, #0
 1717 00c0 FFF7FEFF 		bl	I2C_MASTER_L_MasterWriteByte
 1718              	.LVL263:
 477:.\main.c      ****     I2C_MASTER_L_MasterSendStop();              //stops an I2C transaction.
 1719              		.loc 1 477 0
 1720 00c4 FFF7FEFF 		bl	I2C_MASTER_L_MasterSendStop
 1721              	.LVL264:
 478:.\main.c      ****     
 479:.\main.c      ****     MPU_ByteWriteL(0x6B, 0x00);  //takes the MPU out of sleep mode
 1722              		.loc 1 479 0
 1723 00c8 6B20     		movs	r0, #107
 1724 00ca 0021     		movs	r1, #0
 1725 00cc FFF7FEFF 		bl	MPU_ByteWriteL
 1726              	.LVL265:
 480:.\main.c      ****     MPU_ByteWriteL(0x1C, 0x00);  //sets the accelerometer to +/- 2 gees range
 1727              		.loc 1 480 0
 1728 00d0 1C20     		movs	r0, #28
 1729 00d2 0021     		movs	r1, #0
 1730 00d4 FFF7FEFF 		bl	MPU_ByteWriteL
 1731              	.LVL266:
 481:.\main.c      ****     MPU_ByteWriteL(0x23, 0x00);  //disables FIFO buffer and DLPF
 1732              		.loc 1 481 0
 1733 00d8 2320     		movs	r0, #35
 1734 00da 0021     		movs	r1, #0
 1735 00dc FFF7FEFF 		bl	MPU_ByteWriteL
 1736              	.LVL267:
 482:.\main.c      ****     
 483:.\main.c      ****     get_adcs_isr_StartEx(getADCs);
 1737              		.loc 1 483 0
 1738 00e0 3B48     		ldr	r0, .L98+40
 1739 00e2 FFF7FEFF 		bl	get_adcs_isr_StartEx
 1740              	.LVL268:
ARM GAS  C:\Users\student\AppData\Local\Temp\cc7xlRSM.s 			page 43


 484:.\main.c      ****     
 485:.\main.c      ****     int bufferCount = 1;
 1741              		.loc 1 485 0
 1742 00e6 0124     		movs	r4, #1
 1743              	.LVL269:
 1744              	.L86:
 486:.\main.c      **** 	for(;;)
 487:.\main.c      **** 	{
 488:.\main.c      ****     	/* Place your application code here. */
 489:.\main.c      ****         if (switchBuffers && (!fileEnd1 || !fileEnd2)) {
 1745              		.loc 1 489 0
 1746 00e8 364B     		ldr	r3, .L98+28
 1747 00ea 5B6B     		ldr	r3, [r3, #52]
 1748 00ec 002B     		cmp	r3, #0
 1749 00ee FBD0     		beq	.L86
 1750              		.loc 1 489 0 is_stmt 0 discriminator 1
 1751 00f0 344B     		ldr	r3, .L98+28
 1752 00f2 1B68     		ldr	r3, [r3]
 1753 00f4 1BB1     		cbz	r3, .L87
 1754              		.loc 1 489 0 discriminator 2
 1755 00f6 334B     		ldr	r3, .L98+28
 1756 00f8 5B68     		ldr	r3, [r3, #4]
 1757 00fa 002B     		cmp	r3, #0
 1758 00fc F4D1     		bne	.L86
 1759              	.L87:
 1760              	.LVL270:
 1761              	.LBB7:
 490:.\main.c      ****             // Load new data into the buffer that is not currently in use
 491:.\main.c      ****             size_t bytesRead1 = 0;
 492:.\main.c      ****             size_t bytesRead2 = 0;
 493:.\main.c      ****             if (!fileEnd1) bytesRead1 = FS_Read(audioFile1, loadingBuffer1, AUDIO_BUFFER_SIZE * siz
 1762              		.loc 1 493 0 is_stmt 1
 1763 00fe 314B     		ldr	r3, .L98+28
 1764 0100 1B68     		ldr	r3, [r3]
 1765 0102 4BB9     		cbnz	r3, .L95
 1766              		.loc 1 493 0 is_stmt 0 discriminator 1
 1767 0104 2F4B     		ldr	r3, .L98+28
 1768 0106 186A     		ldr	r0, [r3, #32]
 1769 0108 2A4B     		ldr	r3, .L98+12
 1770 010a D969     		ldr	r1, [r3, #28]
 1771 010c 42F6F872 		movw	r2, #12280
 1772 0110 FFF7FEFF 		bl	FS_Read
 1773              	.LVL271:
 1774 0114 4508     		lsrs	r5, r0, #1
 1775              	.LVL272:
 1776 0116 00E0     		b	.L89
 1777              	.LVL273:
 1778              	.L95:
 491:.\main.c      ****             size_t bytesRead2 = 0;
 1779              		.loc 1 491 0 is_stmt 1
 1780 0118 0025     		movs	r5, #0
 1781              	.LVL274:
 1782              	.L89:
 494:.\main.c      ****             if (!fileEnd2) bytesRead2 = FS_Read(audioFile2, loadingBuffer2, AUDIO_BUFFER_SIZE * siz
 1783              		.loc 1 494 0
 1784 011a 2A4B     		ldr	r3, .L98+28
 1785 011c 5B68     		ldr	r3, [r3, #4]
ARM GAS  C:\Users\student\AppData\Local\Temp\cc7xlRSM.s 			page 44


 1786 011e 4BB9     		cbnz	r3, .L96
 1787              		.loc 1 494 0 is_stmt 0 discriminator 1
 1788 0120 284B     		ldr	r3, .L98+28
 1789 0122 D86A     		ldr	r0, [r3, #44]
 1790 0124 234B     		ldr	r3, .L98+12
 1791 0126 596B     		ldr	r1, [r3, #52]
 1792 0128 42F6F872 		movw	r2, #12280
 1793 012c FFF7FEFF 		bl	FS_Read
 1794              	.LVL275:
 1795 0130 4008     		lsrs	r0, r0, #1
 1796              	.LVL276:
 1797 0132 00E0     		b	.L90
 1798              	.LVL277:
 1799              	.L96:
 492:.\main.c      ****             if (!fileEnd1) bytesRead1 = FS_Read(audioFile1, loadingBuffer1, AUDIO_BUFFER_SIZE * siz
 1800              		.loc 1 492 0 is_stmt 1
 1801 0134 0020     		movs	r0, #0
 1802              	.LVL278:
 1803              	.L90:
 495:.\main.c      ****             if (bytesRead1 == 0 && !fileEnd1) {
 1804              		.loc 1 495 0
 1805 0136 2DB9     		cbnz	r5, .L91
 1806              		.loc 1 495 0 is_stmt 0 discriminator 1
 1807 0138 224B     		ldr	r3, .L98+28
 1808 013a 1B68     		ldr	r3, [r3]
 1809 013c 13B9     		cbnz	r3, .L91
 496:.\main.c      ****                 // Buffer underflow, handle error or wait
 497:.\main.c      ****                 fileEnd1 = 0x1;
 1810              		.loc 1 497 0 is_stmt 1
 1811 013e 0122     		movs	r2, #1
 1812 0140 204B     		ldr	r3, .L98+28
 1813 0142 1A60     		str	r2, [r3]
 1814              	.L91:
 498:.\main.c      ****             }
 499:.\main.c      ****             if (bytesRead2 == 0 && !fileEnd2) {
 1815              		.loc 1 499 0
 1816 0144 28B9     		cbnz	r0, .L92
 1817              		.loc 1 499 0 is_stmt 0 discriminator 1
 1818 0146 1F4B     		ldr	r3, .L98+28
 1819 0148 5B68     		ldr	r3, [r3, #4]
 1820 014a 13B9     		cbnz	r3, .L92
 500:.\main.c      ****                 // Buffer underflow, handle error or wait
 501:.\main.c      ****                 fileEnd2 = 0x1;
 1821              		.loc 1 501 0 is_stmt 1
 1822 014c 0122     		movs	r2, #1
 1823 014e 1D4B     		ldr	r3, .L98+28
 1824 0150 5A60     		str	r2, [r3, #4]
 1825              	.L92:
 502:.\main.c      ****             }
 503:.\main.c      ****             if (fileEnd1 && fileEnd2) {
 1826              		.loc 1 503 0
 1827 0152 1C4B     		ldr	r3, .L98+28
 1828 0154 1B68     		ldr	r3, [r3]
 1829 0156 93B1     		cbz	r3, .L93
 1830              		.loc 1 503 0 is_stmt 0 discriminator 1
 1831 0158 1A4B     		ldr	r3, .L98+28
 1832 015a 5B68     		ldr	r3, [r3, #4]
ARM GAS  C:\Users\student\AppData\Local\Temp\cc7xlRSM.s 			page 45


 1833 015c 7BB1     		cbz	r3, .L93
 504:.\main.c      ****                 GUI_SetColor(GUI_LIGHTBLUE);
 1834              		.loc 1 504 0 is_stmt 1
 1835 015e 1D48     		ldr	r0, .L98+44
 1836              	.LVL279:
 1837 0160 FFF7FEFF 		bl	GUI_SetColor
 1838              	.LVL280:
 505:.\main.c      ****                 GUI_DispStringAt("Playback complete!", 50, 300);
 1839              		.loc 1 505 0
 1840 0164 1C48     		ldr	r0, .L98+48
 1841 0166 3221     		movs	r1, #50
 1842 0168 4FF49672 		mov	r2, #300
 1843 016c FFF7FEFF 		bl	GUI_DispStringAt
 1844              	.LVL281:
 506:.\main.c      ****             	FS_FClose(audioFile1);
 1845              		.loc 1 506 0
 1846 0170 144B     		ldr	r3, .L98+28
 1847 0172 186A     		ldr	r0, [r3, #32]
 1848 0174 FFF7FEFF 		bl	FS_FClose
 1849              	.LVL282:
 507:.\main.c      ****             	FS_Unmount("0:");
 1850              		.loc 1 507 0
 1851 0178 1848     		ldr	r0, .L98+52
 1852 017a FFF7FEFF 		bl	FS_Unmount
 1853              	.LVL283:
 1854              	.L93:
 508:.\main.c      ****             }
 509:.\main.c      ****             switchBuffers = 0x0;
 1855              		.loc 1 509 0
 1856 017e 0022     		movs	r2, #0
 1857 0180 104B     		ldr	r3, .L98+28
 1858 0182 5A63     		str	r2, [r3, #52]
 510:.\main.c      ****             if (bufferCount >= SAMPLE_RATE * SECONDS_PER_BAR / AUDIO_BUFFER_SIZE) { // draw a bar e
 1859              		.loc 1 510 0
 1860 0184 062C     		cmp	r4, #6
 1861 0186 0DDD     		ble	.L94
 511:.\main.c      ****             	DisplayAmplitudeBar(currentBuffer1, AUDIO_BUFFER_SIZE, TRACK_1);
 1862              		.loc 1 511 0
 1863 0188 0A4C     		ldr	r4, .L98+12
 1864              	.LVL284:
 1865 018a A069     		ldr	r0, [r4, #24]
 1866 018c 41F2FC71 		movw	r1, #6140
 1867 0190 FFF7FEFF 		bl	DisplayAmplitudeBar
 1868              	.LVL285:
 512:.\main.c      ****             	DisplayAmplitudeBar(currentBuffer2, AUDIO_BUFFER_SIZE, TRACK_2);
 1869              		.loc 1 512 0
 1870 0194 206B     		ldr	r0, [r4, #48]
 1871 0196 41F2FC71 		movw	r1, #6140
 1872 019a 0122     		movs	r2, #1
 1873 019c FFF7FEFF 		bl	DisplayAmplitudeBar
 1874              	.LVL286:
 513:.\main.c      ****                 bufferCount = 0;
 1875              		.loc 1 513 0
 1876 01a0 0024     		movs	r4, #0
 1877 01a2 A1E7     		b	.L86
 1878              	.LVL287:
 1879              	.L94:
ARM GAS  C:\Users\student\AppData\Local\Temp\cc7xlRSM.s 			page 46


 514:.\main.c      ****             } else bufferCount++;
 1880              		.loc 1 514 0
 1881 01a4 0134     		adds	r4, r4, #1
 1882              	.LVL288:
 1883 01a6 9FE7     		b	.L86
 1884              	.L99:
 1885              		.align	2
 1886              	.L98:
 1887 01a8 00000000 		.word	audioTimerISRHandler
 1888 01ac F0010000 		.word	.LC29
 1889 01b0 F8010000 		.word	.LC30
 1890 01b4 00000000 		.word	.LANCHOR0
 1891 01b8 0000C842 		.word	1120403456
 1892 01bc 00000000 		.word	volumeControlString1
 1893 01c0 10000000 		.word	.LC1
 1894 01c4 00000000 		.word	.LANCHOR1
 1895 01c8 00000000 		.word	volumeControlString2
 1896 01cc 00000000 		.word	updateSecondsTimer
 1897 01d0 00000000 		.word	getADCs
 1898 01d4 8080FF00 		.word	16744576
 1899 01d8 04020000 		.word	.LC31
 1900 01dc 24010000 		.word	.LC15
 1901              	.LBE7:
 1902              		.cfi_endproc
 1903              	.LFE74:
 1904              		.size	main, .-main
 1905              		.comm	timeString,12,4
 1906              		.global	secondsCount
 1907              		.global	rectangleIndexTrackTwo
 1908              		.global	rectangleIndexTrackOne
 1909              		.comm	mpuString1,24,4
 1910              		.comm	geeForce,4,4
 1911              		.comm	combinedData,2,2
 1912              		.comm	bottomByte,1,1
 1913              		.comm	topByte,1,1
 1914              		.comm	volumeControlString2,128,4
 1915              		.comm	volumeControlString1,128,4
 1916              		.global	volumeControlCoef2
 1917              		.global	volumeControlCoef1
 1918              		.global	fileEnd2
 1919              		.global	fileEnd1
 1920              		.global	switchBuffers
 1921              		.global	loadingBufferFill
 1922              		.global	currentBufferFill
 1923              		.global	audioFile2
 1924              		.global	audioFile1
 1925              		.global	overall_size
 1926              		.global	file2
 1927              		.global	file1
 1928              		.global	loadingBuffer2
 1929              		.global	currentBuffer2
 1930              		.global	loadingBuffer1
 1931              		.global	currentBuffer1
 1932              		.comm	audioBuffer4,12280,4
 1933              		.comm	audioBuffer3,12280,4
 1934              		.comm	audioBuffer2,12280,4
 1935              		.comm	audioBuffer1,12280,4
ARM GAS  C:\Users\student\AppData\Local\Temp\cc7xlRSM.s 			page 47


 1936              		.global	audioSampleIndex
 1937              		.data
 1938              		.align	2
 1939              		.set	.LANCHOR0,. + 0
 1940              		.type	secondsCount, %object
 1941              		.size	secondsCount, 4
 1942              	secondsCount:
 1943 0000 01000000 		.word	1
 1944              		.type	volumeControlCoef1, %object
 1945              		.size	volumeControlCoef1, 4
 1946              	volumeControlCoef1:
 1947 0004 0000803F 		.word	1065353216
 1948              		.type	file1, %object
 1949              		.size	file1, 16
 1950              	file1:
 1951 0008 636C6172 		.ascii	"clarity.wav\000"
 1951      6974792E 
 1951      77617600 
 1952 0014 00000000 		.space	4
 1953              		.type	currentBuffer1, %object
 1954              		.size	currentBuffer1, 4
 1955              	currentBuffer1:
 1956 0018 00000000 		.word	audioBuffer1
 1957              		.type	loadingBuffer1, %object
 1958              		.size	loadingBuffer1, 4
 1959              	loadingBuffer1:
 1960 001c 00000000 		.word	audioBuffer2
 1961              		.type	file2, %object
 1962              		.size	file2, 14
 1963              	file2:
 1964 0020 64696579 		.ascii	"dieyoung.wav\000"
 1964      6F756E67 
 1964      2E776176 
 1964      00
 1965 002d 00       		.space	1
 1966 002e 0000     		.space	2
 1967              		.type	currentBuffer2, %object
 1968              		.size	currentBuffer2, 4
 1969              	currentBuffer2:
 1970 0030 00000000 		.word	audioBuffer3
 1971              		.type	loadingBuffer2, %object
 1972              		.size	loadingBuffer2, 4
 1973              	loadingBuffer2:
 1974 0034 00000000 		.word	audioBuffer4
 1975              		.section	.rodata.str1.4,"aMS",%progbits,1
 1976              		.align	2
 1977              	.LC0:
 1978 0000 54696D65 		.ascii	"Time: %02u:%02u\000"
 1978      3A202530 
 1978      32753A25 
 1978      30327500 
 1979              	.LC1:
 1980 0010 566F6C75 		.ascii	"Volume: %02u%% \000"
 1980      6D653A20 
 1980      25303275 
 1980      25252000 
 1981              	.LC2:
ARM GAS  C:\Users\student\AppData\Local\Temp\cc7xlRSM.s 			page 48


 1982 0020 44657363 		.ascii	"Descriptor: %c%c%c%c\000"
 1982      72697074 
 1982      6F723A20 
 1982      25632563 
 1982      25632563 
 1983 0035 000000   		.space	3
 1984              	.LC3:
 1985 0038 4F766572 		.ascii	"Overall size: %lu bytes\000"
 1985      616C6C20 
 1985      73697A65 
 1985      3A20256C 
 1985      75206279 
 1986              	.LC4:
 1987 0050 466F726D 		.ascii	"Format: %c%c%c%c\000"
 1987      61743A20 
 1987      25632563 
 1987      25632563 
 1987      00
 1988 0061 000000   		.space	3
 1989              	.LC5:
 1990 0064 466D7420 		.ascii	"Fmt marker: %c%c%c%c\000"
 1990      6D61726B 
 1990      65723A20 
 1990      25632563 
 1990      25632563 
 1991 0079 000000   		.space	3
 1992              	.LC6:
 1993 007c 4C656E67 		.ascii	"Length of fmt: %lu\000"
 1993      7468206F 
 1993      6620666D 
 1993      743A2025 
 1993      6C7500
 1994 008f 00       		.space	1
 1995              	.LC7:
 1996 0090 466F726D 		.ascii	"Format type: %u\000"
 1996      61742074 
 1996      7970653A 
 1996      20257500 
 1997              	.LC8:
 1998 00a0 4368616E 		.ascii	"Channels: %u\000"
 1998      6E656C73 
 1998      3A202575 
 1998      00
 1999 00ad 000000   		.space	3
 2000              	.LC9:
 2001 00b0 53616D70 		.ascii	"Sample rate: %lu\000"
 2001      6C652072 
 2001      6174653A 
 2001      20256C75 
 2001      00
 2002 00c1 000000   		.space	3
 2003              	.LC10:
 2004 00c4 42797465 		.ascii	"Byte rate: %lu\000"
 2004      20726174 
 2004      653A2025 
 2004      6C7500
 2005 00d3 00       		.space	1
ARM GAS  C:\Users\student\AppData\Local\Temp\cc7xlRSM.s 			page 49


 2006              	.LC11:
 2007 00d4 426C6F63 		.ascii	"Block align: %u\000"
 2007      6B20616C 
 2007      69676E3A 
 2007      20257500 
 2008              	.LC12:
 2009 00e4 42697473 		.ascii	"Bits per sample: %u\000"
 2009      20706572 
 2009      2073616D 
 2009      706C653A 
 2009      20257500 
 2010              	.LC13:
 2011 00f8 53442063 		.ascii	"SD card name:\000"
 2011      61726420 
 2011      6E616D65 
 2011      3A00
 2012 0106 0000     		.space	2
 2013              	.LC14:
 2014 0108 4661696C 		.ascii	"Failed to get SD card name\000"
 2014      65642074 
 2014      6F206765 
 2014      74205344 
 2014      20636172 
 2015 0123 00       		.space	1
 2016              	.LC15:
 2017 0124 303A00   		.ascii	"0:\000"
 2018 0127 00       		.space	1
 2019              	.LC16:
 2020 0128 4661696C 		.ascii	"Failed to mount SD\000"
 2020      65642074 
 2020      6F206D6F 
 2020      756E7420 
 2020      534400
 2021 013b 00       		.space	1
 2022              	.LC17:
 2023 013c 53442043 		.ascii	"SD Card mounted\000"
 2023      61726420 
 2023      6D6F756E 
 2023      74656400 
 2024              	.LC18:
 2025 014c 303A5C36 		.ascii	"0:\\6115FP\000"
 2025      31313546 
 2025      5000
 2026 0156 0000     		.space	2
 2027              	.LC19:
 2028 0158 46696C65 		.ascii	"Filename: \000"
 2028      6E616D65 
 2028      3A2000
 2029 0163 00       		.space	1
 2030              	.LC20:
 2031 0164 2C00     		.ascii	",\000"
 2032 0166 0000     		.space	2
 2033              	.LC21:
 2034 0168 48455245 		.ascii	"HERE\000"
 2034      00
 2035 016d 000000   		.space	3
 2036              	.LC22:
ARM GAS  C:\Users\student\AppData\Local\Temp\cc7xlRSM.s 			page 50


 2037 0170 4E6F2066 		.ascii	"No files found\000"
 2037      696C6573 
 2037      20666F75 
 2037      6E6400
 2038 017f 00       		.space	1
 2039              	.LC23:
 2040 0180 7200     		.ascii	"r\000"
 2041 0182 0000     		.space	2
 2042              	.LC24:
 2043 0184 46696C65 		.ascii	"File opened successfully\000"
 2043      206F7065 
 2043      6E656420 
 2043      73756363 
 2043      65737366 
 2044 019d 000000   		.space	3
 2045              	.LC25:
 2046 01a0 42756666 		.ascii	"Buffer fill: %u\000"
 2046      65722066 
 2046      696C6C3A 
 2046      20257500 
 2047              	.LC26:
 2048 01b0 44617461 		.ascii	"Data loaded into buffer\000"
 2048      206C6F61 
 2048      64656420 
 2048      696E746F 
 2048      20627566 
 2049              	.LC27:
 2050 01c8 4661696C 		.ascii	"Failed to load data\000"
 2050      65642074 
 2050      6F206C6F 
 2050      61642064 
 2050      61746100 
 2051              	.LC28:
 2052 01dc 4661696C 		.ascii	"Failed to open file\000"
 2052      65642074 
 2052      6F206F70 
 2052      656E2066 
 2052      696C6500 
 2053              	.LC29:
 2054 01f0 44796E61 		.ascii	"Dynamix\000"
 2054      6D697800 
 2055              	.LC30:
 2056 01f8 54696D65 		.ascii	"Time: 00:00\000"
 2056      3A203030 
 2056      3A303000 
 2057              	.LC31:
 2058 0204 506C6179 		.ascii	"Playback complete!\000"
 2058      6261636B 
 2058      20636F6D 
 2058      706C6574 
 2058      652100
 2059 0217 00       		.bss
 2060              		.align	2
 2061              		.set	.LANCHOR1,. + 0
 2062              		.type	fileEnd1, %object
 2063              		.size	fileEnd1, 4
 2064              	fileEnd1:
ARM GAS  C:\Users\student\AppData\Local\Temp\cc7xlRSM.s 			page 51


 2065 0000 00000000 		.space	4
 2066              		.type	fileEnd2, %object
 2067              		.size	fileEnd2, 4
 2068              	fileEnd2:
 2069 0004 00000000 		.space	4
 2070              		.type	volumeControlCoef2, %object
 2071              		.size	volumeControlCoef2, 4
 2072              	volumeControlCoef2:
 2073 0008 00000000 		.space	4
 2074              		.type	overall_size, %object
 2075              		.size	overall_size, 4
 2076              	overall_size:
 2077 000c 00000000 		.space	4
 2078              		.type	rectangleIndexTrackOne, %object
 2079              		.size	rectangleIndexTrackOne, 4
 2080              	rectangleIndexTrackOne:
 2081 0010 00000000 		.space	4
 2082              		.type	rectangleIndexTrackTwo, %object
 2083              		.size	rectangleIndexTrackTwo, 4
 2084              	rectangleIndexTrackTwo:
 2085 0014 00000000 		.space	4
 2086              		.type	previousOutput, %object
 2087              		.size	previousOutput, 4
 2088              	previousOutput:
 2089 0018 00000000 		.space	4
 2090              		.type	previousInput, %object
 2091              		.size	previousInput, 4
 2092              	previousInput:
 2093 001c 00000000 		.space	4
 2094              		.type	audioFile1, %object
 2095              		.size	audioFile1, 4
 2096              	audioFile1:
 2097 0020 00000000 		.space	4
 2098              		.type	currentBufferFill, %object
 2099              		.size	currentBufferFill, 4
 2100              	currentBufferFill:
 2101 0024 00000000 		.space	4
 2102              		.type	loadingBufferFill, %object
 2103              		.size	loadingBufferFill, 4
 2104              	loadingBufferFill:
 2105 0028 00000000 		.space	4
 2106              		.type	audioFile2, %object
 2107              		.size	audioFile2, 4
 2108              	audioFile2:
 2109 002c 00000000 		.space	4
 2110              		.type	audioSampleIndex, %object
 2111              		.size	audioSampleIndex, 4
 2112              	audioSampleIndex:
 2113 0030 00000000 		.space	4
 2114              		.type	switchBuffers, %object
 2115              		.size	switchBuffers, 4
 2116              	switchBuffers:
 2117 0034 00000000 		.space	4
 2118              		.text
 2119              	.Letext0:
 2120              		.file 2 "c:\\program files (x86)\\cypress\\psoc creator\\3.3\\psoc creator\\import\\gnu\\arm\\4.9.
 2121              		.file 3 "c:\\program files (x86)\\cypress\\psoc creator\\3.3\\psoc creator\\import\\gnu\\arm\\4.9.
ARM GAS  C:\Users\student\AppData\Local\Temp\cc7xlRSM.s 			page 52


 2122              		.file 4 "Generated_Source\\PSoC5/cytypes.h"
 2123              		.file 5 "c:\\program files (x86)\\cypress\\psoc creator\\3.3\\psoc creator\\import\\gnu\\arm\\4.9.
 2124              		.file 6 "..\\..\\emWinGraphics_v5_46\\Code\\Include\\PSoC4_5/LCD.h"
 2125              		.file 7 "..\\..\\emWinGraphics_v5_46\\Code\\Include\\PSoC4_5/GUI_Type.h"
 2126              		.file 8 "..\\..\\emFile\\Code\\Include\\PSoC5/FS_Types.h"
 2127              		.file 9 "..\\..\\emFile\\Code\\Include\\PSoC5/FS.h"
 2128              		.file 10 "Generated_Source\\PSoC5/core_cm3.h"
 2129              		.file 11 "..\\..\\emWinGraphics_v5_46\\Code\\Include\\PSoC4_5/GUI.h"
 2130              		.file 12 "c:\\program files (x86)\\cypress\\psoc creator\\3.3\\psoc creator\\import\\gnu\\arm\\4.9
 2131              		.file 13 "Generated_Source\\PSoC5/ADC_FlexSensor_L.h"
 2132              		.file 14 "Generated_Source\\PSoC5/TimeStamp_Timer.h"
 2133              		.file 15 "Generated_Source\\PSoC5/ADC_FlexSensor_R.h"
 2134              		.file 16 "Generated_Source\\PSoC5/Get_ADCs_Timer.h"
 2135              		.file 17 "Generated_Source\\PSoC5/SPIM_TFT.h"
 2136              		.file 18 "c:\\program files (x86)\\cypress\\psoc creator\\3.3\\psoc creator\\import\\gnu\\arm\\4.9
 2137              		.file 19 "<built-in>"
 2138              		.file 20 "Generated_Source\\PSoC5/CyLib.h"
 2139              		.file 21 "Generated_Source\\PSoC5/SPIM_Audio.h"
 2140              		.file 22 "Generated_Source\\PSoC5/AudioTimer.h"
 2141              		.file 23 "Generated_Source\\PSoC5/I2C_MASTER_L.h"
 2142              		.file 24 "Generated_Source\\PSoC5/audiotimer_isr.h"
 2143              		.file 25 "Generated_Source\\PSoC5/timestamp_timer_isr.h"
 2144              		.file 26 "Generated_Source\\PSoC5/get_adcs_isr.h"
 2145              		.section	.debug_info,"",%progbits
 2146              	.Ldebug_info0:
 2147 0000 98200000 		.4byte	0x2098
 2148 0004 0400     		.2byte	0x4
 2149 0006 00000000 		.4byte	.Ldebug_abbrev0
 2150 000a 04       		.byte	0x4
 2151 000b 01       		.uleb128 0x1
 2152 000c 95020000 		.4byte	.LASF251
 2153 0010 01       		.byte	0x1
 2154 0011 0F0C0000 		.4byte	.LASF252
 2155 0015 BA0C0000 		.4byte	.LASF253
 2156 0019 00000000 		.4byte	.Ldebug_ranges0+0
 2157 001d 00000000 		.4byte	0
 2158 0021 00000000 		.4byte	.Ldebug_line0
 2159 0025 02       		.uleb128 0x2
 2160 0026 04       		.byte	0x4
 2161 0027 04       		.byte	0x4
 2162 0028 1F0C0000 		.4byte	.LASF0
 2163 002c 02       		.uleb128 0x2
 2164 002d 01       		.byte	0x1
 2165 002e 06       		.byte	0x6
 2166 002f 78020000 		.4byte	.LASF1
 2167 0033 03       		.uleb128 0x3
 2168 0034 2C010000 		.4byte	.LASF4
 2169 0038 02       		.byte	0x2
 2170 0039 1D       		.byte	0x1d
 2171 003a 3E000000 		.4byte	0x3e
 2172 003e 02       		.uleb128 0x2
 2173 003f 01       		.byte	0x1
 2174 0040 08       		.byte	0x8
 2175 0041 2B030000 		.4byte	.LASF2
 2176 0045 02       		.uleb128 0x2
 2177 0046 02       		.byte	0x2
 2178 0047 05       		.byte	0x5
ARM GAS  C:\Users\student\AppData\Local\Temp\cc7xlRSM.s 			page 53


 2179 0048 A40A0000 		.4byte	.LASF3
 2180 004c 03       		.uleb128 0x3
 2181 004d 06040000 		.4byte	.LASF5
 2182 0051 02       		.byte	0x2
 2183 0052 2B       		.byte	0x2b
 2184 0053 57000000 		.4byte	0x57
 2185 0057 02       		.uleb128 0x2
 2186 0058 02       		.byte	0x2
 2187 0059 07       		.byte	0x7
 2188 005a 17020000 		.4byte	.LASF6
 2189 005e 03       		.uleb128 0x3
 2190 005f B00C0000 		.4byte	.LASF7
 2191 0063 02       		.byte	0x2
 2192 0064 3F       		.byte	0x3f
 2193 0065 69000000 		.4byte	0x69
 2194 0069 02       		.uleb128 0x2
 2195 006a 04       		.byte	0x4
 2196 006b 05       		.byte	0x5
 2197 006c E3010000 		.4byte	.LASF8
 2198 0070 03       		.uleb128 0x3
 2199 0071 B9060000 		.4byte	.LASF9
 2200 0075 02       		.byte	0x2
 2201 0076 41       		.byte	0x41
 2202 0077 7B000000 		.4byte	0x7b
 2203 007b 02       		.uleb128 0x2
 2204 007c 04       		.byte	0x4
 2205 007d 07       		.byte	0x7
 2206 007e DA050000 		.4byte	.LASF10
 2207 0082 02       		.uleb128 0x2
 2208 0083 08       		.byte	0x8
 2209 0084 05       		.byte	0x5
 2210 0085 D2060000 		.4byte	.LASF11
 2211 0089 02       		.uleb128 0x2
 2212 008a 08       		.byte	0x8
 2213 008b 07       		.byte	0x7
 2214 008c E4080000 		.4byte	.LASF12
 2215 0090 04       		.uleb128 0x4
 2216 0091 04       		.byte	0x4
 2217 0092 05       		.byte	0x5
 2218 0093 696E7400 		.ascii	"int\000"
 2219 0097 02       		.uleb128 0x2
 2220 0098 04       		.byte	0x4
 2221 0099 07       		.byte	0x7
 2222 009a 2B070000 		.4byte	.LASF13
 2223 009e 03       		.uleb128 0x3
 2224 009f 84020000 		.4byte	.LASF14
 2225 00a3 03       		.byte	0x3
 2226 00a4 15       		.byte	0x15
 2227 00a5 33000000 		.4byte	0x33
 2228 00a9 03       		.uleb128 0x3
 2229 00aa 11090000 		.4byte	.LASF15
 2230 00ae 03       		.byte	0x3
 2231 00af 21       		.byte	0x21
 2232 00b0 4C000000 		.4byte	0x4c
 2233 00b4 03       		.uleb128 0x3
 2234 00b5 63000000 		.4byte	.LASF16
 2235 00b9 03       		.byte	0x3
ARM GAS  C:\Users\student\AppData\Local\Temp\cc7xlRSM.s 			page 54


 2236 00ba 2C       		.byte	0x2c
 2237 00bb 5E000000 		.4byte	0x5e
 2238 00bf 03       		.uleb128 0x3
 2239 00c0 DB0B0000 		.4byte	.LASF17
 2240 00c4 03       		.byte	0x3
 2241 00c5 2D       		.byte	0x2d
 2242 00c6 70000000 		.4byte	0x70
 2243 00ca 05       		.uleb128 0x5
 2244 00cb 7B0A0000 		.4byte	.LASF18
 2245 00cf 04       		.byte	0x4
 2246 00d0 9201     		.2byte	0x192
 2247 00d2 3E000000 		.4byte	0x3e
 2248 00d6 05       		.uleb128 0x5
 2249 00d7 440D0000 		.4byte	.LASF19
 2250 00db 04       		.byte	0x4
 2251 00dc 9301     		.2byte	0x193
 2252 00de 57000000 		.4byte	0x57
 2253 00e2 05       		.uleb128 0x5
 2254 00e3 6B000000 		.4byte	.LASF20
 2255 00e7 04       		.byte	0x4
 2256 00e8 9401     		.2byte	0x194
 2257 00ea 7B000000 		.4byte	0x7b
 2258 00ee 05       		.uleb128 0x5
 2259 00ef 610B0000 		.4byte	.LASF21
 2260 00f3 04       		.byte	0x4
 2261 00f4 9601     		.2byte	0x196
 2262 00f6 45000000 		.4byte	0x45
 2263 00fa 02       		.uleb128 0x2
 2264 00fb 08       		.byte	0x8
 2265 00fc 04       		.byte	0x4
 2266 00fd 0A070000 		.4byte	.LASF22
 2267 0101 02       		.uleb128 0x2
 2268 0102 01       		.byte	0x1
 2269 0103 08       		.byte	0x8
 2270 0104 6D030000 		.4byte	.LASF23
 2271 0108 06       		.uleb128 0x6
 2272 0109 E2000000 		.4byte	0xe2
 2273 010d 05       		.uleb128 0x5
 2274 010e C8080000 		.4byte	.LASF24
 2275 0112 04       		.byte	0x4
 2276 0113 4E02     		.2byte	0x24e
 2277 0115 19010000 		.4byte	0x119
 2278 0119 07       		.uleb128 0x7
 2279 011a 04       		.byte	0x4
 2280 011b 1F010000 		.4byte	0x11f
 2281 011f 08       		.uleb128 0x8
 2282 0120 03       		.uleb128 0x3
 2283 0121 0B000000 		.4byte	.LASF25
 2284 0125 05       		.byte	0x5
 2285 0126 D4       		.byte	0xd4
 2286 0127 97000000 		.4byte	0x97
 2287 012b 09       		.uleb128 0x9
 2288 012c 3E000000 		.4byte	0x3e
 2289 0130 3B010000 		.4byte	0x13b
 2290 0134 0A       		.uleb128 0xa
 2291 0135 3B010000 		.4byte	0x13b
 2292 0139 03       		.byte	0x3
ARM GAS  C:\Users\student\AppData\Local\Temp\cc7xlRSM.s 			page 55


 2293 013a 00       		.byte	0
 2294 013b 02       		.uleb128 0x2
 2295 013c 04       		.byte	0x4
 2296 013d 07       		.byte	0x7
 2297 013e 12000000 		.4byte	.LASF26
 2298 0142 0B       		.uleb128 0xb
 2299 0143 04       		.byte	0x4
 2300 0144 07       		.uleb128 0x7
 2301 0145 04       		.byte	0x4
 2302 0146 01010000 		.4byte	0x101
 2303 014a 07       		.uleb128 0x7
 2304 014b 04       		.byte	0x4
 2305 014c 50010000 		.4byte	0x150
 2306 0150 0C       		.uleb128 0xc
 2307 0151 01010000 		.4byte	0x101
 2308 0155 09       		.uleb128 0x9
 2309 0156 01010000 		.4byte	0x101
 2310 015a 65010000 		.4byte	0x165
 2311 015e 0A       		.uleb128 0xa
 2312 015f 3B010000 		.4byte	0x13b
 2313 0163 17       		.byte	0x17
 2314 0164 00       		.byte	0
 2315 0165 06       		.uleb128 0x6
 2316 0166 BF000000 		.4byte	0xbf
 2317 016a 02       		.uleb128 0x2
 2318 016b 08       		.byte	0x8
 2319 016c 04       		.byte	0x4
 2320 016d 38080000 		.4byte	.LASF27
 2321 0171 07       		.uleb128 0x7
 2322 0172 04       		.byte	0x4
 2323 0173 77010000 		.4byte	0x177
 2324 0177 0D       		.uleb128 0xd
 2325 0178 03       		.uleb128 0x3
 2326 0179 73090000 		.4byte	.LASF28
 2327 017d 06       		.byte	0x6
 2328 017e 6A       		.byte	0x6a
 2329 017f 7B000000 		.4byte	0x7b
 2330 0183 07       		.uleb128 0x7
 2331 0184 04       		.byte	0x4
 2332 0185 89010000 		.4byte	0x189
 2333 0189 0C       		.uleb128 0xc
 2334 018a 3E000000 		.4byte	0x3e
 2335 018e 03       		.uleb128 0x3
 2336 018f 11040000 		.4byte	.LASF29
 2337 0193 07       		.byte	0x7
 2338 0194 3D       		.byte	0x3d
 2339 0195 78010000 		.4byte	0x178
 2340 0199 0E       		.uleb128 0xe
 2341 019a 04       		.byte	0x4
 2342 019b 07       		.byte	0x7
 2343 019c B6       		.byte	0xb6
 2344 019d B8010000 		.4byte	0x1b8
 2345 01a1 0F       		.uleb128 0xf
 2346 01a2 633000   		.ascii	"c0\000"
 2347 01a5 07       		.byte	0x7
 2348 01a6 B7       		.byte	0xb7
 2349 01a7 45000000 		.4byte	0x45
ARM GAS  C:\Users\student\AppData\Local\Temp\cc7xlRSM.s 			page 56


 2350 01ab 00       		.byte	0
 2351 01ac 0F       		.uleb128 0xf
 2352 01ad 633100   		.ascii	"c1\000"
 2353 01b0 07       		.byte	0x7
 2354 01b1 B8       		.byte	0xb8
 2355 01b2 45000000 		.4byte	0x45
 2356 01b6 02       		.byte	0x2
 2357 01b7 00       		.byte	0
 2358 01b8 03       		.uleb128 0x3
 2359 01b9 84040000 		.4byte	.LASF30
 2360 01bd 07       		.byte	0x7
 2361 01be B9       		.byte	0xb9
 2362 01bf 99010000 		.4byte	0x199
 2363 01c3 0E       		.uleb128 0xe
 2364 01c4 08       		.byte	0x8
 2365 01c5 07       		.byte	0x7
 2366 01c6 BB       		.byte	0xbb
 2367 01c7 F0010000 		.4byte	0x1f0
 2368 01cb 10       		.uleb128 0x10
 2369 01cc 5E040000 		.4byte	.LASF31
 2370 01d0 07       		.byte	0x7
 2371 01d1 BC       		.byte	0xbc
 2372 01d2 57000000 		.4byte	0x57
 2373 01d6 00       		.byte	0
 2374 01d7 10       		.uleb128 0x10
 2375 01d8 39030000 		.4byte	.LASF32
 2376 01dc 07       		.byte	0x7
 2377 01dd BD       		.byte	0xbd
 2378 01de 57000000 		.4byte	0x57
 2379 01e2 02       		.byte	0x2
 2380 01e3 10       		.uleb128 0x10
 2381 01e4 A9070000 		.4byte	.LASF33
 2382 01e8 07       		.byte	0x7
 2383 01e9 BE       		.byte	0xbe
 2384 01ea F0010000 		.4byte	0x1f0
 2385 01ee 04       		.byte	0x4
 2386 01ef 00       		.byte	0
 2387 01f0 07       		.uleb128 0x7
 2388 01f1 04       		.byte	0x4
 2389 01f2 F6010000 		.4byte	0x1f6
 2390 01f6 0C       		.uleb128 0xc
 2391 01f7 B8010000 		.4byte	0x1b8
 2392 01fb 03       		.uleb128 0x3
 2393 01fc 62050000 		.4byte	.LASF34
 2394 0200 07       		.byte	0x7
 2395 0201 BF       		.byte	0xbf
 2396 0202 C3010000 		.4byte	0x1c3
 2397 0206 0E       		.uleb128 0xe
 2398 0207 08       		.byte	0x8
 2399 0208 07       		.byte	0x7
 2400 0209 C1       		.byte	0xc1
 2401 020a 3F020000 		.4byte	0x23f
 2402 020e 10       		.uleb128 0x10
 2403 020f 98000000 		.4byte	.LASF35
 2404 0213 07       		.byte	0x7
 2405 0214 C2       		.byte	0xc2
 2406 0215 3E000000 		.4byte	0x3e
ARM GAS  C:\Users\student\AppData\Local\Temp\cc7xlRSM.s 			page 57


 2407 0219 00       		.byte	0
 2408 021a 10       		.uleb128 0x10
 2409 021b 94030000 		.4byte	.LASF36
 2410 021f 07       		.byte	0x7
 2411 0220 C3       		.byte	0xc3
 2412 0221 3E000000 		.4byte	0x3e
 2413 0225 01       		.byte	0x1
 2414 0226 10       		.uleb128 0x10
 2415 0227 02050000 		.4byte	.LASF37
 2416 022b 07       		.byte	0x7
 2417 022c C4       		.byte	0xc4
 2418 022d 3E000000 		.4byte	0x3e
 2419 0231 02       		.byte	0x2
 2420 0232 10       		.uleb128 0x10
 2421 0233 0A0D0000 		.4byte	.LASF38
 2422 0237 07       		.byte	0x7
 2423 0238 C5       		.byte	0xc5
 2424 0239 83010000 		.4byte	0x183
 2425 023d 04       		.byte	0x4
 2426 023e 00       		.byte	0
 2427 023f 03       		.uleb128 0x3
 2428 0240 18060000 		.4byte	.LASF39
 2429 0244 07       		.byte	0x7
 2430 0245 C6       		.byte	0xc6
 2431 0246 06020000 		.4byte	0x206
 2432 024a 0E       		.uleb128 0xe
 2433 024b 0C       		.byte	0xc
 2434 024c 07       		.byte	0x7
 2435 024d C8       		.byte	0xc8
 2436 024e 9B020000 		.4byte	0x29b
 2437 0252 10       		.uleb128 0x10
 2438 0253 98000000 		.4byte	.LASF35
 2439 0257 07       		.byte	0x7
 2440 0258 C9       		.byte	0xc9
 2441 0259 3E000000 		.4byte	0x3e
 2442 025d 00       		.byte	0
 2443 025e 10       		.uleb128 0x10
 2444 025f FB0B0000 		.4byte	.LASF40
 2445 0263 07       		.byte	0x7
 2446 0264 CA       		.byte	0xca
 2447 0265 3E000000 		.4byte	0x3e
 2448 0269 01       		.byte	0x1
 2449 026a 10       		.uleb128 0x10
 2450 026b 7F040000 		.4byte	.LASF41
 2451 026f 07       		.byte	0x7
 2452 0270 CB       		.byte	0xcb
 2453 0271 2C000000 		.4byte	0x2c
 2454 0275 02       		.byte	0x2
 2455 0276 10       		.uleb128 0x10
 2456 0277 440B0000 		.4byte	.LASF42
 2457 027b 07       		.byte	0x7
 2458 027c CC       		.byte	0xcc
 2459 027d 2C000000 		.4byte	0x2c
 2460 0281 03       		.byte	0x3
 2461 0282 10       		.uleb128 0x10
 2462 0283 94030000 		.4byte	.LASF36
 2463 0287 07       		.byte	0x7
ARM GAS  C:\Users\student\AppData\Local\Temp\cc7xlRSM.s 			page 58


 2464 0288 CD       		.byte	0xcd
 2465 0289 3E000000 		.4byte	0x3e
 2466 028d 04       		.byte	0x4
 2467 028e 10       		.uleb128 0x10
 2468 028f 0A0D0000 		.4byte	.LASF38
 2469 0293 07       		.byte	0x7
 2470 0294 CE       		.byte	0xce
 2471 0295 83010000 		.4byte	0x183
 2472 0299 08       		.byte	0x8
 2473 029a 00       		.byte	0
 2474 029b 03       		.uleb128 0x3
 2475 029c E4030000 		.4byte	.LASF43
 2476 02a0 07       		.byte	0x7
 2477 02a1 CF       		.byte	0xcf
 2478 02a2 4A020000 		.4byte	0x24a
 2479 02a6 11       		.uleb128 0x11
 2480 02a7 BA090000 		.4byte	.LASF48
 2481 02ab 0C       		.byte	0xc
 2482 02ac 07       		.byte	0x7
 2483 02ad D1       		.byte	0xd1
 2484 02ae E3020000 		.4byte	0x2e3
 2485 02b2 10       		.uleb128 0x10
 2486 02b3 46070000 		.4byte	.LASF44
 2487 02b7 07       		.byte	0x7
 2488 02b8 D2       		.byte	0xd2
 2489 02b9 57000000 		.4byte	0x57
 2490 02bd 00       		.byte	0
 2491 02be 10       		.uleb128 0x10
 2492 02bf 280B0000 		.4byte	.LASF45
 2493 02c3 07       		.byte	0x7
 2494 02c4 D3       		.byte	0xd3
 2495 02c5 57000000 		.4byte	0x57
 2496 02c9 02       		.byte	0x2
 2497 02ca 10       		.uleb128 0x10
 2498 02cb 3F020000 		.4byte	.LASF46
 2499 02cf 07       		.byte	0x7
 2500 02d0 D4       		.byte	0xd4
 2501 02d1 E3020000 		.4byte	0x2e3
 2502 02d5 04       		.byte	0x4
 2503 02d6 10       		.uleb128 0x10
 2504 02d7 040D0000 		.4byte	.LASF47
 2505 02db 07       		.byte	0x7
 2506 02dc D5       		.byte	0xd5
 2507 02dd EE020000 		.4byte	0x2ee
 2508 02e1 08       		.byte	0x8
 2509 02e2 00       		.byte	0
 2510 02e3 07       		.uleb128 0x7
 2511 02e4 04       		.byte	0x4
 2512 02e5 E9020000 		.4byte	0x2e9
 2513 02e9 0C       		.uleb128 0xc
 2514 02ea 3F020000 		.4byte	0x23f
 2515 02ee 07       		.uleb128 0x7
 2516 02ef 04       		.byte	0x4
 2517 02f0 F4020000 		.4byte	0x2f4
 2518 02f4 0C       		.uleb128 0xc
 2519 02f5 A6020000 		.4byte	0x2a6
 2520 02f9 03       		.uleb128 0x3
ARM GAS  C:\Users\student\AppData\Local\Temp\cc7xlRSM.s 			page 59


 2521 02fa BA090000 		.4byte	.LASF48
 2522 02fe 07       		.byte	0x7
 2523 02ff D6       		.byte	0xd6
 2524 0300 A6020000 		.4byte	0x2a6
 2525 0304 11       		.uleb128 0x11
 2526 0305 47000000 		.4byte	.LASF49
 2527 0309 0C       		.byte	0xc
 2528 030a 07       		.byte	0x7
 2529 030b D8       		.byte	0xd8
 2530 030c 41030000 		.4byte	0x341
 2531 0310 10       		.uleb128 0x10
 2532 0311 46070000 		.4byte	.LASF44
 2533 0315 07       		.byte	0x7
 2534 0316 D9       		.byte	0xd9
 2535 0317 57000000 		.4byte	0x57
 2536 031b 00       		.byte	0
 2537 031c 10       		.uleb128 0x10
 2538 031d 280B0000 		.4byte	.LASF45
 2539 0321 07       		.byte	0x7
 2540 0322 DA       		.byte	0xda
 2541 0323 57000000 		.4byte	0x57
 2542 0327 02       		.byte	0x2
 2543 0328 10       		.uleb128 0x10
 2544 0329 3F020000 		.4byte	.LASF46
 2545 032d 07       		.byte	0x7
 2546 032e DB       		.byte	0xdb
 2547 032f 41030000 		.4byte	0x341
 2548 0333 04       		.byte	0x4
 2549 0334 10       		.uleb128 0x10
 2550 0335 040D0000 		.4byte	.LASF47
 2551 0339 07       		.byte	0x7
 2552 033a DC       		.byte	0xdc
 2553 033b 4C030000 		.4byte	0x34c
 2554 033f 08       		.byte	0x8
 2555 0340 00       		.byte	0
 2556 0341 07       		.uleb128 0x7
 2557 0342 04       		.byte	0x4
 2558 0343 47030000 		.4byte	0x347
 2559 0347 0C       		.uleb128 0xc
 2560 0348 9B020000 		.4byte	0x29b
 2561 034c 07       		.uleb128 0x7
 2562 034d 04       		.byte	0x4
 2563 034e 52030000 		.4byte	0x352
 2564 0352 0C       		.uleb128 0xc
 2565 0353 04030000 		.4byte	0x304
 2566 0357 03       		.uleb128 0x3
 2567 0358 47000000 		.4byte	.LASF49
 2568 035c 07       		.byte	0x7
 2569 035d DD       		.byte	0xdd
 2570 035e 04030000 		.4byte	0x304
 2571 0362 0E       		.uleb128 0xe
 2572 0363 14       		.byte	0x14
 2573 0364 07       		.byte	0x7
 2574 0365 DF       		.byte	0xdf
 2575 0366 CB030000 		.4byte	0x3cb
 2576 036a 10       		.uleb128 0x10
 2577 036b 0A0D0000 		.4byte	.LASF38
ARM GAS  C:\Users\student\AppData\Local\Temp\cc7xlRSM.s 			page 60


 2578 036f 07       		.byte	0x7
 2579 0370 E0       		.byte	0xe0
 2580 0371 83010000 		.4byte	0x183
 2581 0375 00       		.byte	0
 2582 0376 10       		.uleb128 0x10
 2583 0377 250C0000 		.4byte	.LASF50
 2584 037b 07       		.byte	0x7
 2585 037c E1       		.byte	0xe1
 2586 037d 83010000 		.4byte	0x183
 2587 0381 04       		.byte	0x4
 2588 0382 10       		.uleb128 0x10
 2589 0383 A5090000 		.4byte	.LASF51
 2590 0387 07       		.byte	0x7
 2591 0388 E2       		.byte	0xe2
 2592 0389 CB030000 		.4byte	0x3cb
 2593 038d 08       		.byte	0x8
 2594 038e 10       		.uleb128 0x10
 2595 038f 5E040000 		.4byte	.LASF31
 2596 0393 07       		.byte	0x7
 2597 0394 E3       		.byte	0xe3
 2598 0395 57000000 		.4byte	0x57
 2599 0399 0C       		.byte	0xc
 2600 039a 10       		.uleb128 0x10
 2601 039b 39030000 		.4byte	.LASF32
 2602 039f 07       		.byte	0x7
 2603 03a0 E4       		.byte	0xe4
 2604 03a1 57000000 		.4byte	0x57
 2605 03a5 0E       		.byte	0xe
 2606 03a6 10       		.uleb128 0x10
 2607 03a7 98000000 		.4byte	.LASF35
 2608 03ab 07       		.byte	0x7
 2609 03ac E5       		.byte	0xe5
 2610 03ad 3E000000 		.4byte	0x3e
 2611 03b1 10       		.byte	0x10
 2612 03b2 10       		.uleb128 0x10
 2613 03b3 94030000 		.4byte	.LASF36
 2614 03b7 07       		.byte	0x7
 2615 03b8 E6       		.byte	0xe6
 2616 03b9 3E000000 		.4byte	0x3e
 2617 03bd 11       		.byte	0x11
 2618 03be 10       		.uleb128 0x10
 2619 03bf 02050000 		.4byte	.LASF37
 2620 03c3 07       		.byte	0x7
 2621 03c4 E7       		.byte	0xe7
 2622 03c5 3E000000 		.4byte	0x3e
 2623 03c9 12       		.byte	0x12
 2624 03ca 00       		.byte	0
 2625 03cb 07       		.uleb128 0x7
 2626 03cc 04       		.byte	0x4
 2627 03cd D1030000 		.4byte	0x3d1
 2628 03d1 0C       		.uleb128 0xc
 2629 03d2 FB010000 		.4byte	0x1fb
 2630 03d6 03       		.uleb128 0x3
 2631 03d7 93070000 		.4byte	.LASF52
 2632 03db 07       		.byte	0x7
 2633 03dc E8       		.byte	0xe8
 2634 03dd 62030000 		.4byte	0x362
ARM GAS  C:\Users\student\AppData\Local\Temp\cc7xlRSM.s 			page 61


 2635 03e1 0E       		.uleb128 0xe
 2636 03e2 06       		.byte	0x6
 2637 03e3 07       		.byte	0x7
 2638 03e4 F1       		.byte	0xf1
 2639 03e5 1A040000 		.4byte	0x41a
 2640 03e9 10       		.uleb128 0x10
 2641 03ea 67030000 		.4byte	.LASF53
 2642 03ee 07       		.byte	0x7
 2643 03ef F2       		.byte	0xf2
 2644 03f0 57000000 		.4byte	0x57
 2645 03f4 00       		.byte	0
 2646 03f5 10       		.uleb128 0x10
 2647 03f6 8C0B0000 		.4byte	.LASF54
 2648 03fa 07       		.byte	0x7
 2649 03fb F3       		.byte	0xf3
 2650 03fc 3E000000 		.4byte	0x3e
 2651 0400 02       		.byte	0x2
 2652 0401 10       		.uleb128 0x10
 2653 0402 4D030000 		.4byte	.LASF55
 2654 0406 07       		.byte	0x7
 2655 0407 F4       		.byte	0xf4
 2656 0408 3E000000 		.4byte	0x3e
 2657 040c 03       		.byte	0x3
 2658 040d 10       		.uleb128 0x10
 2659 040e 3F0A0000 		.4byte	.LASF56
 2660 0412 07       		.byte	0x7
 2661 0413 F5       		.byte	0xf5
 2662 0414 3E000000 		.4byte	0x3e
 2663 0418 04       		.byte	0x4
 2664 0419 00       		.byte	0
 2665 041a 03       		.uleb128 0x3
 2666 041b BB080000 		.4byte	.LASF57
 2667 041f 07       		.byte	0x7
 2668 0420 F6       		.byte	0xf6
 2669 0421 E1030000 		.4byte	0x3e1
 2670 0425 05       		.uleb128 0x5
 2671 0426 55070000 		.4byte	.LASF58
 2672 042a 07       		.byte	0x7
 2673 042b 1301     		.2byte	0x113
 2674 042d 31040000 		.4byte	0x431
 2675 0431 12       		.uleb128 0x12
 2676 0432 90000000 		.4byte	0x90
 2677 0436 45040000 		.4byte	0x445
 2678 043a 13       		.uleb128 0x13
 2679 043b 4A010000 		.4byte	0x14a
 2680 043f 13       		.uleb128 0x13
 2681 0440 90000000 		.4byte	0x90
 2682 0444 00       		.byte	0
 2683 0445 05       		.uleb128 0x5
 2684 0446 8D060000 		.4byte	.LASF59
 2685 044a 07       		.byte	0x7
 2686 044b 1401     		.2byte	0x114
 2687 044d 31040000 		.4byte	0x431
 2688 0451 05       		.uleb128 0x5
 2689 0452 C3070000 		.4byte	.LASF60
 2690 0456 07       		.byte	0x7
 2691 0457 1501     		.2byte	0x115
ARM GAS  C:\Users\student\AppData\Local\Temp\cc7xlRSM.s 			page 62


 2692 0459 5D040000 		.4byte	0x45d
 2693 045d 14       		.uleb128 0x14
 2694 045e 6D040000 		.4byte	0x46d
 2695 0462 13       		.uleb128 0x13
 2696 0463 4A010000 		.4byte	0x14a
 2697 0467 13       		.uleb128 0x13
 2698 0468 90000000 		.4byte	0x90
 2699 046c 00       		.byte	0
 2700 046d 15       		.uleb128 0x15
 2701 046e 0C       		.byte	0xc
 2702 046f 07       		.byte	0x7
 2703 0470 1701     		.2byte	0x117
 2704 0472 9E040000 		.4byte	0x49e
 2705 0476 16       		.uleb128 0x16
 2706 0477 30020000 		.4byte	.LASF61
 2707 047b 07       		.byte	0x7
 2708 047c 1801     		.2byte	0x118
 2709 047e 9E040000 		.4byte	0x49e
 2710 0482 00       		.byte	0
 2711 0483 16       		.uleb128 0x16
 2712 0484 320A0000 		.4byte	.LASF62
 2713 0488 07       		.byte	0x7
 2714 0489 1901     		.2byte	0x119
 2715 048b A4040000 		.4byte	0x4a4
 2716 048f 04       		.byte	0x4
 2717 0490 16       		.uleb128 0x16
 2718 0491 C8090000 		.4byte	.LASF63
 2719 0495 07       		.byte	0x7
 2720 0496 1A01     		.2byte	0x11a
 2721 0498 AA040000 		.4byte	0x4aa
 2722 049c 08       		.byte	0x8
 2723 049d 00       		.byte	0
 2724 049e 07       		.uleb128 0x7
 2725 049f 04       		.byte	0x4
 2726 04a0 25040000 		.4byte	0x425
 2727 04a4 07       		.uleb128 0x7
 2728 04a5 04       		.byte	0x4
 2729 04a6 45040000 		.4byte	0x445
 2730 04aa 07       		.uleb128 0x7
 2731 04ab 04       		.byte	0x4
 2732 04ac 51040000 		.4byte	0x451
 2733 04b0 05       		.uleb128 0x5
 2734 04b1 BE0A0000 		.4byte	.LASF64
 2735 04b5 07       		.byte	0x7
 2736 04b6 1B01     		.2byte	0x11b
 2737 04b8 6D040000 		.4byte	0x46d
 2738 04bc 05       		.uleb128 0x5
 2739 04bd 100B0000 		.4byte	.LASF65
 2740 04c1 07       		.byte	0x7
 2741 04c2 2401     		.2byte	0x124
 2742 04c4 C8040000 		.4byte	0x4c8
 2743 04c8 17       		.uleb128 0x17
 2744 04c9 100B0000 		.4byte	.LASF65
 2745 04cd 24       		.byte	0x24
 2746 04ce 07       		.byte	0x7
 2747 04cf B101     		.2byte	0x1b1
 2748 04d1 8A050000 		.4byte	0x58a
ARM GAS  C:\Users\student\AppData\Local\Temp\cc7xlRSM.s 			page 63


 2749 04d5 16       		.uleb128 0x16
 2750 04d6 7E070000 		.4byte	.LASF66
 2751 04da 07       		.byte	0x7
 2752 04db B201     		.2byte	0x1b2
 2753 04dd 95060000 		.4byte	0x695
 2754 04e1 00       		.byte	0
 2755 04e2 16       		.uleb128 0x16
 2756 04e3 7D0B0000 		.4byte	.LASF67
 2757 04e7 07       		.byte	0x7
 2758 04e8 B301     		.2byte	0x1b3
 2759 04ea 9B060000 		.4byte	0x69b
 2760 04ee 04       		.byte	0x4
 2761 04ef 16       		.uleb128 0x16
 2762 04f0 8A000000 		.4byte	.LASF68
 2763 04f4 07       		.byte	0x7
 2764 04f5 B401     		.2byte	0x1b4
 2765 04f7 A1060000 		.4byte	0x6a1
 2766 04fb 08       		.byte	0x8
 2767 04fc 16       		.uleb128 0x16
 2768 04fd 59020000 		.4byte	.LASF69
 2769 0501 07       		.byte	0x7
 2770 0502 B501     		.2byte	0x1b5
 2771 0504 A7060000 		.4byte	0x6a7
 2772 0508 0C       		.byte	0xc
 2773 0509 16       		.uleb128 0x16
 2774 050a C4060000 		.4byte	.LASF70
 2775 050e 07       		.byte	0x7
 2776 050f B601     		.2byte	0x1b6
 2777 0511 AD060000 		.4byte	0x6ad
 2778 0515 10       		.byte	0x10
 2779 0516 16       		.uleb128 0x16
 2780 0517 1B000000 		.4byte	.LASF71
 2781 051b 07       		.byte	0x7
 2782 051c B701     		.2byte	0x1b7
 2783 051e B3060000 		.4byte	0x6b3
 2784 0522 14       		.byte	0x14
 2785 0523 16       		.uleb128 0x16
 2786 0524 FB0B0000 		.4byte	.LASF40
 2787 0528 07       		.byte	0x7
 2788 0529 B801     		.2byte	0x1b8
 2789 052b 3E000000 		.4byte	0x3e
 2790 052f 18       		.byte	0x18
 2791 0530 16       		.uleb128 0x16
 2792 0531 15010000 		.4byte	.LASF72
 2793 0535 07       		.byte	0x7
 2794 0536 B901     		.2byte	0x1b9
 2795 0538 3E000000 		.4byte	0x3e
 2796 053c 19       		.byte	0x19
 2797 053d 16       		.uleb128 0x16
 2798 053e 62030000 		.4byte	.LASF73
 2799 0542 07       		.byte	0x7
 2800 0543 BA01     		.2byte	0x1ba
 2801 0545 3E000000 		.4byte	0x3e
 2802 0549 1A       		.byte	0x1a
 2803 054a 16       		.uleb128 0x16
 2804 054b 030A0000 		.4byte	.LASF74
 2805 054f 07       		.byte	0x7
ARM GAS  C:\Users\student\AppData\Local\Temp\cc7xlRSM.s 			page 64


 2806 0550 BB01     		.2byte	0x1bb
 2807 0552 3E000000 		.4byte	0x3e
 2808 0556 1B       		.byte	0x1b
 2809 0557 18       		.uleb128 0x18
 2810 0558 7000     		.ascii	"p\000"
 2811 055a 07       		.byte	0x7
 2812 055b C101     		.2byte	0x1c1
 2813 055d 3A060000 		.4byte	0x63a
 2814 0561 1C       		.byte	0x1c
 2815 0562 16       		.uleb128 0x16
 2816 0563 8C0B0000 		.4byte	.LASF54
 2817 0567 07       		.byte	0x7
 2818 0568 C201     		.2byte	0x1c2
 2819 056a 3E000000 		.4byte	0x3e
 2820 056e 20       		.byte	0x20
 2821 056f 16       		.uleb128 0x16
 2822 0570 4D030000 		.4byte	.LASF55
 2823 0574 07       		.byte	0x7
 2824 0575 C301     		.2byte	0x1c3
 2825 0577 3E000000 		.4byte	0x3e
 2826 057b 21       		.byte	0x21
 2827 057c 16       		.uleb128 0x16
 2828 057d 3F0A0000 		.4byte	.LASF56
 2829 0581 07       		.byte	0x7
 2830 0582 C401     		.2byte	0x1c4
 2831 0584 3E000000 		.4byte	0x3e
 2832 0588 22       		.byte	0x22
 2833 0589 00       		.byte	0
 2834 058a 05       		.uleb128 0x5
 2835 058b 5C090000 		.4byte	.LASF75
 2836 058f 07       		.byte	0x7
 2837 0590 2601     		.2byte	0x126
 2838 0592 96050000 		.4byte	0x596
 2839 0596 14       		.uleb128 0x14
 2840 0597 A1050000 		.4byte	0x5a1
 2841 059b 13       		.uleb128 0x13
 2842 059c 57000000 		.4byte	0x57
 2843 05a0 00       		.byte	0
 2844 05a1 05       		.uleb128 0x5
 2845 05a2 51050000 		.4byte	.LASF76
 2846 05a6 07       		.byte	0x7
 2847 05a7 2701     		.2byte	0x127
 2848 05a9 AD050000 		.4byte	0x5ad
 2849 05ad 12       		.uleb128 0x12
 2850 05ae 90000000 		.4byte	0x90
 2851 05b2 C1050000 		.4byte	0x5c1
 2852 05b6 13       		.uleb128 0x13
 2853 05b7 57000000 		.4byte	0x57
 2854 05bb 13       		.uleb128 0x13
 2855 05bc C1050000 		.4byte	0x5c1
 2856 05c0 00       		.byte	0
 2857 05c1 07       		.uleb128 0x7
 2858 05c2 04       		.byte	0x4
 2859 05c3 90000000 		.4byte	0x90
 2860 05c7 05       		.uleb128 0x5
 2861 05c8 6F040000 		.4byte	.LASF77
 2862 05cc 07       		.byte	0x7
ARM GAS  C:\Users\student\AppData\Local\Temp\cc7xlRSM.s 			page 65


 2863 05cd 2801     		.2byte	0x128
 2864 05cf D3050000 		.4byte	0x5d3
 2865 05d3 14       		.uleb128 0x14
 2866 05d4 E3050000 		.4byte	0x5e3
 2867 05d8 13       		.uleb128 0x13
 2868 05d9 E3050000 		.4byte	0x5e3
 2869 05dd 13       		.uleb128 0x13
 2870 05de EE050000 		.4byte	0x5ee
 2871 05e2 00       		.byte	0
 2872 05e3 07       		.uleb128 0x7
 2873 05e4 04       		.byte	0x4
 2874 05e5 E9050000 		.4byte	0x5e9
 2875 05e9 0C       		.uleb128 0xc
 2876 05ea BC040000 		.4byte	0x4bc
 2877 05ee 07       		.uleb128 0x7
 2878 05ef 04       		.byte	0x4
 2879 05f0 1A040000 		.4byte	0x41a
 2880 05f4 05       		.uleb128 0x5
 2881 05f5 55030000 		.4byte	.LASF78
 2882 05f9 07       		.byte	0x7
 2883 05fa 2901     		.2byte	0x129
 2884 05fc 00060000 		.4byte	0x600
 2885 0600 12       		.uleb128 0x12
 2886 0601 01010000 		.4byte	0x101
 2887 0605 14060000 		.4byte	0x614
 2888 0609 13       		.uleb128 0x13
 2889 060a E3050000 		.4byte	0x5e3
 2890 060e 13       		.uleb128 0x13
 2891 060f 57000000 		.4byte	0x57
 2892 0613 00       		.byte	0
 2893 0614 05       		.uleb128 0x5
 2894 0615 D3090000 		.4byte	.LASF79
 2895 0619 07       		.byte	0x7
 2896 061a 2A01     		.2byte	0x12a
 2897 061c 20060000 		.4byte	0x620
 2898 0620 12       		.uleb128 0x12
 2899 0621 90000000 		.4byte	0x90
 2900 0625 34060000 		.4byte	0x634
 2901 0629 13       		.uleb128 0x13
 2902 062a 57000000 		.4byte	0x57
 2903 062e 13       		.uleb128 0x13
 2904 062f 34060000 		.4byte	0x634
 2905 0633 00       		.byte	0
 2906 0634 07       		.uleb128 0x7
 2907 0635 04       		.byte	0x4
 2908 0636 9B020000 		.4byte	0x29b
 2909 063a 19       		.uleb128 0x19
 2910 063b 04       		.byte	0x4
 2911 063c 07       		.byte	0x7
 2912 063d BC01     		.2byte	0x1bc
 2913 063f 74060000 		.4byte	0x674
 2914 0643 1A       		.uleb128 0x1a
 2915 0644 670B0000 		.4byte	.LASF80
 2916 0648 07       		.byte	0x7
 2917 0649 BD01     		.2byte	0x1bd
 2918 064b 71010000 		.4byte	0x171
 2919 064f 1A       		.uleb128 0x1a
ARM GAS  C:\Users\student\AppData\Local\Temp\cc7xlRSM.s 			page 66


 2920 0650 A1010000 		.4byte	.LASF81
 2921 0654 07       		.byte	0x7
 2922 0655 BE01     		.2byte	0x1be
 2923 0657 74060000 		.4byte	0x674
 2924 065b 1A       		.uleb128 0x1a
 2925 065c 1B040000 		.4byte	.LASF82
 2926 0660 07       		.byte	0x7
 2927 0661 BF01     		.2byte	0x1bf
 2928 0663 7F060000 		.4byte	0x67f
 2929 0667 1A       		.uleb128 0x1a
 2930 0668 490B0000 		.4byte	.LASF83
 2931 066c 07       		.byte	0x7
 2932 066d C001     		.2byte	0x1c0
 2933 066f 8A060000 		.4byte	0x68a
 2934 0673 00       		.byte	0
 2935 0674 07       		.uleb128 0x7
 2936 0675 04       		.byte	0x4
 2937 0676 7A060000 		.4byte	0x67a
 2938 067a 0C       		.uleb128 0xc
 2939 067b D6030000 		.4byte	0x3d6
 2940 067f 07       		.uleb128 0x7
 2941 0680 04       		.byte	0x4
 2942 0681 85060000 		.4byte	0x685
 2943 0685 0C       		.uleb128 0xc
 2944 0686 F9020000 		.4byte	0x2f9
 2945 068a 07       		.uleb128 0x7
 2946 068b 04       		.byte	0x4
 2947 068c 90060000 		.4byte	0x690
 2948 0690 0C       		.uleb128 0xc
 2949 0691 57030000 		.4byte	0x357
 2950 0695 07       		.uleb128 0x7
 2951 0696 04       		.byte	0x4
 2952 0697 8A050000 		.4byte	0x58a
 2953 069b 07       		.uleb128 0x7
 2954 069c 04       		.byte	0x4
 2955 069d A1050000 		.4byte	0x5a1
 2956 06a1 07       		.uleb128 0x7
 2957 06a2 04       		.byte	0x4
 2958 06a3 C7050000 		.4byte	0x5c7
 2959 06a7 07       		.uleb128 0x7
 2960 06a8 04       		.byte	0x4
 2961 06a9 F4050000 		.4byte	0x5f4
 2962 06ad 07       		.uleb128 0x7
 2963 06ae 04       		.byte	0x4
 2964 06af 14060000 		.4byte	0x614
 2965 06b3 07       		.uleb128 0x7
 2966 06b4 04       		.byte	0x4
 2967 06b5 B9060000 		.4byte	0x6b9
 2968 06b9 0C       		.uleb128 0xc
 2969 06ba B0040000 		.4byte	0x4b0
 2970 06be 09       		.uleb128 0x9
 2971 06bf 3E000000 		.4byte	0x3e
 2972 06c3 CE060000 		.4byte	0x6ce
 2973 06c7 0A       		.uleb128 0xa
 2974 06c8 3B010000 		.4byte	0x13b
 2975 06cc 01       		.byte	0x1
 2976 06cd 00       		.byte	0
ARM GAS  C:\Users\student\AppData\Local\Temp\cc7xlRSM.s 			page 67


 2977 06ce 03       		.uleb128 0x3
 2978 06cf 7A0C0000 		.4byte	.LASF84
 2979 06d3 08       		.byte	0x8
 2980 06d4 7E       		.byte	0x7e
 2981 06d5 D9060000 		.4byte	0x6d9
 2982 06d9 1B       		.uleb128 0x1b
 2983 06da 7A0C0000 		.4byte	.LASF84
 2984 06de 03       		.uleb128 0x3
 2985 06df AF000000 		.4byte	.LASF85
 2986 06e3 08       		.byte	0x8
 2987 06e4 80       		.byte	0x80
 2988 06e5 E9060000 		.4byte	0x6e9
 2989 06e9 1B       		.uleb128 0x1b
 2990 06ea AF000000 		.4byte	.LASF85
 2991 06ee 0E       		.uleb128 0xe
 2992 06ef 10       		.byte	0x10
 2993 06f0 09       		.byte	0x9
 2994 06f1 C2       		.byte	0xc2
 2995 06f2 27070000 		.4byte	0x727
 2996 06f6 10       		.uleb128 0x10
 2997 06f7 D0070000 		.4byte	.LASF86
 2998 06fb 09       		.byte	0x9
 2999 06fc C3       		.byte	0xc3
 3000 06fd 7B000000 		.4byte	0x7b
 3001 0701 00       		.byte	0
 3002 0702 10       		.uleb128 0x10
 3003 0703 F4070000 		.4byte	.LASF87
 3004 0707 09       		.byte	0x9
 3005 0708 C4       		.byte	0xc4
 3006 0709 7B000000 		.4byte	0x7b
 3007 070d 04       		.byte	0x4
 3008 070e 10       		.uleb128 0x10
 3009 070f A20C0000 		.4byte	.LASF88
 3010 0713 09       		.byte	0x9
 3011 0714 C5       		.byte	0xc5
 3012 0715 7B000000 		.4byte	0x7b
 3013 0719 08       		.byte	0x8
 3014 071a 10       		.uleb128 0x10
 3015 071b 970A0000 		.4byte	.LASF89
 3016 071f 09       		.byte	0x9
 3017 0720 C6       		.byte	0xc6
 3018 0721 7B000000 		.4byte	0x7b
 3019 0725 0C       		.byte	0xc
 3020 0726 00       		.byte	0
 3021 0727 03       		.uleb128 0x3
 3022 0728 89030000 		.4byte	.LASF90
 3023 072c 09       		.byte	0x9
 3024 072d C7       		.byte	0xc7
 3025 072e EE060000 		.4byte	0x6ee
 3026 0732 0E       		.uleb128 0xe
 3027 0733 20       		.byte	0x20
 3028 0734 09       		.byte	0x9
 3029 0735 C9       		.byte	0xc9
 3030 0736 83070000 		.4byte	0x783
 3031 073a 10       		.uleb128 0x10
 3032 073b 9D060000 		.4byte	.LASF91
 3033 073f 09       		.byte	0x9
ARM GAS  C:\Users\student\AppData\Local\Temp\cc7xlRSM.s 			page 68


 3034 0740 CA       		.byte	0xca
 3035 0741 27070000 		.4byte	0x727
 3036 0745 00       		.byte	0
 3037 0746 10       		.uleb128 0x10
 3038 0747 A20C0000 		.4byte	.LASF88
 3039 074b 09       		.byte	0x9
 3040 074c CB       		.byte	0xcb
 3041 074d 57000000 		.4byte	0x57
 3042 0751 10       		.byte	0x10
 3043 0752 10       		.uleb128 0x10
 3044 0753 F4070000 		.4byte	.LASF87
 3045 0757 09       		.byte	0x9
 3046 0758 CC       		.byte	0xcc
 3047 0759 7B000000 		.4byte	0x7b
 3048 075d 14       		.byte	0x14
 3049 075e 10       		.uleb128 0x10
 3050 075f 520B0000 		.4byte	.LASF92
 3051 0763 09       		.byte	0x9
 3052 0764 CD       		.byte	0xcd
 3053 0765 83070000 		.4byte	0x783
 3054 0769 18       		.byte	0x18
 3055 076a 10       		.uleb128 0x10
 3056 076b 2A020000 		.4byte	.LASF93
 3057 076f 09       		.byte	0x9
 3058 0770 CE       		.byte	0xce
 3059 0771 45000000 		.4byte	0x45
 3060 0775 1C       		.byte	0x1c
 3061 0776 10       		.uleb128 0x10
 3062 0777 2C0A0000 		.4byte	.LASF94
 3063 077b 09       		.byte	0x9
 3064 077c CF       		.byte	0xcf
 3065 077d 3E000000 		.4byte	0x3e
 3066 0781 1E       		.byte	0x1e
 3067 0782 00       		.byte	0
 3068 0783 07       		.uleb128 0x7
 3069 0784 04       		.byte	0x4
 3070 0785 DE060000 		.4byte	0x6de
 3071 0789 03       		.uleb128 0x3
 3072 078a B1060000 		.4byte	.LASF95
 3073 078e 09       		.byte	0x9
 3074 078f D0       		.byte	0xd0
 3075 0790 32070000 		.4byte	0x732
 3076 0794 0E       		.uleb128 0xe
 3077 0795 3C       		.byte	0x3c
 3078 0796 09       		.byte	0x9
 3079 0797 DC       		.byte	0xdc
 3080 0798 FD070000 		.4byte	0x7fd
 3081 079c 10       		.uleb128 0x10
 3082 079d 42030000 		.4byte	.LASF96
 3083 07a1 09       		.byte	0x9
 3084 07a2 DD       		.byte	0xdd
 3085 07a3 3E000000 		.4byte	0x3e
 3086 07a7 00       		.byte	0
 3087 07a8 10       		.uleb128 0x10
 3088 07a9 4B0D0000 		.4byte	.LASF97
 3089 07ad 09       		.byte	0x9
 3090 07ae DE       		.byte	0xde
ARM GAS  C:\Users\student\AppData\Local\Temp\cc7xlRSM.s 			page 69


 3091 07af 7B000000 		.4byte	0x7b
 3092 07b3 04       		.byte	0x4
 3093 07b4 10       		.uleb128 0x10
 3094 07b5 EC050000 		.4byte	.LASF98
 3095 07b9 09       		.byte	0x9
 3096 07ba DF       		.byte	0xdf
 3097 07bb 7B000000 		.4byte	0x7b
 3098 07bf 08       		.byte	0x8
 3099 07c0 10       		.uleb128 0x10
 3100 07c1 010C0000 		.4byte	.LASF99
 3101 07c5 09       		.byte	0x9
 3102 07c6 E0       		.byte	0xe0
 3103 07c7 7B000000 		.4byte	0x7b
 3104 07cb 0C       		.byte	0xc
 3105 07cc 10       		.uleb128 0x10
 3106 07cd DD0C0000 		.4byte	.LASF100
 3107 07d1 09       		.byte	0x9
 3108 07d2 E1       		.byte	0xe1
 3109 07d3 7B000000 		.4byte	0x7b
 3110 07d7 10       		.byte	0x10
 3111 07d8 10       		.uleb128 0x10
 3112 07d9 2D0B0000 		.4byte	.LASF101
 3113 07dd 09       		.byte	0x9
 3114 07de E2       		.byte	0xe2
 3115 07df 44010000 		.4byte	0x144
 3116 07e3 14       		.byte	0x14
 3117 07e4 10       		.uleb128 0x10
 3118 07e5 21040000 		.4byte	.LASF102
 3119 07e9 09       		.byte	0x9
 3120 07ea E4       		.byte	0xe4
 3121 07eb 90000000 		.4byte	0x90
 3122 07ef 18       		.byte	0x18
 3123 07f0 0F       		.uleb128 0xf
 3124 07f1 44697200 		.ascii	"Dir\000"
 3125 07f5 09       		.byte	0x9
 3126 07f6 E5       		.byte	0xe5
 3127 07f7 89070000 		.4byte	0x789
 3128 07fb 1C       		.byte	0x1c
 3129 07fc 00       		.byte	0
 3130 07fd 03       		.uleb128 0x3
 3131 07fe A4060000 		.4byte	.LASF103
 3132 0802 09       		.byte	0x9
 3133 0803 E6       		.byte	0xe6
 3134 0804 94070000 		.4byte	0x794
 3135 0808 07       		.uleb128 0x7
 3136 0809 04       		.byte	0x4
 3137 080a CE060000 		.4byte	0x6ce
 3138 080e 1C       		.uleb128 0x1c
 3139 080f 01       		.byte	0x1
 3140 0810 01       		.byte	0x1
 3141 0811 1A       		.byte	0x1a
 3142 0812 23080000 		.4byte	0x823
 3143 0816 1D       		.uleb128 0x1d
 3144 0817 080A0000 		.4byte	.LASF104
 3145 081b 00       		.sleb128 0
 3146 081c 1D       		.uleb128 0x1d
 3147 081d E9060000 		.4byte	.LASF105
ARM GAS  C:\Users\student\AppData\Local\Temp\cc7xlRSM.s 			page 70


 3148 0821 01       		.sleb128 1
 3149 0822 00       		.byte	0
 3150 0823 03       		.uleb128 0x3
 3151 0824 00000000 		.4byte	.LASF106
 3152 0828 01       		.byte	0x1
 3153 0829 1D       		.byte	0x1d
 3154 082a 0E080000 		.4byte	0x80e
 3155 082e 1C       		.uleb128 0x1c
 3156 082f 01       		.byte	0x1
 3157 0830 01       		.byte	0x1
 3158 0831 1F       		.byte	0x1f
 3159 0832 43080000 		.4byte	0x843
 3160 0836 1D       		.uleb128 0x1d
 3161 0837 FA060000 		.4byte	.LASF107
 3162 083b 00       		.sleb128 0
 3163 083c 1D       		.uleb128 0x1d
 3164 083d 02070000 		.4byte	.LASF108
 3165 0841 01       		.sleb128 1
 3166 0842 00       		.byte	0
 3167 0843 03       		.uleb128 0x3
 3168 0844 52090000 		.4byte	.LASF109
 3169 0848 01       		.byte	0x1
 3170 0849 22       		.byte	0x22
 3171 084a 2E080000 		.4byte	0x82e
 3172 084e 1E       		.uleb128 0x1e
 3173 084f 97040000 		.4byte	.LASF112
 3174 0853 01       		.byte	0x1
 3175 0854 8101     		.2byte	0x181
 3176 0856 00000000 		.4byte	.LFB71
 3177 085a 78000000 		.4byte	.LFE71-.LFB71
 3178 085e 01       		.uleb128 0x1
 3179 085f 9C       		.byte	0x9c
 3180 0860 E1080000 		.4byte	0x8e1
 3181 0864 1F       		.uleb128 0x1f
 3182 0865 A1070000 		.4byte	.LASF110
 3183 0869 01       		.byte	0x1
 3184 086a 8301     		.2byte	0x183
 3185 086c D6000000 		.4byte	0xd6
 3186 0870 00000000 		.4byte	.LLST0
 3187 0874 1F       		.uleb128 0x1f
 3188 0875 B3080000 		.4byte	.LASF111
 3189 0879 01       		.byte	0x1
 3190 087a 8401     		.2byte	0x184
 3191 087c D6000000 		.4byte	0xd6
 3192 0880 13000000 		.4byte	.LLST1
 3193 0884 20       		.uleb128 0x20
 3194 0885 0A000000 		.4byte	.LVL0
 3195 0889 C41D0000 		.4byte	0x1dc4
 3196 088d 9B080000 		.4byte	0x89b
 3197 0891 21       		.uleb128 0x21
 3198 0892 01       		.uleb128 0x1
 3199 0893 50       		.byte	0x50
 3200 0894 05       		.uleb128 0x5
 3201 0895 0C       		.byte	0xc
 3202 0896 FFFFFF00 		.4byte	0xffffff
 3203 089a 00       		.byte	0
 3204 089b 20       		.uleb128 0x20
ARM GAS  C:\Users\student\AppData\Local\Temp\cc7xlRSM.s 			page 71


 3205 089c 40000000 		.4byte	.LVL3
 3206 08a0 D61D0000 		.4byte	0x1dd6
 3207 08a4 B8080000 		.4byte	0x8b8
 3208 08a8 21       		.uleb128 0x21
 3209 08a9 01       		.uleb128 0x1
 3210 08aa 51       		.byte	0x51
 3211 08ab 05       		.uleb128 0x5
 3212 08ac 03       		.byte	0x3
 3213 08ad 00000000 		.4byte	.LC0
 3214 08b1 21       		.uleb128 0x21
 3215 08b2 01       		.uleb128 0x1
 3216 08b3 50       		.byte	0x50
 3217 08b4 02       		.uleb128 0x2
 3218 08b5 75       		.byte	0x75
 3219 08b6 00       		.sleb128 0
 3220 08b7 00       		.byte	0
 3221 08b8 20       		.uleb128 0x20
 3222 08b9 4A000000 		.4byte	.LVL4
 3223 08bd F11D0000 		.4byte	0x1df1
 3224 08c1 D7080000 		.4byte	0x8d7
 3225 08c5 21       		.uleb128 0x21
 3226 08c6 01       		.uleb128 0x1
 3227 08c7 52       		.byte	0x52
 3228 08c8 01       		.uleb128 0x1
 3229 08c9 4E       		.byte	0x4e
 3230 08ca 21       		.uleb128 0x21
 3231 08cb 01       		.uleb128 0x1
 3232 08cc 51       		.byte	0x51
 3233 08cd 02       		.uleb128 0x2
 3234 08ce 08       		.byte	0x8
 3235 08cf 50       		.byte	0x50
 3236 08d0 21       		.uleb128 0x21
 3237 08d1 01       		.uleb128 0x1
 3238 08d2 50       		.byte	0x50
 3239 08d3 02       		.uleb128 0x2
 3240 08d4 75       		.byte	0x75
 3241 08d5 00       		.sleb128 0
 3242 08d6 00       		.byte	0
 3243 08d7 22       		.uleb128 0x22
 3244 08d8 60000000 		.4byte	.LVL5
 3245 08dc 0D1E0000 		.4byte	0x1e0d
 3246 08e0 00       		.byte	0
 3247 08e1 23       		.uleb128 0x23
 3248 08e2 70020000 		.4byte	.LASF113
 3249 08e6 01       		.byte	0x1
 3250 08e7 8B01     		.2byte	0x18b
 3251 08e9 00000000 		.4byte	.LFB72
 3252 08ed CC000000 		.4byte	.LFE72-.LFB72
 3253 08f1 01       		.uleb128 0x1
 3254 08f2 9C       		.byte	0x9c
 3255 08f3 F5090000 		.4byte	0x9f5
 3256 08f7 1F       		.uleb128 0x1f
 3257 08f8 18080000 		.4byte	.LASF114
 3258 08fc 01       		.byte	0x1
 3259 08fd 8E01     		.2byte	0x18e
 3260 08ff A9000000 		.4byte	0xa9
 3261 0903 26000000 		.4byte	.LLST2
ARM GAS  C:\Users\student\AppData\Local\Temp\cc7xlRSM.s 			page 72


 3262 0907 1F       		.uleb128 0x1f
 3263 0908 22080000 		.4byte	.LASF115
 3264 090c 01       		.byte	0x1
 3265 090d 9201     		.2byte	0x192
 3266 090f A9000000 		.4byte	0xa9
 3267 0913 39000000 		.4byte	.LLST3
 3268 0917 22       		.uleb128 0x22
 3269 0918 06000000 		.4byte	.LVL6
 3270 091c 181E0000 		.4byte	0x1e18
 3271 0920 20       		.uleb128 0x20
 3272 0921 0C000000 		.4byte	.LVL7
 3273 0925 1F1E0000 		.4byte	0x1e1f
 3274 0929 33090000 		.4byte	0x933
 3275 092d 21       		.uleb128 0x21
 3276 092e 01       		.uleb128 0x1
 3277 092f 50       		.byte	0x50
 3278 0930 01       		.uleb128 0x1
 3279 0931 31       		.byte	0x31
 3280 0932 00       		.byte	0
 3281 0933 22       		.uleb128 0x22
 3282 0934 14000000 		.4byte	.LVL8
 3283 0938 341E0000 		.4byte	0x1e34
 3284 093c 22       		.uleb128 0x22
 3285 093d 2E000000 		.4byte	.LVL12
 3286 0941 3F1E0000 		.4byte	0x1e3f
 3287 0945 20       		.uleb128 0x20
 3288 0946 34000000 		.4byte	.LVL13
 3289 094a 461E0000 		.4byte	0x1e46
 3290 094e 58090000 		.4byte	0x958
 3291 0952 21       		.uleb128 0x21
 3292 0953 01       		.uleb128 0x1
 3293 0954 50       		.byte	0x50
 3294 0955 01       		.uleb128 0x1
 3295 0956 31       		.byte	0x31
 3296 0957 00       		.byte	0
 3297 0958 22       		.uleb128 0x22
 3298 0959 3C000000 		.4byte	.LVL14
 3299 095d 5B1E0000 		.4byte	0x1e5b
 3300 0961 20       		.uleb128 0x20
 3301 0962 5C000000 		.4byte	.LVL20
 3302 0966 C41D0000 		.4byte	0x1dc4
 3303 096a 78090000 		.4byte	0x978
 3304 096e 21       		.uleb128 0x21
 3305 096f 01       		.uleb128 0x1
 3306 0970 50       		.byte	0x50
 3307 0971 05       		.uleb128 0x5
 3308 0972 0C       		.byte	0xc
 3309 0973 FFFFFF00 		.4byte	0xffffff
 3310 0977 00       		.byte	0
 3311 0978 20       		.uleb128 0x20
 3312 0979 78000000 		.4byte	.LVL23
 3313 097d D61D0000 		.4byte	0x1dd6
 3314 0981 92090000 		.4byte	0x992
 3315 0985 21       		.uleb128 0x21
 3316 0986 01       		.uleb128 0x1
 3317 0987 51       		.byte	0x51
 3318 0988 02       		.uleb128 0x2
ARM GAS  C:\Users\student\AppData\Local\Temp\cc7xlRSM.s 			page 73


 3319 0989 75       		.byte	0x75
 3320 098a 00       		.sleb128 0
 3321 098b 21       		.uleb128 0x21
 3322 098c 01       		.uleb128 0x1
 3323 098d 50       		.byte	0x50
 3324 098e 02       		.uleb128 0x2
 3325 098f 76       		.byte	0x76
 3326 0990 00       		.sleb128 0
 3327 0991 00       		.byte	0
 3328 0992 20       		.uleb128 0x20
 3329 0993 82000000 		.4byte	.LVL24
 3330 0997 F11D0000 		.4byte	0x1df1
 3331 099b B1090000 		.4byte	0x9b1
 3332 099f 21       		.uleb128 0x21
 3333 09a0 01       		.uleb128 0x1
 3334 09a1 52       		.byte	0x52
 3335 09a2 02       		.uleb128 0x2
 3336 09a3 08       		.byte	0x8
 3337 09a4 32       		.byte	0x32
 3338 09a5 21       		.uleb128 0x21
 3339 09a6 01       		.uleb128 0x1
 3340 09a7 51       		.byte	0x51
 3341 09a8 01       		.uleb128 0x1
 3342 09a9 44       		.byte	0x44
 3343 09aa 21       		.uleb128 0x21
 3344 09ab 01       		.uleb128 0x1
 3345 09ac 50       		.byte	0x50
 3346 09ad 02       		.uleb128 0x2
 3347 09ae 76       		.byte	0x76
 3348 09af 00       		.sleb128 0
 3349 09b0 00       		.byte	0
 3350 09b1 20       		.uleb128 0x20
 3351 09b2 9A000000 		.4byte	.LVL27
 3352 09b6 D61D0000 		.4byte	0x1dd6
 3353 09ba CB090000 		.4byte	0x9cb
 3354 09be 21       		.uleb128 0x21
 3355 09bf 01       		.uleb128 0x1
 3356 09c0 51       		.byte	0x51
 3357 09c1 02       		.uleb128 0x2
 3358 09c2 75       		.byte	0x75
 3359 09c3 00       		.sleb128 0
 3360 09c4 21       		.uleb128 0x21
 3361 09c5 01       		.uleb128 0x1
 3362 09c6 50       		.byte	0x50
 3363 09c7 02       		.uleb128 0x2
 3364 09c8 74       		.byte	0x74
 3365 09c9 00       		.sleb128 0
 3366 09ca 00       		.byte	0
 3367 09cb 20       		.uleb128 0x20
 3368 09cc A4000000 		.4byte	.LVL28
 3369 09d0 F11D0000 		.4byte	0x1df1
 3370 09d4 EB090000 		.4byte	0x9eb
 3371 09d8 21       		.uleb128 0x21
 3372 09d9 01       		.uleb128 0x1
 3373 09da 52       		.byte	0x52
 3374 09db 02       		.uleb128 0x2
 3375 09dc 08       		.byte	0x8
ARM GAS  C:\Users\student\AppData\Local\Temp\cc7xlRSM.s 			page 74


 3376 09dd 32       		.byte	0x32
 3377 09de 21       		.uleb128 0x21
 3378 09df 01       		.uleb128 0x1
 3379 09e0 51       		.byte	0x51
 3380 09e1 02       		.uleb128 0x2
 3381 09e2 08       		.byte	0x8
 3382 09e3 78       		.byte	0x78
 3383 09e4 21       		.uleb128 0x21
 3384 09e5 01       		.uleb128 0x1
 3385 09e6 50       		.byte	0x50
 3386 09e7 02       		.uleb128 0x2
 3387 09e8 74       		.byte	0x74
 3388 09e9 00       		.sleb128 0
 3389 09ea 00       		.byte	0
 3390 09eb 22       		.uleb128 0x22
 3391 09ec A8000000 		.4byte	.LVL29
 3392 09f0 661E0000 		.4byte	0x1e66
 3393 09f4 00       		.byte	0
 3394 09f5 24       		.uleb128 0x24
 3395 09f6 180A0000 		.4byte	.LASF116
 3396 09fa 01       		.byte	0x1
 3397 09fb 5A       		.byte	0x5a
 3398 09fc 00000000 		.4byte	.LFB63
 3399 0a00 A4000000 		.4byte	.LFE63-.LFB63
 3400 0a04 01       		.uleb128 0x1
 3401 0a05 9C       		.byte	0x9c
 3402 0a06 250B0000 		.4byte	0xb25
 3403 0a0a 25       		.uleb128 0x25
 3404 0a0b E4040000 		.4byte	.LASF117
 3405 0a0f 01       		.byte	0x1
 3406 0a10 5A       		.byte	0x5a
 3407 0a11 250B0000 		.4byte	0xb25
 3408 0a15 4C000000 		.4byte	.LLST4
 3409 0a19 25       		.uleb128 0x25
 3410 0a1a 98050000 		.4byte	.LASF118
 3411 0a1e 01       		.byte	0x1
 3412 0a1f 5A       		.byte	0x5a
 3413 0a20 20010000 		.4byte	0x120
 3414 0a24 6D000000 		.4byte	.LLST5
 3415 0a28 25       		.uleb128 0x25
 3416 0a29 470A0000 		.4byte	.LASF119
 3417 0a2d 01       		.byte	0x1
 3418 0a2e 5A       		.byte	0x5a
 3419 0a2f 43080000 		.4byte	0x843
 3420 0a33 8E000000 		.4byte	.LLST6
 3421 0a37 26       		.uleb128 0x26
 3422 0a38 810A0000 		.4byte	.LASF120
 3423 0a3c 01       		.byte	0x1
 3424 0a3d 5B       		.byte	0x5b
 3425 0a3e 90000000 		.4byte	0x90
 3426 0a42 112B     		.2byte	0x2b11
 3427 0a44 27       		.uleb128 0x27
 3428 0a45 3A000000 		.4byte	.LASF121
 3429 0a49 01       		.byte	0x1
 3430 0a4a 5C       		.byte	0x5c
 3431 0a4b 69000000 		.4byte	0x69
 3432 0a4f AF000000 		.4byte	.LLST7
ARM GAS  C:\Users\student\AppData\Local\Temp\cc7xlRSM.s 			page 75


 3433 0a53 28       		.uleb128 0x28
 3434 0a54 EC0A0000 		.4byte	.LASF122
 3435 0a58 01       		.byte	0x1
 3436 0a59 5D       		.byte	0x5d
 3437 0a5a 90000000 		.4byte	0x90
 3438 0a5e 60       		.byte	0x60
 3439 0a5f 28       		.uleb128 0x28
 3440 0a60 520C0000 		.4byte	.LASF123
 3441 0a64 01       		.byte	0x1
 3442 0a65 5E       		.byte	0x5e
 3443 0a66 90000000 		.4byte	0x90
 3444 0a6a C0       		.byte	0xc0
 3445 0a6b 29       		.uleb128 0x29
 3446 0a6c 6900     		.ascii	"i\000"
 3447 0a6e 01       		.byte	0x1
 3448 0a6f 61       		.byte	0x61
 3449 0a70 20010000 		.4byte	0x120
 3450 0a74 CE000000 		.4byte	.LLST8
 3451 0a78 27       		.uleb128 0x27
 3452 0a79 600C0000 		.4byte	.LASF124
 3453 0a7d 01       		.byte	0x1
 3454 0a7e 66       		.byte	0x66
 3455 0a7f 90000000 		.4byte	0x90
 3456 0a83 ED000000 		.4byte	.LLST9
 3457 0a87 27       		.uleb128 0x27
 3458 0a88 E60C0000 		.4byte	.LASF125
 3459 0a8c 01       		.byte	0x1
 3460 0a8d 69       		.byte	0x69
 3461 0a8e 90000000 		.4byte	0x90
 3462 0a92 00010000 		.4byte	.LLST10
 3463 0a96 27       		.uleb128 0x27
 3464 0a97 23030000 		.4byte	.LASF126
 3465 0a9b 01       		.byte	0x1
 3466 0a9c 6D       		.byte	0x6d
 3467 0a9d A9000000 		.4byte	0xa9
 3468 0aa1 13010000 		.4byte	.LLST11
 3469 0aa5 27       		.uleb128 0x27
 3470 0aa6 FA090000 		.4byte	.LASF127
 3471 0aaa 01       		.byte	0x1
 3472 0aab 6E       		.byte	0x6e
 3473 0aac 90000000 		.4byte	0x90
 3474 0ab0 2A010000 		.4byte	.LLST12
 3475 0ab4 28       		.uleb128 0x28
 3476 0ab5 72030000 		.4byte	.LASF128
 3477 0ab9 01       		.byte	0x1
 3478 0aba 71       		.byte	0x71
 3479 0abb 90000000 		.4byte	0x90
 3480 0abf 60       		.byte	0x60
 3481 0ac0 27       		.uleb128 0x27
 3482 0ac1 F0090000 		.4byte	.LASF129
 3483 0ac5 01       		.byte	0x1
 3484 0ac6 72       		.byte	0x72
 3485 0ac7 90000000 		.4byte	0x90
 3486 0acb 3D010000 		.4byte	.LLST13
 3487 0acf 2A       		.uleb128 0x2a
 3488 0ad0 D5080000 		.4byte	.LASF155
 3489 0ad4 01       		.byte	0x1
ARM GAS  C:\Users\student\AppData\Local\Temp\cc7xlRSM.s 			page 76


 3490 0ad5 73       		.byte	0x73
 3491 0ad6 90000000 		.4byte	0x90
 3492 0ada 20       		.uleb128 0x20
 3493 0adb 3C000000 		.4byte	.LVL39
 3494 0adf C41D0000 		.4byte	0x1dc4
 3495 0ae3 F00A0000 		.4byte	0xaf0
 3496 0ae7 21       		.uleb128 0x21
 3497 0ae8 01       		.uleb128 0x1
 3498 0ae9 50       		.byte	0x50
 3499 0aea 04       		.uleb128 0x4
 3500 0aeb 08       		.byte	0x8
 3501 0aec FF       		.byte	0xff
 3502 0aed 40       		.byte	0x40
 3503 0aee 24       		.byte	0x24
 3504 0aef 00       		.byte	0
 3505 0af0 20       		.uleb128 0x20
 3506 0af1 5E000000 		.4byte	.LVL43
 3507 0af5 C41D0000 		.4byte	0x1dc4
 3508 0af9 060B0000 		.4byte	0xb06
 3509 0afd 21       		.uleb128 0x21
 3510 0afe 01       		.uleb128 0x1
 3511 0aff 50       		.byte	0x50
 3512 0b00 04       		.uleb128 0x4
 3513 0b01 08       		.byte	0x8
 3514 0b02 FF       		.byte	0xff
 3515 0b03 40       		.byte	0x40
 3516 0b04 24       		.byte	0x24
 3517 0b05 00       		.byte	0
 3518 0b06 20       		.uleb128 0x20
 3519 0b07 74000000 		.4byte	.LVL46
 3520 0b0b C41D0000 		.4byte	0x1dc4
 3521 0b0f 1B0B0000 		.4byte	0xb1b
 3522 0b13 21       		.uleb128 0x21
 3523 0b14 01       		.uleb128 0x1
 3524 0b15 50       		.byte	0x50
 3525 0b16 03       		.uleb128 0x3
 3526 0b17 0A       		.byte	0xa
 3527 0b18 00FF     		.2byte	0xff00
 3528 0b1a 00       		.byte	0
 3529 0b1b 22       		.uleb128 0x22
 3530 0b1c 9A000000 		.4byte	.LVL50
 3531 0b20 711E0000 		.4byte	0x1e71
 3532 0b24 00       		.byte	0
 3533 0b25 07       		.uleb128 0x7
 3534 0b26 04       		.byte	0x4
 3535 0b27 45000000 		.4byte	0x45
 3536 0b2b 2B       		.uleb128 0x2b
 3537 0b2c 370B0000 		.4byte	.LASF130
 3538 0b30 01       		.byte	0x1
 3539 0b31 8E       		.byte	0x8e
 3540 0b32 00000000 		.4byte	.LFB64
 3541 0b36 38000000 		.4byte	.LFE64-.LFB64
 3542 0b3a 01       		.uleb128 0x1
 3543 0b3b 9C       		.byte	0x9c
 3544 0b3c 6E0B0000 		.4byte	0xb6e
 3545 0b40 25       		.uleb128 0x25
 3546 0b41 68040000 		.4byte	.LASF131
ARM GAS  C:\Users\student\AppData\Local\Temp\cc7xlRSM.s 			page 77


 3547 0b45 01       		.byte	0x1
 3548 0b46 8E       		.byte	0x8e
 3549 0b47 6E0B0000 		.4byte	0xb6e
 3550 0b4b 6A010000 		.4byte	.LLST14
 3551 0b4f 25       		.uleb128 0x25
 3552 0b50 2C080000 		.4byte	.LASF132
 3553 0b54 01       		.byte	0x1
 3554 0b55 8E       		.byte	0x8e
 3555 0b56 25000000 		.4byte	0x25
 3556 0b5a 96010000 		.4byte	.LLST15
 3557 0b5e 27       		.uleb128 0x27
 3558 0b5f 4A020000 		.4byte	.LASF133
 3559 0b63 01       		.byte	0x1
 3560 0b64 8F       		.byte	0x8f
 3561 0b65 90000000 		.4byte	0x90
 3562 0b69 C4010000 		.4byte	.LLST16
 3563 0b6d 00       		.byte	0
 3564 0b6e 07       		.uleb128 0x7
 3565 0b6f 04       		.byte	0x4
 3566 0b70 A9000000 		.4byte	0xa9
 3567 0b74 2B       		.uleb128 0x2b
 3568 0b75 6F0A0000 		.4byte	.LASF134
 3569 0b79 01       		.byte	0x1
 3570 0b7a 99       		.byte	0x99
 3571 0b7b 00000000 		.4byte	.LFB65
 3572 0b7f E4000000 		.4byte	.LFE65-.LFB65
 3573 0b83 01       		.uleb128 0x1
 3574 0b84 9C       		.byte	0x9c
 3575 0b85 F10B0000 		.4byte	0xbf1
 3576 0b89 25       		.uleb128 0x25
 3577 0b8a 68040000 		.4byte	.LASF131
 3578 0b8e 01       		.byte	0x1
 3579 0b8f 99       		.byte	0x99
 3580 0b90 6E0B0000 		.4byte	0xb6e
 3581 0b94 00020000 		.4byte	.LLST17
 3582 0b98 2C       		.uleb128 0x2c
 3583 0b99 726300   		.ascii	"rc\000"
 3584 0b9c 01       		.byte	0x1
 3585 0b9d 99       		.byte	0x99
 3586 0b9e 25000000 		.4byte	0x25
 3587 0ba2 2C020000 		.4byte	.LLST18
 3588 0ba6 2C       		.uleb128 0x2c
 3589 0ba7 647400   		.ascii	"dt\000"
 3590 0baa 01       		.byte	0x1
 3591 0bab 99       		.byte	0x99
 3592 0bac 25000000 		.4byte	0x25
 3593 0bb0 5A020000 		.4byte	.LLST19
 3594 0bb4 25       		.uleb128 0x25
 3595 0bb5 7E030000 		.4byte	.LASF135
 3596 0bb9 01       		.byte	0x1
 3597 0bba 99       		.byte	0x99
 3598 0bbb 23080000 		.4byte	0x823
 3599 0bbf 88020000 		.4byte	.LLST20
 3600 0bc3 27       		.uleb128 0x27
 3601 0bc4 36010000 		.4byte	.LASF136
 3602 0bc8 01       		.byte	0x1
 3603 0bc9 9A       		.byte	0x9a
ARM GAS  C:\Users\student\AppData\Local\Temp\cc7xlRSM.s 			page 78


 3604 0bca 25000000 		.4byte	0x25
 3605 0bce A9020000 		.4byte	.LLST21
 3606 0bd2 27       		.uleb128 0x27
 3607 0bd3 A9030000 		.4byte	.LASF137
 3608 0bd7 01       		.byte	0x1
 3609 0bd8 9B       		.byte	0x9b
 3610 0bd9 25000000 		.4byte	0x25
 3611 0bdd D2020000 		.4byte	.LLST22
 3612 0be1 27       		.uleb128 0x27
 3613 0be2 44080000 		.4byte	.LASF138
 3614 0be6 01       		.byte	0x1
 3615 0be7 9C       		.byte	0x9c
 3616 0be8 25000000 		.4byte	0x25
 3617 0bec 06030000 		.4byte	.LLST23
 3618 0bf0 00       		.byte	0
 3619 0bf1 2D       		.uleb128 0x2d
 3620 0bf2 A10B0000 		.4byte	.LASF151
 3621 0bf6 01       		.byte	0x1
 3622 0bf7 AB       		.byte	0xab
 3623 0bf8 00000000 		.4byte	.LFB66
 3624 0bfc 1C000000 		.4byte	.LFE66-.LFB66
 3625 0c00 01       		.uleb128 0x1
 3626 0c01 9C       		.byte	0x9c
 3627 0c02 2B0C0000 		.4byte	0xc2b
 3628 0c06 22       		.uleb128 0x22
 3629 0c07 06000000 		.4byte	.LVL99
 3630 0c0b 921E0000 		.4byte	0x1e92
 3631 0c0f 22       		.uleb128 0x22
 3632 0c10 0A000000 		.4byte	.LVL100
 3633 0c14 991E0000 		.4byte	0x1e99
 3634 0c18 22       		.uleb128 0x22
 3635 0c19 0E000000 		.4byte	.LVL101
 3636 0c1d A51E0000 		.4byte	0x1ea5
 3637 0c21 22       		.uleb128 0x22
 3638 0c22 14000000 		.4byte	.LVL102
 3639 0c26 AD1E0000 		.4byte	0x1ead
 3640 0c2a 00       		.byte	0
 3641 0c2b 24       		.uleb128 0x24
 3642 0c2c 38070000 		.4byte	.LASF139
 3643 0c30 01       		.byte	0x1
 3644 0c31 B3       		.byte	0xb3
 3645 0c32 00000000 		.4byte	.LFB67
 3646 0c36 50020000 		.4byte	.LFE67-.LFB67
 3647 0c3a 01       		.uleb128 0x1
 3648 0c3b 9C       		.byte	0x9c
 3649 0c3c DE100000 		.4byte	0x10de
 3650 0c40 25       		.uleb128 0x25
 3651 0c41 3C050000 		.4byte	.LASF140
 3652 0c45 01       		.byte	0x1
 3653 0c46 B3       		.byte	0xb3
 3654 0c47 08080000 		.4byte	0x808
 3655 0c4b 45030000 		.4byte	.LLST24
 3656 0c4f 2E       		.uleb128 0x2e
 3657 0c50 4A060000 		.4byte	.LASF141
 3658 0c54 01       		.byte	0x1
 3659 0c55 B4       		.byte	0xb4
 3660 0c56 2B010000 		.4byte	0x12b
ARM GAS  C:\Users\student\AppData\Local\Temp\cc7xlRSM.s 			page 79


 3661 0c5a 02       		.uleb128 0x2
 3662 0c5b 91       		.byte	0x91
 3663 0c5c 74       		.sleb128 -12
 3664 0c5d 2E       		.uleb128 0x2e
 3665 0c5e 42060000 		.4byte	.LASF142
 3666 0c62 01       		.byte	0x1
 3667 0c63 B5       		.byte	0xb5
 3668 0c64 BE060000 		.4byte	0x6be
 3669 0c68 02       		.uleb128 0x2
 3670 0c69 91       		.byte	0x91
 3671 0c6a 70       		.sleb128 -16
 3672 0c6b 2E       		.uleb128 0x2e
 3673 0c6c 630A0000 		.4byte	.LASF143
 3674 0c70 01       		.byte	0x1
 3675 0c71 B6       		.byte	0xb6
 3676 0c72 DE100000 		.4byte	0x10de
 3677 0c76 03       		.uleb128 0x3
 3678 0c77 91       		.byte	0x91
 3679 0c78 F07E     		.sleb128 -144
 3680 0c7a 27       		.uleb128 0x27
 3681 0c7b 03090000 		.4byte	.LASF144
 3682 0c7f 01       		.byte	0x1
 3683 0c80 CF       		.byte	0xcf
 3684 0c81 E2000000 		.4byte	0xe2
 3685 0c85 71030000 		.4byte	.LLST25
 3686 0c89 27       		.uleb128 0x27
 3687 0c8a C70B0000 		.4byte	.LASF145
 3688 0c8e 01       		.byte	0x1
 3689 0c8f D5       		.byte	0xd5
 3690 0c90 D6000000 		.4byte	0xd6
 3691 0c94 96030000 		.4byte	.LLST26
 3692 0c98 27       		.uleb128 0x27
 3693 0c99 4C070000 		.4byte	.LASF146
 3694 0c9d 01       		.byte	0x1
 3695 0c9e DB       		.byte	0xdb
 3696 0c9f D6000000 		.4byte	0xd6
 3697 0ca3 C7030000 		.4byte	.LLST27
 3698 0ca7 27       		.uleb128 0x27
 3699 0ca8 710B0000 		.4byte	.LASF147
 3700 0cac 01       		.byte	0x1
 3701 0cad E1       		.byte	0xe1
 3702 0cae E2000000 		.4byte	0xe2
 3703 0cb2 F8030000 		.4byte	.LLST28
 3704 0cb6 27       		.uleb128 0x27
 3705 0cb7 69090000 		.4byte	.LASF148
 3706 0cbb 01       		.byte	0x1
 3707 0cbc E7       		.byte	0xe7
 3708 0cbd E2000000 		.4byte	0xe2
 3709 0cc1 1D040000 		.4byte	.LLST29
 3710 0cc5 27       		.uleb128 0x27
 3711 0cc6 B6030000 		.4byte	.LASF149
 3712 0cca 01       		.byte	0x1
 3713 0ccb ED       		.byte	0xed
 3714 0ccc D6000000 		.4byte	0xd6
 3715 0cd0 42040000 		.4byte	.LLST30
 3716 0cd4 27       		.uleb128 0x27
 3717 0cd5 AE0A0000 		.4byte	.LASF150
ARM GAS  C:\Users\student\AppData\Local\Temp\cc7xlRSM.s 			page 80


 3718 0cd9 01       		.byte	0x1
 3719 0cda F3       		.byte	0xf3
 3720 0cdb D6000000 		.4byte	0xd6
 3721 0cdf 73040000 		.4byte	.LLST31
 3722 0ce3 20       		.uleb128 0x20
 3723 0ce4 0E000000 		.4byte	.LVL104
 3724 0ce8 C31E0000 		.4byte	0x1ec3
 3725 0cec 020D0000 		.4byte	0xd02
 3726 0cf0 21       		.uleb128 0x21
 3727 0cf1 01       		.uleb128 0x1
 3728 0cf2 52       		.byte	0x52
 3729 0cf3 01       		.uleb128 0x1
 3730 0cf4 34       		.byte	0x34
 3731 0cf5 21       		.uleb128 0x21
 3732 0cf6 01       		.uleb128 0x1
 3733 0cf7 51       		.byte	0x51
 3734 0cf8 02       		.uleb128 0x2
 3735 0cf9 91       		.byte	0x91
 3736 0cfa 74       		.sleb128 -12
 3737 0cfb 21       		.uleb128 0x21
 3738 0cfc 01       		.uleb128 0x1
 3739 0cfd 50       		.byte	0x50
 3740 0cfe 02       		.uleb128 0x2
 3741 0cff 74       		.byte	0x74
 3742 0d00 00       		.sleb128 0
 3743 0d01 00       		.byte	0
 3744 0d02 20       		.uleb128 0x20
 3745 0d03 2A000000 		.4byte	.LVL105
 3746 0d07 D61D0000 		.4byte	0x1dd6
 3747 0d0b 200D0000 		.4byte	0xd20
 3748 0d0f 21       		.uleb128 0x21
 3749 0d10 01       		.uleb128 0x1
 3750 0d11 51       		.byte	0x51
 3751 0d12 05       		.uleb128 0x5
 3752 0d13 03       		.byte	0x3
 3753 0d14 20000000 		.4byte	.LC2
 3754 0d18 21       		.uleb128 0x21
 3755 0d19 01       		.uleb128 0x1
 3756 0d1a 50       		.byte	0x50
 3757 0d1b 03       		.uleb128 0x3
 3758 0d1c 91       		.byte	0x91
 3759 0d1d F07E     		.sleb128 -144
 3760 0d1f 00       		.byte	0
 3761 0d20 20       		.uleb128 0x20
 3762 0d21 34000000 		.4byte	.LVL106
 3763 0d25 F11D0000 		.4byte	0x1df1
 3764 0d29 3F0D0000 		.4byte	0xd3f
 3765 0d2d 21       		.uleb128 0x21
 3766 0d2e 01       		.uleb128 0x1
 3767 0d2f 52       		.byte	0x52
 3768 0d30 01       		.uleb128 0x1
 3769 0d31 4E       		.byte	0x4e
 3770 0d32 21       		.uleb128 0x21
 3771 0d33 01       		.uleb128 0x1
 3772 0d34 51       		.byte	0x51
 3773 0d35 01       		.uleb128 0x1
 3774 0d36 3A       		.byte	0x3a
ARM GAS  C:\Users\student\AppData\Local\Temp\cc7xlRSM.s 			page 81


 3775 0d37 21       		.uleb128 0x21
 3776 0d38 01       		.uleb128 0x1
 3777 0d39 50       		.byte	0x50
 3778 0d3a 03       		.uleb128 0x3
 3779 0d3b 91       		.byte	0x91
 3780 0d3c F07E     		.sleb128 -144
 3781 0d3e 00       		.byte	0
 3782 0d3f 20       		.uleb128 0x20
 3783 0d40 3E000000 		.4byte	.LVL107
 3784 0d44 C31E0000 		.4byte	0x1ec3
 3785 0d48 5E0D0000 		.4byte	0xd5e
 3786 0d4c 21       		.uleb128 0x21
 3787 0d4d 01       		.uleb128 0x1
 3788 0d4e 52       		.byte	0x52
 3789 0d4f 01       		.uleb128 0x1
 3790 0d50 34       		.byte	0x34
 3791 0d51 21       		.uleb128 0x21
 3792 0d52 01       		.uleb128 0x1
 3793 0d53 51       		.byte	0x51
 3794 0d54 02       		.uleb128 0x2
 3795 0d55 91       		.byte	0x91
 3796 0d56 74       		.sleb128 -12
 3797 0d57 21       		.uleb128 0x21
 3798 0d58 01       		.uleb128 0x1
 3799 0d59 50       		.byte	0x50
 3800 0d5a 02       		.uleb128 0x2
 3801 0d5b 74       		.byte	0x74
 3802 0d5c 00       		.sleb128 0
 3803 0d5d 00       		.byte	0
 3804 0d5e 20       		.uleb128 0x20
 3805 0d5f 68000000 		.4byte	.LVL108
 3806 0d63 D61D0000 		.4byte	0x1dd6
 3807 0d67 7C0D0000 		.4byte	0xd7c
 3808 0d6b 21       		.uleb128 0x21
 3809 0d6c 01       		.uleb128 0x1
 3810 0d6d 51       		.byte	0x51
 3811 0d6e 05       		.uleb128 0x5
 3812 0d6f 03       		.byte	0x3
 3813 0d70 38000000 		.4byte	.LC3
 3814 0d74 21       		.uleb128 0x21
 3815 0d75 01       		.uleb128 0x1
 3816 0d76 50       		.byte	0x50
 3817 0d77 03       		.uleb128 0x3
 3818 0d78 91       		.byte	0x91
 3819 0d79 F07E     		.sleb128 -144
 3820 0d7b 00       		.byte	0
 3821 0d7c 20       		.uleb128 0x20
 3822 0d7d 72000000 		.4byte	.LVL109
 3823 0d81 F11D0000 		.4byte	0x1df1
 3824 0d85 9C0D0000 		.4byte	0xd9c
 3825 0d89 21       		.uleb128 0x21
 3826 0d8a 01       		.uleb128 0x1
 3827 0d8b 52       		.byte	0x52
 3828 0d8c 02       		.uleb128 0x2
 3829 0d8d 08       		.byte	0x8
 3830 0d8e 32       		.byte	0x32
 3831 0d8f 21       		.uleb128 0x21
ARM GAS  C:\Users\student\AppData\Local\Temp\cc7xlRSM.s 			page 82


 3832 0d90 01       		.uleb128 0x1
 3833 0d91 51       		.byte	0x51
 3834 0d92 01       		.uleb128 0x1
 3835 0d93 3A       		.byte	0x3a
 3836 0d94 21       		.uleb128 0x21
 3837 0d95 01       		.uleb128 0x1
 3838 0d96 50       		.byte	0x50
 3839 0d97 03       		.uleb128 0x3
 3840 0d98 91       		.byte	0x91
 3841 0d99 F07E     		.sleb128 -144
 3842 0d9b 00       		.byte	0
 3843 0d9c 20       		.uleb128 0x20
 3844 0d9d 7C000000 		.4byte	.LVL110
 3845 0da1 C31E0000 		.4byte	0x1ec3
 3846 0da5 BB0D0000 		.4byte	0xdbb
 3847 0da9 21       		.uleb128 0x21
 3848 0daa 01       		.uleb128 0x1
 3849 0dab 52       		.byte	0x52
 3850 0dac 01       		.uleb128 0x1
 3851 0dad 34       		.byte	0x34
 3852 0dae 21       		.uleb128 0x21
 3853 0daf 01       		.uleb128 0x1
 3854 0db0 51       		.byte	0x51
 3855 0db1 02       		.uleb128 0x2
 3856 0db2 91       		.byte	0x91
 3857 0db3 74       		.sleb128 -12
 3858 0db4 21       		.uleb128 0x21
 3859 0db5 01       		.uleb128 0x1
 3860 0db6 50       		.byte	0x50
 3861 0db7 02       		.uleb128 0x2
 3862 0db8 74       		.byte	0x74
 3863 0db9 00       		.sleb128 0
 3864 0dba 00       		.byte	0
 3865 0dbb 20       		.uleb128 0x20
 3866 0dbc 98000000 		.4byte	.LVL111
 3867 0dc0 D61D0000 		.4byte	0x1dd6
 3868 0dc4 D90D0000 		.4byte	0xdd9
 3869 0dc8 21       		.uleb128 0x21
 3870 0dc9 01       		.uleb128 0x1
 3871 0dca 51       		.byte	0x51
 3872 0dcb 05       		.uleb128 0x5
 3873 0dcc 03       		.byte	0x3
 3874 0dcd 50000000 		.4byte	.LC4
 3875 0dd1 21       		.uleb128 0x21
 3876 0dd2 01       		.uleb128 0x1
 3877 0dd3 50       		.byte	0x50
 3878 0dd4 03       		.uleb128 0x3
 3879 0dd5 91       		.byte	0x91
 3880 0dd6 F07E     		.sleb128 -144
 3881 0dd8 00       		.byte	0
 3882 0dd9 20       		.uleb128 0x20
 3883 0dda A2000000 		.4byte	.LVL112
 3884 0dde F11D0000 		.4byte	0x1df1
 3885 0de2 F90D0000 		.4byte	0xdf9
 3886 0de6 21       		.uleb128 0x21
 3887 0de7 01       		.uleb128 0x1
 3888 0de8 52       		.byte	0x52
ARM GAS  C:\Users\student\AppData\Local\Temp\cc7xlRSM.s 			page 83


 3889 0de9 02       		.uleb128 0x2
 3890 0dea 08       		.byte	0x8
 3891 0deb 46       		.byte	0x46
 3892 0dec 21       		.uleb128 0x21
 3893 0ded 01       		.uleb128 0x1
 3894 0dee 51       		.byte	0x51
 3895 0def 01       		.uleb128 0x1
 3896 0df0 3A       		.byte	0x3a
 3897 0df1 21       		.uleb128 0x21
 3898 0df2 01       		.uleb128 0x1
 3899 0df3 50       		.byte	0x50
 3900 0df4 03       		.uleb128 0x3
 3901 0df5 91       		.byte	0x91
 3902 0df6 F07E     		.sleb128 -144
 3903 0df8 00       		.byte	0
 3904 0df9 20       		.uleb128 0x20
 3905 0dfa AC000000 		.4byte	.LVL113
 3906 0dfe C31E0000 		.4byte	0x1ec3
 3907 0e02 180E0000 		.4byte	0xe18
 3908 0e06 21       		.uleb128 0x21
 3909 0e07 01       		.uleb128 0x1
 3910 0e08 52       		.byte	0x52
 3911 0e09 01       		.uleb128 0x1
 3912 0e0a 34       		.byte	0x34
 3913 0e0b 21       		.uleb128 0x21
 3914 0e0c 01       		.uleb128 0x1
 3915 0e0d 51       		.byte	0x51
 3916 0e0e 02       		.uleb128 0x2
 3917 0e0f 91       		.byte	0x91
 3918 0e10 74       		.sleb128 -12
 3919 0e11 21       		.uleb128 0x21
 3920 0e12 01       		.uleb128 0x1
 3921 0e13 50       		.byte	0x50
 3922 0e14 02       		.uleb128 0x2
 3923 0e15 74       		.byte	0x74
 3924 0e16 00       		.sleb128 0
 3925 0e17 00       		.byte	0
 3926 0e18 20       		.uleb128 0x20
 3927 0e19 C8000000 		.4byte	.LVL114
 3928 0e1d D61D0000 		.4byte	0x1dd6
 3929 0e21 360E0000 		.4byte	0xe36
 3930 0e25 21       		.uleb128 0x21
 3931 0e26 01       		.uleb128 0x1
 3932 0e27 51       		.byte	0x51
 3933 0e28 05       		.uleb128 0x5
 3934 0e29 03       		.byte	0x3
 3935 0e2a 64000000 		.4byte	.LC5
 3936 0e2e 21       		.uleb128 0x21
 3937 0e2f 01       		.uleb128 0x1
 3938 0e30 50       		.byte	0x50
 3939 0e31 03       		.uleb128 0x3
 3940 0e32 91       		.byte	0x91
 3941 0e33 F07E     		.sleb128 -144
 3942 0e35 00       		.byte	0
 3943 0e36 20       		.uleb128 0x20
 3944 0e37 D2000000 		.4byte	.LVL115
 3945 0e3b F11D0000 		.4byte	0x1df1
ARM GAS  C:\Users\student\AppData\Local\Temp\cc7xlRSM.s 			page 84


 3946 0e3f 560E0000 		.4byte	0xe56
 3947 0e43 21       		.uleb128 0x21
 3948 0e44 01       		.uleb128 0x1
 3949 0e45 52       		.byte	0x52
 3950 0e46 02       		.uleb128 0x2
 3951 0e47 08       		.byte	0x8
 3952 0e48 5A       		.byte	0x5a
 3953 0e49 21       		.uleb128 0x21
 3954 0e4a 01       		.uleb128 0x1
 3955 0e4b 51       		.byte	0x51
 3956 0e4c 01       		.uleb128 0x1
 3957 0e4d 3A       		.byte	0x3a
 3958 0e4e 21       		.uleb128 0x21
 3959 0e4f 01       		.uleb128 0x1
 3960 0e50 50       		.byte	0x50
 3961 0e51 03       		.uleb128 0x3
 3962 0e52 91       		.byte	0x91
 3963 0e53 F07E     		.sleb128 -144
 3964 0e55 00       		.byte	0
 3965 0e56 20       		.uleb128 0x20
 3966 0e57 DC000000 		.4byte	.LVL116
 3967 0e5b C31E0000 		.4byte	0x1ec3
 3968 0e5f 750E0000 		.4byte	0xe75
 3969 0e63 21       		.uleb128 0x21
 3970 0e64 01       		.uleb128 0x1
 3971 0e65 52       		.byte	0x52
 3972 0e66 01       		.uleb128 0x1
 3973 0e67 34       		.byte	0x34
 3974 0e68 21       		.uleb128 0x21
 3975 0e69 01       		.uleb128 0x1
 3976 0e6a 51       		.byte	0x51
 3977 0e6b 02       		.uleb128 0x2
 3978 0e6c 91       		.byte	0x91
 3979 0e6d 74       		.sleb128 -12
 3980 0e6e 21       		.uleb128 0x21
 3981 0e6f 01       		.uleb128 0x1
 3982 0e70 50       		.byte	0x50
 3983 0e71 02       		.uleb128 0x2
 3984 0e72 74       		.byte	0x74
 3985 0e73 00       		.sleb128 0
 3986 0e74 00       		.byte	0
 3987 0e75 20       		.uleb128 0x20
 3988 0e76 00010000 		.4byte	.LVL119
 3989 0e7a D61D0000 		.4byte	0x1dd6
 3990 0e7e 930E0000 		.4byte	0xe93
 3991 0e82 21       		.uleb128 0x21
 3992 0e83 01       		.uleb128 0x1
 3993 0e84 51       		.byte	0x51
 3994 0e85 05       		.uleb128 0x5
 3995 0e86 03       		.byte	0x3
 3996 0e87 7C000000 		.4byte	.LC6
 3997 0e8b 21       		.uleb128 0x21
 3998 0e8c 01       		.uleb128 0x1
 3999 0e8d 50       		.byte	0x50
 4000 0e8e 03       		.uleb128 0x3
 4001 0e8f 91       		.byte	0x91
 4002 0e90 F07E     		.sleb128 -144
ARM GAS  C:\Users\student\AppData\Local\Temp\cc7xlRSM.s 			page 85


 4003 0e92 00       		.byte	0
 4004 0e93 20       		.uleb128 0x20
 4005 0e94 0A010000 		.4byte	.LVL120
 4006 0e98 F11D0000 		.4byte	0x1df1
 4007 0e9c B30E0000 		.4byte	0xeb3
 4008 0ea0 21       		.uleb128 0x21
 4009 0ea1 01       		.uleb128 0x1
 4010 0ea2 52       		.byte	0x52
 4011 0ea3 02       		.uleb128 0x2
 4012 0ea4 08       		.byte	0x8
 4013 0ea5 6E       		.byte	0x6e
 4014 0ea6 21       		.uleb128 0x21
 4015 0ea7 01       		.uleb128 0x1
 4016 0ea8 51       		.byte	0x51
 4017 0ea9 01       		.uleb128 0x1
 4018 0eaa 3A       		.byte	0x3a
 4019 0eab 21       		.uleb128 0x21
 4020 0eac 01       		.uleb128 0x1
 4021 0ead 50       		.byte	0x50
 4022 0eae 03       		.uleb128 0x3
 4023 0eaf 91       		.byte	0x91
 4024 0eb0 F07E     		.sleb128 -144
 4025 0eb2 00       		.byte	0
 4026 0eb3 20       		.uleb128 0x20
 4027 0eb4 14010000 		.4byte	.LVL121
 4028 0eb8 C31E0000 		.4byte	0x1ec3
 4029 0ebc D20E0000 		.4byte	0xed2
 4030 0ec0 21       		.uleb128 0x21
 4031 0ec1 01       		.uleb128 0x1
 4032 0ec2 52       		.byte	0x52
 4033 0ec3 01       		.uleb128 0x1
 4034 0ec4 32       		.byte	0x32
 4035 0ec5 21       		.uleb128 0x21
 4036 0ec6 01       		.uleb128 0x1
 4037 0ec7 51       		.byte	0x51
 4038 0ec8 02       		.uleb128 0x2
 4039 0ec9 91       		.byte	0x91
 4040 0eca 70       		.sleb128 -16
 4041 0ecb 21       		.uleb128 0x21
 4042 0ecc 01       		.uleb128 0x1
 4043 0ecd 50       		.byte	0x50
 4044 0ece 02       		.uleb128 0x2
 4045 0ecf 74       		.byte	0x74
 4046 0ed0 00       		.sleb128 0
 4047 0ed1 00       		.byte	0
 4048 0ed2 20       		.uleb128 0x20
 4049 0ed3 28010000 		.4byte	.LVL124
 4050 0ed7 D61D0000 		.4byte	0x1dd6
 4051 0edb F00E0000 		.4byte	0xef0
 4052 0edf 21       		.uleb128 0x21
 4053 0ee0 01       		.uleb128 0x1
 4054 0ee1 51       		.byte	0x51
 4055 0ee2 05       		.uleb128 0x5
 4056 0ee3 03       		.byte	0x3
 4057 0ee4 90000000 		.4byte	.LC7
 4058 0ee8 21       		.uleb128 0x21
 4059 0ee9 01       		.uleb128 0x1
ARM GAS  C:\Users\student\AppData\Local\Temp\cc7xlRSM.s 			page 86


 4060 0eea 50       		.byte	0x50
 4061 0eeb 03       		.uleb128 0x3
 4062 0eec 91       		.byte	0x91
 4063 0eed F07E     		.sleb128 -144
 4064 0eef 00       		.byte	0
 4065 0ef0 20       		.uleb128 0x20
 4066 0ef1 32010000 		.4byte	.LVL125
 4067 0ef5 F11D0000 		.4byte	0x1df1
 4068 0ef9 100F0000 		.4byte	0xf10
 4069 0efd 21       		.uleb128 0x21
 4070 0efe 01       		.uleb128 0x1
 4071 0eff 52       		.byte	0x52
 4072 0f00 02       		.uleb128 0x2
 4073 0f01 08       		.byte	0x8
 4074 0f02 82       		.byte	0x82
 4075 0f03 21       		.uleb128 0x21
 4076 0f04 01       		.uleb128 0x1
 4077 0f05 51       		.byte	0x51
 4078 0f06 01       		.uleb128 0x1
 4079 0f07 3A       		.byte	0x3a
 4080 0f08 21       		.uleb128 0x21
 4081 0f09 01       		.uleb128 0x1
 4082 0f0a 50       		.byte	0x50
 4083 0f0b 03       		.uleb128 0x3
 4084 0f0c 91       		.byte	0x91
 4085 0f0d F07E     		.sleb128 -144
 4086 0f0f 00       		.byte	0
 4087 0f10 20       		.uleb128 0x20
 4088 0f11 3C010000 		.4byte	.LVL126
 4089 0f15 C31E0000 		.4byte	0x1ec3
 4090 0f19 2F0F0000 		.4byte	0xf2f
 4091 0f1d 21       		.uleb128 0x21
 4092 0f1e 01       		.uleb128 0x1
 4093 0f1f 52       		.byte	0x52
 4094 0f20 01       		.uleb128 0x1
 4095 0f21 32       		.byte	0x32
 4096 0f22 21       		.uleb128 0x21
 4097 0f23 01       		.uleb128 0x1
 4098 0f24 51       		.byte	0x51
 4099 0f25 02       		.uleb128 0x2
 4100 0f26 91       		.byte	0x91
 4101 0f27 70       		.sleb128 -16
 4102 0f28 21       		.uleb128 0x21
 4103 0f29 01       		.uleb128 0x1
 4104 0f2a 50       		.byte	0x50
 4105 0f2b 02       		.uleb128 0x2
 4106 0f2c 74       		.byte	0x74
 4107 0f2d 00       		.sleb128 0
 4108 0f2e 00       		.byte	0
 4109 0f2f 20       		.uleb128 0x20
 4110 0f30 50010000 		.4byte	.LVL129
 4111 0f34 D61D0000 		.4byte	0x1dd6
 4112 0f38 4D0F0000 		.4byte	0xf4d
 4113 0f3c 21       		.uleb128 0x21
 4114 0f3d 01       		.uleb128 0x1
 4115 0f3e 51       		.byte	0x51
 4116 0f3f 05       		.uleb128 0x5
ARM GAS  C:\Users\student\AppData\Local\Temp\cc7xlRSM.s 			page 87


 4117 0f40 03       		.byte	0x3
 4118 0f41 A0000000 		.4byte	.LC8
 4119 0f45 21       		.uleb128 0x21
 4120 0f46 01       		.uleb128 0x1
 4121 0f47 50       		.byte	0x50
 4122 0f48 03       		.uleb128 0x3
 4123 0f49 91       		.byte	0x91
 4124 0f4a F07E     		.sleb128 -144
 4125 0f4c 00       		.byte	0
 4126 0f4d 20       		.uleb128 0x20
 4127 0f4e 5A010000 		.4byte	.LVL130
 4128 0f52 F11D0000 		.4byte	0x1df1
 4129 0f56 6D0F0000 		.4byte	0xf6d
 4130 0f5a 21       		.uleb128 0x21
 4131 0f5b 01       		.uleb128 0x1
 4132 0f5c 52       		.byte	0x52
 4133 0f5d 02       		.uleb128 0x2
 4134 0f5e 08       		.byte	0x8
 4135 0f5f 96       		.byte	0x96
 4136 0f60 21       		.uleb128 0x21
 4137 0f61 01       		.uleb128 0x1
 4138 0f62 51       		.byte	0x51
 4139 0f63 01       		.uleb128 0x1
 4140 0f64 3A       		.byte	0x3a
 4141 0f65 21       		.uleb128 0x21
 4142 0f66 01       		.uleb128 0x1
 4143 0f67 50       		.byte	0x50
 4144 0f68 03       		.uleb128 0x3
 4145 0f69 91       		.byte	0x91
 4146 0f6a F07E     		.sleb128 -144
 4147 0f6c 00       		.byte	0
 4148 0f6d 20       		.uleb128 0x20
 4149 0f6e 64010000 		.4byte	.LVL131
 4150 0f72 C31E0000 		.4byte	0x1ec3
 4151 0f76 8C0F0000 		.4byte	0xf8c
 4152 0f7a 21       		.uleb128 0x21
 4153 0f7b 01       		.uleb128 0x1
 4154 0f7c 52       		.byte	0x52
 4155 0f7d 01       		.uleb128 0x1
 4156 0f7e 34       		.byte	0x34
 4157 0f7f 21       		.uleb128 0x21
 4158 0f80 01       		.uleb128 0x1
 4159 0f81 51       		.byte	0x51
 4160 0f82 02       		.uleb128 0x2
 4161 0f83 91       		.byte	0x91
 4162 0f84 74       		.sleb128 -12
 4163 0f85 21       		.uleb128 0x21
 4164 0f86 01       		.uleb128 0x1
 4165 0f87 50       		.byte	0x50
 4166 0f88 02       		.uleb128 0x2
 4167 0f89 74       		.byte	0x74
 4168 0f8a 00       		.sleb128 0
 4169 0f8b 00       		.byte	0
 4170 0f8c 20       		.uleb128 0x20
 4171 0f8d 88010000 		.4byte	.LVL134
 4172 0f91 D61D0000 		.4byte	0x1dd6
 4173 0f95 AA0F0000 		.4byte	0xfaa
ARM GAS  C:\Users\student\AppData\Local\Temp\cc7xlRSM.s 			page 88


 4174 0f99 21       		.uleb128 0x21
 4175 0f9a 01       		.uleb128 0x1
 4176 0f9b 51       		.byte	0x51
 4177 0f9c 05       		.uleb128 0x5
 4178 0f9d 03       		.byte	0x3
 4179 0f9e B0000000 		.4byte	.LC9
 4180 0fa2 21       		.uleb128 0x21
 4181 0fa3 01       		.uleb128 0x1
 4182 0fa4 50       		.byte	0x50
 4183 0fa5 03       		.uleb128 0x3
 4184 0fa6 91       		.byte	0x91
 4185 0fa7 F07E     		.sleb128 -144
 4186 0fa9 00       		.byte	0
 4187 0faa 20       		.uleb128 0x20
 4188 0fab 92010000 		.4byte	.LVL135
 4189 0faf F11D0000 		.4byte	0x1df1
 4190 0fb3 CA0F0000 		.4byte	0xfca
 4191 0fb7 21       		.uleb128 0x21
 4192 0fb8 01       		.uleb128 0x1
 4193 0fb9 52       		.byte	0x52
 4194 0fba 02       		.uleb128 0x2
 4195 0fbb 08       		.byte	0x8
 4196 0fbc AA       		.byte	0xaa
 4197 0fbd 21       		.uleb128 0x21
 4198 0fbe 01       		.uleb128 0x1
 4199 0fbf 51       		.byte	0x51
 4200 0fc0 01       		.uleb128 0x1
 4201 0fc1 3A       		.byte	0x3a
 4202 0fc2 21       		.uleb128 0x21
 4203 0fc3 01       		.uleb128 0x1
 4204 0fc4 50       		.byte	0x50
 4205 0fc5 03       		.uleb128 0x3
 4206 0fc6 91       		.byte	0x91
 4207 0fc7 F07E     		.sleb128 -144
 4208 0fc9 00       		.byte	0
 4209 0fca 20       		.uleb128 0x20
 4210 0fcb 9C010000 		.4byte	.LVL136
 4211 0fcf C31E0000 		.4byte	0x1ec3
 4212 0fd3 E90F0000 		.4byte	0xfe9
 4213 0fd7 21       		.uleb128 0x21
 4214 0fd8 01       		.uleb128 0x1
 4215 0fd9 52       		.byte	0x52
 4216 0fda 01       		.uleb128 0x1
 4217 0fdb 34       		.byte	0x34
 4218 0fdc 21       		.uleb128 0x21
 4219 0fdd 01       		.uleb128 0x1
 4220 0fde 51       		.byte	0x51
 4221 0fdf 02       		.uleb128 0x2
 4222 0fe0 91       		.byte	0x91
 4223 0fe1 74       		.sleb128 -12
 4224 0fe2 21       		.uleb128 0x21
 4225 0fe3 01       		.uleb128 0x1
 4226 0fe4 50       		.byte	0x50
 4227 0fe5 02       		.uleb128 0x2
 4228 0fe6 74       		.byte	0x74
 4229 0fe7 00       		.sleb128 0
 4230 0fe8 00       		.byte	0
ARM GAS  C:\Users\student\AppData\Local\Temp\cc7xlRSM.s 			page 89


 4231 0fe9 20       		.uleb128 0x20
 4232 0fea C0010000 		.4byte	.LVL139
 4233 0fee D61D0000 		.4byte	0x1dd6
 4234 0ff2 07100000 		.4byte	0x1007
 4235 0ff6 21       		.uleb128 0x21
 4236 0ff7 01       		.uleb128 0x1
 4237 0ff8 51       		.byte	0x51
 4238 0ff9 05       		.uleb128 0x5
 4239 0ffa 03       		.byte	0x3
 4240 0ffb C4000000 		.4byte	.LC10
 4241 0fff 21       		.uleb128 0x21
 4242 1000 01       		.uleb128 0x1
 4243 1001 50       		.byte	0x50
 4244 1002 03       		.uleb128 0x3
 4245 1003 91       		.byte	0x91
 4246 1004 F07E     		.sleb128 -144
 4247 1006 00       		.byte	0
 4248 1007 20       		.uleb128 0x20
 4249 1008 CA010000 		.4byte	.LVL140
 4250 100c F11D0000 		.4byte	0x1df1
 4251 1010 27100000 		.4byte	0x1027
 4252 1014 21       		.uleb128 0x21
 4253 1015 01       		.uleb128 0x1
 4254 1016 52       		.byte	0x52
 4255 1017 02       		.uleb128 0x2
 4256 1018 08       		.byte	0x8
 4257 1019 BE       		.byte	0xbe
 4258 101a 21       		.uleb128 0x21
 4259 101b 01       		.uleb128 0x1
 4260 101c 51       		.byte	0x51
 4261 101d 01       		.uleb128 0x1
 4262 101e 3A       		.byte	0x3a
 4263 101f 21       		.uleb128 0x21
 4264 1020 01       		.uleb128 0x1
 4265 1021 50       		.byte	0x50
 4266 1022 03       		.uleb128 0x3
 4267 1023 91       		.byte	0x91
 4268 1024 F07E     		.sleb128 -144
 4269 1026 00       		.byte	0
 4270 1027 20       		.uleb128 0x20
 4271 1028 D4010000 		.4byte	.LVL141
 4272 102c C31E0000 		.4byte	0x1ec3
 4273 1030 46100000 		.4byte	0x1046
 4274 1034 21       		.uleb128 0x21
 4275 1035 01       		.uleb128 0x1
 4276 1036 52       		.byte	0x52
 4277 1037 01       		.uleb128 0x1
 4278 1038 32       		.byte	0x32
 4279 1039 21       		.uleb128 0x21
 4280 103a 01       		.uleb128 0x1
 4281 103b 51       		.byte	0x51
 4282 103c 02       		.uleb128 0x2
 4283 103d 91       		.byte	0x91
 4284 103e 70       		.sleb128 -16
 4285 103f 21       		.uleb128 0x21
 4286 1040 01       		.uleb128 0x1
 4287 1041 50       		.byte	0x50
ARM GAS  C:\Users\student\AppData\Local\Temp\cc7xlRSM.s 			page 90


 4288 1042 02       		.uleb128 0x2
 4289 1043 74       		.byte	0x74
 4290 1044 00       		.sleb128 0
 4291 1045 00       		.byte	0
 4292 1046 20       		.uleb128 0x20
 4293 1047 E8010000 		.4byte	.LVL144
 4294 104b D61D0000 		.4byte	0x1dd6
 4295 104f 64100000 		.4byte	0x1064
 4296 1053 21       		.uleb128 0x21
 4297 1054 01       		.uleb128 0x1
 4298 1055 51       		.byte	0x51
 4299 1056 05       		.uleb128 0x5
 4300 1057 03       		.byte	0x3
 4301 1058 D4000000 		.4byte	.LC11
 4302 105c 21       		.uleb128 0x21
 4303 105d 01       		.uleb128 0x1
 4304 105e 50       		.byte	0x50
 4305 105f 03       		.uleb128 0x3
 4306 1060 91       		.byte	0x91
 4307 1061 F07E     		.sleb128 -144
 4308 1063 00       		.byte	0
 4309 1064 20       		.uleb128 0x20
 4310 1065 F2010000 		.4byte	.LVL145
 4311 1069 F11D0000 		.4byte	0x1df1
 4312 106d 84100000 		.4byte	0x1084
 4313 1071 21       		.uleb128 0x21
 4314 1072 01       		.uleb128 0x1
 4315 1073 52       		.byte	0x52
 4316 1074 02       		.uleb128 0x2
 4317 1075 08       		.byte	0x8
 4318 1076 D2       		.byte	0xd2
 4319 1077 21       		.uleb128 0x21
 4320 1078 01       		.uleb128 0x1
 4321 1079 51       		.byte	0x51
 4322 107a 01       		.uleb128 0x1
 4323 107b 3A       		.byte	0x3a
 4324 107c 21       		.uleb128 0x21
 4325 107d 01       		.uleb128 0x1
 4326 107e 50       		.byte	0x50
 4327 107f 03       		.uleb128 0x3
 4328 1080 91       		.byte	0x91
 4329 1081 F07E     		.sleb128 -144
 4330 1083 00       		.byte	0
 4331 1084 20       		.uleb128 0x20
 4332 1085 FC010000 		.4byte	.LVL146
 4333 1089 C31E0000 		.4byte	0x1ec3
 4334 108d A3100000 		.4byte	0x10a3
 4335 1091 21       		.uleb128 0x21
 4336 1092 01       		.uleb128 0x1
 4337 1093 52       		.byte	0x52
 4338 1094 01       		.uleb128 0x1
 4339 1095 32       		.byte	0x32
 4340 1096 21       		.uleb128 0x21
 4341 1097 01       		.uleb128 0x1
 4342 1098 51       		.byte	0x51
 4343 1099 02       		.uleb128 0x2
 4344 109a 91       		.byte	0x91
ARM GAS  C:\Users\student\AppData\Local\Temp\cc7xlRSM.s 			page 91


 4345 109b 70       		.sleb128 -16
 4346 109c 21       		.uleb128 0x21
 4347 109d 01       		.uleb128 0x1
 4348 109e 50       		.byte	0x50
 4349 109f 02       		.uleb128 0x2
 4350 10a0 74       		.byte	0x74
 4351 10a1 00       		.sleb128 0
 4352 10a2 00       		.byte	0
 4353 10a3 20       		.uleb128 0x20
 4354 10a4 10020000 		.4byte	.LVL149
 4355 10a8 D61D0000 		.4byte	0x1dd6
 4356 10ac C1100000 		.4byte	0x10c1
 4357 10b0 21       		.uleb128 0x21
 4358 10b1 01       		.uleb128 0x1
 4359 10b2 51       		.byte	0x51
 4360 10b3 05       		.uleb128 0x5
 4361 10b4 03       		.byte	0x3
 4362 10b5 E4000000 		.4byte	.LC12
 4363 10b9 21       		.uleb128 0x21
 4364 10ba 01       		.uleb128 0x1
 4365 10bb 50       		.byte	0x50
 4366 10bc 03       		.uleb128 0x3
 4367 10bd 91       		.byte	0x91
 4368 10be F07E     		.sleb128 -144
 4369 10c0 00       		.byte	0
 4370 10c1 2F       		.uleb128 0x2f
 4371 10c2 1A020000 		.4byte	.LVL150
 4372 10c6 F11D0000 		.4byte	0x1df1
 4373 10ca 21       		.uleb128 0x21
 4374 10cb 01       		.uleb128 0x1
 4375 10cc 52       		.byte	0x52
 4376 10cd 02       		.uleb128 0x2
 4377 10ce 08       		.byte	0x8
 4378 10cf E6       		.byte	0xe6
 4379 10d0 21       		.uleb128 0x21
 4380 10d1 01       		.uleb128 0x1
 4381 10d2 51       		.byte	0x51
 4382 10d3 01       		.uleb128 0x1
 4383 10d4 3A       		.byte	0x3a
 4384 10d5 21       		.uleb128 0x21
 4385 10d6 01       		.uleb128 0x1
 4386 10d7 50       		.byte	0x50
 4387 10d8 03       		.uleb128 0x3
 4388 10d9 91       		.byte	0x91
 4389 10da F07E     		.sleb128 -144
 4390 10dc 00       		.byte	0
 4391 10dd 00       		.byte	0
 4392 10de 09       		.uleb128 0x9
 4393 10df 01010000 		.4byte	0x101
 4394 10e3 EE100000 		.4byte	0x10ee
 4395 10e7 0A       		.uleb128 0xa
 4396 10e8 3B010000 		.4byte	0x13b
 4397 10ec 7F       		.byte	0x7f
 4398 10ed 00       		.byte	0
 4399 10ee 2D       		.uleb128 0x2d
 4400 10ef AF070000 		.4byte	.LASF152
 4401 10f3 01       		.byte	0x1
ARM GAS  C:\Users\student\AppData\Local\Temp\cc7xlRSM.s 			page 92


 4402 10f4 F8       		.byte	0xf8
 4403 10f5 00000000 		.4byte	.LFB68
 4404 10f9 6C020000 		.4byte	.LFE68-.LFB68
 4405 10fd 01       		.uleb128 0x1
 4406 10fe 9C       		.byte	0x9c
 4407 10ff 6B160000 		.4byte	0x166b
 4408 1103 2E       		.uleb128 0x2e
 4409 1104 59000000 		.4byte	.LASF153
 4410 1108 01       		.byte	0x1
 4411 1109 F9       		.byte	0xf9
 4412 110a 6B160000 		.4byte	0x166b
 4413 110e 02       		.uleb128 0x2
 4414 110f 91       		.byte	0x91
 4415 1110 64       		.sleb128 -28
 4416 1111 30       		.uleb128 0x30
 4417 1112 666400   		.ascii	"fd\000"
 4418 1115 01       		.byte	0x1
 4419 1116 0D01     		.2byte	0x10d
 4420 1118 FD070000 		.4byte	0x7fd
 4421 111c 03       		.uleb128 0x3
 4422 111d 91       		.byte	0x91
 4423 111e A87F     		.sleb128 -88
 4424 1120 31       		.uleb128 0x31
 4425 1121 8C020000 		.4byte	.LASF154
 4426 1125 01       		.byte	0x1
 4427 1126 0E01     		.2byte	0x10e
 4428 1128 7B160000 		.4byte	0x167b
 4429 112c 03       		.uleb128 0x3
 4430 112d 91       		.byte	0x91
 4431 112e A87D     		.sleb128 -344
 4432 1130 32       		.uleb128 0x32
 4433 1131 66643200 		.ascii	"fd2\000"
 4434 1135 01       		.byte	0x1
 4435 1136 3301     		.2byte	0x133
 4436 1138 FD070000 		.4byte	0x7fd
 4437 113c 33       		.uleb128 0x33
 4438 113d 6E000000 		.4byte	.LBB2
 4439 1141 38000000 		.4byte	.LBE2-.LBB2
 4440 1145 BA110000 		.4byte	0x11ba
 4441 1149 31       		.uleb128 0x31
 4442 114a 72000000 		.4byte	.LASF156
 4443 114e 01       		.byte	0x1
 4444 114f 1101     		.2byte	0x111
 4445 1151 44010000 		.4byte	0x144
 4446 1155 01       		.uleb128 0x1
 4447 1156 54       		.byte	0x54
 4448 1157 20       		.uleb128 0x20
 4449 1158 88000000 		.4byte	.LVL162
 4450 115c E31E0000 		.4byte	0x1ee3
 4451 1160 72110000 		.4byte	0x1172
 4452 1164 21       		.uleb128 0x21
 4453 1165 01       		.uleb128 0x1
 4454 1166 51       		.byte	0x51
 4455 1167 03       		.uleb128 0x3
 4456 1168 91       		.byte	0x91
 4457 1169 A87D     		.sleb128 -344
 4458 116b 21       		.uleb128 0x21
ARM GAS  C:\Users\student\AppData\Local\Temp\cc7xlRSM.s 			page 93


 4459 116c 01       		.uleb128 0x1
 4460 116d 50       		.byte	0x50
 4461 116e 02       		.uleb128 0x2
 4462 116f 74       		.byte	0x74
 4463 1170 00       		.sleb128 0
 4464 1171 00       		.byte	0
 4465 1172 20       		.uleb128 0x20
 4466 1173 8E000000 		.4byte	.LVL163
 4467 1177 FD1E0000 		.4byte	0x1efd
 4468 117b 86110000 		.4byte	0x1186
 4469 117f 21       		.uleb128 0x21
 4470 1180 01       		.uleb128 0x1
 4471 1181 50       		.byte	0x50
 4472 1182 02       		.uleb128 0x2
 4473 1183 74       		.byte	0x74
 4474 1184 00       		.sleb128 0
 4475 1185 00       		.byte	0
 4476 1186 20       		.uleb128 0x20
 4477 1187 9E000000 		.4byte	.LVL164
 4478 118b F11D0000 		.4byte	0x1df1
 4479 118f A8110000 		.4byte	0x11a8
 4480 1193 21       		.uleb128 0x21
 4481 1194 01       		.uleb128 0x1
 4482 1195 52       		.byte	0x52
 4483 1196 02       		.uleb128 0x2
 4484 1197 08       		.byte	0x8
 4485 1198 46       		.byte	0x46
 4486 1199 21       		.uleb128 0x21
 4487 119a 01       		.uleb128 0x1
 4488 119b 51       		.byte	0x51
 4489 119c 01       		.uleb128 0x1
 4490 119d 3A       		.byte	0x3a
 4491 119e 21       		.uleb128 0x21
 4492 119f 01       		.uleb128 0x1
 4493 11a0 50       		.byte	0x50
 4494 11a1 05       		.uleb128 0x5
 4495 11a2 03       		.byte	0x3
 4496 11a3 68010000 		.4byte	.LC21
 4497 11a7 00       		.byte	0
 4498 11a8 2F       		.uleb128 0x2f
 4499 11a9 A6000000 		.4byte	.LVL165
 4500 11ad 161F0000 		.4byte	0x1f16
 4501 11b1 21       		.uleb128 0x21
 4502 11b2 01       		.uleb128 0x1
 4503 11b3 50       		.byte	0x50
 4504 11b4 03       		.uleb128 0x3
 4505 11b5 0A       		.byte	0xa
 4506 11b6 F401     		.2byte	0x1f4
 4507 11b8 00       		.byte	0
 4508 11b9 00       		.byte	0
 4509 11ba 33       		.uleb128 0x33
 4510 11bb C8000000 		.4byte	.LBB3
 4511 11bf 66000000 		.4byte	.LBE3-.LBB3
 4512 11c3 AA120000 		.4byte	0x12aa
 4513 11c7 31       		.uleb128 0x31
 4514 11c8 EC010000 		.4byte	.LASF157
 4515 11cc 01       		.byte	0x1
ARM GAS  C:\Users\student\AppData\Local\Temp\cc7xlRSM.s 			page 94


 4516 11cd 2501     		.2byte	0x125
 4517 11cf DE100000 		.4byte	0x10de
 4518 11d3 03       		.uleb128 0x3
 4519 11d4 91       		.byte	0x91
 4520 11d5 A87C     		.sleb128 -472
 4521 11d7 20       		.uleb128 0x20
 4522 11d8 D2000000 		.4byte	.LVL169
 4523 11dc F11D0000 		.4byte	0x1df1
 4524 11e0 F9110000 		.4byte	0x11f9
 4525 11e4 21       		.uleb128 0x21
 4526 11e5 01       		.uleb128 0x1
 4527 11e6 52       		.byte	0x52
 4528 11e7 02       		.uleb128 0x2
 4529 11e8 08       		.byte	0x8
 4530 11e9 82       		.byte	0x82
 4531 11ea 21       		.uleb128 0x21
 4532 11eb 01       		.uleb128 0x1
 4533 11ec 51       		.byte	0x51
 4534 11ed 01       		.uleb128 0x1
 4535 11ee 3A       		.byte	0x3a
 4536 11ef 21       		.uleb128 0x21
 4537 11f0 01       		.uleb128 0x1
 4538 11f1 50       		.byte	0x50
 4539 11f2 05       		.uleb128 0x5
 4540 11f3 03       		.byte	0x3
 4541 11f4 84010000 		.4byte	.LC24
 4542 11f8 00       		.byte	0
 4543 11f9 22       		.uleb128 0x22
 4544 11fa DA000000 		.4byte	.LVL170
 4545 11fe 2B0C0000 		.4byte	0xc2b
 4546 1202 20       		.uleb128 0x20
 4547 1203 E8000000 		.4byte	.LVL171
 4548 1207 C31E0000 		.4byte	0x1ec3
 4549 120b 17120000 		.4byte	0x1217
 4550 120f 21       		.uleb128 0x21
 4551 1210 01       		.uleb128 0x1
 4552 1211 52       		.byte	0x52
 4553 1212 03       		.uleb128 0x3
 4554 1213 0A       		.byte	0xa
 4555 1214 F82F     		.2byte	0x2ff8
 4556 1216 00       		.byte	0
 4557 1217 20       		.uleb128 0x20
 4558 1218 F8000000 		.4byte	.LVL172
 4559 121c C31E0000 		.4byte	0x1ec3
 4560 1220 2C120000 		.4byte	0x122c
 4561 1224 21       		.uleb128 0x21
 4562 1225 01       		.uleb128 0x1
 4563 1226 52       		.byte	0x52
 4564 1227 03       		.uleb128 0x3
 4565 1228 0A       		.byte	0xa
 4566 1229 F82F     		.2byte	0x2ff8
 4567 122b 00       		.byte	0
 4568 122c 20       		.uleb128 0x20
 4569 122d 06010000 		.4byte	.LVL173
 4570 1231 D61D0000 		.4byte	0x1dd6
 4571 1235 49120000 		.4byte	0x1249
 4572 1239 21       		.uleb128 0x21
ARM GAS  C:\Users\student\AppData\Local\Temp\cc7xlRSM.s 			page 95


 4573 123a 01       		.uleb128 0x1
 4574 123b 51       		.byte	0x51
 4575 123c 05       		.uleb128 0x5
 4576 123d 03       		.byte	0x3
 4577 123e A0010000 		.4byte	.LC25
 4578 1242 21       		.uleb128 0x21
 4579 1243 01       		.uleb128 0x1
 4580 1244 50       		.byte	0x50
 4581 1245 02       		.uleb128 0x2
 4582 1246 7D       		.byte	0x7d
 4583 1247 00       		.sleb128 0
 4584 1248 00       		.byte	0
 4585 1249 20       		.uleb128 0x20
 4586 124a 12010000 		.4byte	.LVL174
 4587 124e F11D0000 		.4byte	0x1df1
 4588 1252 69120000 		.4byte	0x1269
 4589 1256 21       		.uleb128 0x21
 4590 1257 01       		.uleb128 0x1
 4591 1258 52       		.byte	0x52
 4592 1259 03       		.uleb128 0x3
 4593 125a 0A       		.byte	0xa
 4594 125b 1801     		.2byte	0x118
 4595 125d 21       		.uleb128 0x21
 4596 125e 01       		.uleb128 0x1
 4597 125f 51       		.byte	0x51
 4598 1260 01       		.uleb128 0x1
 4599 1261 3A       		.byte	0x3a
 4600 1262 21       		.uleb128 0x21
 4601 1263 01       		.uleb128 0x1
 4602 1264 50       		.byte	0x50
 4603 1265 02       		.uleb128 0x2
 4604 1266 7D       		.byte	0x7d
 4605 1267 00       		.sleb128 0
 4606 1268 00       		.byte	0
 4607 1269 20       		.uleb128 0x20
 4608 126a 20010000 		.4byte	.LVL175
 4609 126e F11D0000 		.4byte	0x1df1
 4610 1272 8B120000 		.4byte	0x128b
 4611 1276 21       		.uleb128 0x21
 4612 1277 01       		.uleb128 0x1
 4613 1278 52       		.byte	0x52
 4614 1279 02       		.uleb128 0x2
 4615 127a 08       		.byte	0x8
 4616 127b 96       		.byte	0x96
 4617 127c 21       		.uleb128 0x21
 4618 127d 01       		.uleb128 0x1
 4619 127e 51       		.byte	0x51
 4620 127f 01       		.uleb128 0x1
 4621 1280 3A       		.byte	0x3a
 4622 1281 21       		.uleb128 0x21
 4623 1282 01       		.uleb128 0x1
 4624 1283 50       		.byte	0x50
 4625 1284 05       		.uleb128 0x5
 4626 1285 03       		.byte	0x3
 4627 1286 B0010000 		.4byte	.LC26
 4628 128a 00       		.byte	0
 4629 128b 2F       		.uleb128 0x2f
ARM GAS  C:\Users\student\AppData\Local\Temp\cc7xlRSM.s 			page 96


 4630 128c 2C010000 		.4byte	.LVL176
 4631 1290 F11D0000 		.4byte	0x1df1
 4632 1294 21       		.uleb128 0x21
 4633 1295 01       		.uleb128 0x1
 4634 1296 52       		.byte	0x52
 4635 1297 02       		.uleb128 0x2
 4636 1298 08       		.byte	0x8
 4637 1299 AA       		.byte	0xaa
 4638 129a 21       		.uleb128 0x21
 4639 129b 01       		.uleb128 0x1
 4640 129c 51       		.byte	0x51
 4641 129d 01       		.uleb128 0x1
 4642 129e 3A       		.byte	0x3a
 4643 129f 21       		.uleb128 0x21
 4644 12a0 01       		.uleb128 0x1
 4645 12a1 50       		.byte	0x50
 4646 12a2 05       		.uleb128 0x5
 4647 12a3 03       		.byte	0x3
 4648 12a4 C8010000 		.4byte	.LC27
 4649 12a8 00       		.byte	0
 4650 12a9 00       		.byte	0
 4651 12aa 33       		.uleb128 0x33
 4652 12ab 4E010000 		.4byte	.LBB4
 4653 12af 38000000 		.4byte	.LBE4-.LBB4
 4654 12b3 28130000 		.4byte	0x1328
 4655 12b7 31       		.uleb128 0x31
 4656 12b8 72000000 		.4byte	.LASF156
 4657 12bc 01       		.byte	0x1
 4658 12bd 3601     		.2byte	0x136
 4659 12bf 44010000 		.4byte	0x144
 4660 12c3 01       		.uleb128 0x1
 4661 12c4 54       		.byte	0x54
 4662 12c5 20       		.uleb128 0x20
 4663 12c6 68010000 		.4byte	.LVL180
 4664 12ca E31E0000 		.4byte	0x1ee3
 4665 12ce E0120000 		.4byte	0x12e0
 4666 12d2 21       		.uleb128 0x21
 4667 12d3 01       		.uleb128 0x1
 4668 12d4 51       		.byte	0x51
 4669 12d5 03       		.uleb128 0x3
 4670 12d6 91       		.byte	0x91
 4671 12d7 A87D     		.sleb128 -344
 4672 12d9 21       		.uleb128 0x21
 4673 12da 01       		.uleb128 0x1
 4674 12db 50       		.byte	0x50
 4675 12dc 02       		.uleb128 0x2
 4676 12dd 74       		.byte	0x74
 4677 12de 00       		.sleb128 0
 4678 12df 00       		.byte	0
 4679 12e0 20       		.uleb128 0x20
 4680 12e1 6E010000 		.4byte	.LVL181
 4681 12e5 FD1E0000 		.4byte	0x1efd
 4682 12e9 F4120000 		.4byte	0x12f4
 4683 12ed 21       		.uleb128 0x21
 4684 12ee 01       		.uleb128 0x1
 4685 12ef 50       		.byte	0x50
 4686 12f0 02       		.uleb128 0x2
ARM GAS  C:\Users\student\AppData\Local\Temp\cc7xlRSM.s 			page 97


 4687 12f1 74       		.byte	0x74
 4688 12f2 00       		.sleb128 0
 4689 12f3 00       		.byte	0
 4690 12f4 20       		.uleb128 0x20
 4691 12f5 7E010000 		.4byte	.LVL182
 4692 12f9 F11D0000 		.4byte	0x1df1
 4693 12fd 16130000 		.4byte	0x1316
 4694 1301 21       		.uleb128 0x21
 4695 1302 01       		.uleb128 0x1
 4696 1303 52       		.byte	0x52
 4697 1304 02       		.uleb128 0x2
 4698 1305 08       		.byte	0x8
 4699 1306 46       		.byte	0x46
 4700 1307 21       		.uleb128 0x21
 4701 1308 01       		.uleb128 0x1
 4702 1309 51       		.byte	0x51
 4703 130a 01       		.uleb128 0x1
 4704 130b 3A       		.byte	0x3a
 4705 130c 21       		.uleb128 0x21
 4706 130d 01       		.uleb128 0x1
 4707 130e 50       		.byte	0x50
 4708 130f 05       		.uleb128 0x5
 4709 1310 03       		.byte	0x3
 4710 1311 68010000 		.4byte	.LC21
 4711 1315 00       		.byte	0
 4712 1316 2F       		.uleb128 0x2f
 4713 1317 86010000 		.4byte	.LVL183
 4714 131b 161F0000 		.4byte	0x1f16
 4715 131f 21       		.uleb128 0x21
 4716 1320 01       		.uleb128 0x1
 4717 1321 50       		.byte	0x50
 4718 1322 03       		.uleb128 0x3
 4719 1323 0A       		.byte	0xa
 4720 1324 F401     		.2byte	0x1f4
 4721 1326 00       		.byte	0
 4722 1327 00       		.byte	0
 4723 1328 33       		.uleb128 0x33
 4724 1329 A8010000 		.4byte	.LBB5
 4725 132d 66000000 		.4byte	.LBE5-.LBB5
 4726 1331 18140000 		.4byte	0x1418
 4727 1335 31       		.uleb128 0x31
 4728 1336 EC010000 		.4byte	.LASF157
 4729 133a 01       		.byte	0x1
 4730 133b 4901     		.2byte	0x149
 4731 133d DE100000 		.4byte	0x10de
 4732 1341 03       		.uleb128 0x3
 4733 1342 91       		.byte	0x91
 4734 1343 A87C     		.sleb128 -472
 4735 1345 20       		.uleb128 0x20
 4736 1346 B2010000 		.4byte	.LVL187
 4737 134a F11D0000 		.4byte	0x1df1
 4738 134e 67130000 		.4byte	0x1367
 4739 1352 21       		.uleb128 0x21
 4740 1353 01       		.uleb128 0x1
 4741 1354 52       		.byte	0x52
 4742 1355 02       		.uleb128 0x2
 4743 1356 08       		.byte	0x8
ARM GAS  C:\Users\student\AppData\Local\Temp\cc7xlRSM.s 			page 98


 4744 1357 82       		.byte	0x82
 4745 1358 21       		.uleb128 0x21
 4746 1359 01       		.uleb128 0x1
 4747 135a 51       		.byte	0x51
 4748 135b 01       		.uleb128 0x1
 4749 135c 3A       		.byte	0x3a
 4750 135d 21       		.uleb128 0x21
 4751 135e 01       		.uleb128 0x1
 4752 135f 50       		.byte	0x50
 4753 1360 05       		.uleb128 0x5
 4754 1361 03       		.byte	0x3
 4755 1362 84010000 		.4byte	.LC24
 4756 1366 00       		.byte	0
 4757 1367 22       		.uleb128 0x22
 4758 1368 BA010000 		.4byte	.LVL188
 4759 136c 2B0C0000 		.4byte	0xc2b
 4760 1370 20       		.uleb128 0x20
 4761 1371 C8010000 		.4byte	.LVL189
 4762 1375 C31E0000 		.4byte	0x1ec3
 4763 1379 85130000 		.4byte	0x1385
 4764 137d 21       		.uleb128 0x21
 4765 137e 01       		.uleb128 0x1
 4766 137f 52       		.byte	0x52
 4767 1380 03       		.uleb128 0x3
 4768 1381 0A       		.byte	0xa
 4769 1382 F82F     		.2byte	0x2ff8
 4770 1384 00       		.byte	0
 4771 1385 20       		.uleb128 0x20
 4772 1386 D8010000 		.4byte	.LVL190
 4773 138a C31E0000 		.4byte	0x1ec3
 4774 138e 9A130000 		.4byte	0x139a
 4775 1392 21       		.uleb128 0x21
 4776 1393 01       		.uleb128 0x1
 4777 1394 52       		.byte	0x52
 4778 1395 03       		.uleb128 0x3
 4779 1396 0A       		.byte	0xa
 4780 1397 F82F     		.2byte	0x2ff8
 4781 1399 00       		.byte	0
 4782 139a 20       		.uleb128 0x20
 4783 139b E6010000 		.4byte	.LVL191
 4784 139f D61D0000 		.4byte	0x1dd6
 4785 13a3 B7130000 		.4byte	0x13b7
 4786 13a7 21       		.uleb128 0x21
 4787 13a8 01       		.uleb128 0x1
 4788 13a9 51       		.byte	0x51
 4789 13aa 05       		.uleb128 0x5
 4790 13ab 03       		.byte	0x3
 4791 13ac A0010000 		.4byte	.LC25
 4792 13b0 21       		.uleb128 0x21
 4793 13b1 01       		.uleb128 0x1
 4794 13b2 50       		.byte	0x50
 4795 13b3 02       		.uleb128 0x2
 4796 13b4 7D       		.byte	0x7d
 4797 13b5 00       		.sleb128 0
 4798 13b6 00       		.byte	0
 4799 13b7 20       		.uleb128 0x20
 4800 13b8 F2010000 		.4byte	.LVL192
ARM GAS  C:\Users\student\AppData\Local\Temp\cc7xlRSM.s 			page 99


 4801 13bc F11D0000 		.4byte	0x1df1
 4802 13c0 D7130000 		.4byte	0x13d7
 4803 13c4 21       		.uleb128 0x21
 4804 13c5 01       		.uleb128 0x1
 4805 13c6 52       		.byte	0x52
 4806 13c7 03       		.uleb128 0x3
 4807 13c8 0A       		.byte	0xa
 4808 13c9 1801     		.2byte	0x118
 4809 13cb 21       		.uleb128 0x21
 4810 13cc 01       		.uleb128 0x1
 4811 13cd 51       		.byte	0x51
 4812 13ce 01       		.uleb128 0x1
 4813 13cf 3A       		.byte	0x3a
 4814 13d0 21       		.uleb128 0x21
 4815 13d1 01       		.uleb128 0x1
 4816 13d2 50       		.byte	0x50
 4817 13d3 02       		.uleb128 0x2
 4818 13d4 7D       		.byte	0x7d
 4819 13d5 00       		.sleb128 0
 4820 13d6 00       		.byte	0
 4821 13d7 20       		.uleb128 0x20
 4822 13d8 00020000 		.4byte	.LVL193
 4823 13dc F11D0000 		.4byte	0x1df1
 4824 13e0 F9130000 		.4byte	0x13f9
 4825 13e4 21       		.uleb128 0x21
 4826 13e5 01       		.uleb128 0x1
 4827 13e6 52       		.byte	0x52
 4828 13e7 02       		.uleb128 0x2
 4829 13e8 08       		.byte	0x8
 4830 13e9 96       		.byte	0x96
 4831 13ea 21       		.uleb128 0x21
 4832 13eb 01       		.uleb128 0x1
 4833 13ec 51       		.byte	0x51
 4834 13ed 01       		.uleb128 0x1
 4835 13ee 3A       		.byte	0x3a
 4836 13ef 21       		.uleb128 0x21
 4837 13f0 01       		.uleb128 0x1
 4838 13f1 50       		.byte	0x50
 4839 13f2 05       		.uleb128 0x5
 4840 13f3 03       		.byte	0x3
 4841 13f4 B0010000 		.4byte	.LC26
 4842 13f8 00       		.byte	0
 4843 13f9 2F       		.uleb128 0x2f
 4844 13fa 0C020000 		.4byte	.LVL194
 4845 13fe F11D0000 		.4byte	0x1df1
 4846 1402 21       		.uleb128 0x21
 4847 1403 01       		.uleb128 0x1
 4848 1404 52       		.byte	0x52
 4849 1405 02       		.uleb128 0x2
 4850 1406 08       		.byte	0x8
 4851 1407 AA       		.byte	0xaa
 4852 1408 21       		.uleb128 0x21
 4853 1409 01       		.uleb128 0x1
 4854 140a 51       		.byte	0x51
 4855 140b 01       		.uleb128 0x1
 4856 140c 3A       		.byte	0x3a
 4857 140d 21       		.uleb128 0x21
ARM GAS  C:\Users\student\AppData\Local\Temp\cc7xlRSM.s 			page 100


 4858 140e 01       		.uleb128 0x1
 4859 140f 50       		.byte	0x50
 4860 1410 05       		.uleb128 0x5
 4861 1411 03       		.byte	0x3
 4862 1412 C8010000 		.4byte	.LC27
 4863 1416 00       		.byte	0
 4864 1417 00       		.byte	0
 4865 1418 22       		.uleb128 0x22
 4866 1419 08000000 		.4byte	.LVL152
 4867 141d 271F0000 		.4byte	0x1f27
 4868 1421 20       		.uleb128 0x20
 4869 1422 10000000 		.4byte	.LVL153
 4870 1426 161F0000 		.4byte	0x1f16
 4871 142a 36140000 		.4byte	0x1436
 4872 142e 21       		.uleb128 0x21
 4873 142f 01       		.uleb128 0x1
 4874 1430 50       		.byte	0x50
 4875 1431 03       		.uleb128 0x3
 4876 1432 0A       		.byte	0xa
 4877 1433 D007     		.2byte	0x7d0
 4878 1435 00       		.byte	0
 4879 1436 20       		.uleb128 0x20
 4880 1437 1A000000 		.4byte	.LVL154
 4881 143b 2F1F0000 		.4byte	0x1f2f
 4882 143f 54140000 		.4byte	0x1454
 4883 1443 21       		.uleb128 0x21
 4884 1444 01       		.uleb128 0x1
 4885 1445 52       		.byte	0x52
 4886 1446 01       		.uleb128 0x1
 4887 1447 39       		.byte	0x39
 4888 1448 21       		.uleb128 0x21
 4889 1449 01       		.uleb128 0x1
 4890 144a 51       		.byte	0x51
 4891 144b 02       		.uleb128 0x2
 4892 144c 91       		.byte	0x91
 4893 144d 64       		.sleb128 -28
 4894 144e 21       		.uleb128 0x21
 4895 144f 01       		.uleb128 0x1
 4896 1450 50       		.byte	0x50
 4897 1451 01       		.uleb128 0x1
 4898 1452 30       		.byte	0x30
 4899 1453 00       		.byte	0
 4900 1454 20       		.uleb128 0x20
 4901 1455 2C000000 		.4byte	.LVL155
 4902 1459 F11D0000 		.4byte	0x1df1
 4903 145d 75140000 		.4byte	0x1475
 4904 1461 21       		.uleb128 0x21
 4905 1462 01       		.uleb128 0x1
 4906 1463 52       		.byte	0x52
 4907 1464 01       		.uleb128 0x1
 4908 1465 3A       		.byte	0x3a
 4909 1466 21       		.uleb128 0x21
 4910 1467 01       		.uleb128 0x1
 4911 1468 51       		.byte	0x51
 4912 1469 01       		.uleb128 0x1
 4913 146a 3A       		.byte	0x3a
 4914 146b 21       		.uleb128 0x21
ARM GAS  C:\Users\student\AppData\Local\Temp\cc7xlRSM.s 			page 101


 4915 146c 01       		.uleb128 0x1
 4916 146d 50       		.byte	0x50
 4917 146e 05       		.uleb128 0x5
 4918 146f 03       		.byte	0x3
 4919 1470 F8000000 		.4byte	.LC13
 4920 1474 00       		.byte	0
 4921 1475 20       		.uleb128 0x20
 4922 1476 36000000 		.4byte	.LVL156
 4923 147a F11D0000 		.4byte	0x1df1
 4924 147e 93140000 		.4byte	0x1493
 4925 1482 21       		.uleb128 0x21
 4926 1483 01       		.uleb128 0x1
 4927 1484 52       		.byte	0x52
 4928 1485 01       		.uleb128 0x1
 4929 1486 4E       		.byte	0x4e
 4930 1487 21       		.uleb128 0x21
 4931 1488 01       		.uleb128 0x1
 4932 1489 51       		.byte	0x51
 4933 148a 01       		.uleb128 0x1
 4934 148b 3A       		.byte	0x3a
 4935 148c 21       		.uleb128 0x21
 4936 148d 01       		.uleb128 0x1
 4937 148e 50       		.byte	0x50
 4938 148f 02       		.uleb128 0x2
 4939 1490 91       		.byte	0x91
 4940 1491 64       		.sleb128 -28
 4941 1492 00       		.byte	0
 4942 1493 20       		.uleb128 0x20
 4943 1494 42000000 		.4byte	.LVL157
 4944 1498 F11D0000 		.4byte	0x1df1
 4945 149c B4140000 		.4byte	0x14b4
 4946 14a0 21       		.uleb128 0x21
 4947 14a1 01       		.uleb128 0x1
 4948 14a2 52       		.byte	0x52
 4949 14a3 01       		.uleb128 0x1
 4950 14a4 3A       		.byte	0x3a
 4951 14a5 21       		.uleb128 0x21
 4952 14a6 01       		.uleb128 0x1
 4953 14a7 51       		.byte	0x51
 4954 14a8 01       		.uleb128 0x1
 4955 14a9 3A       		.byte	0x3a
 4956 14aa 21       		.uleb128 0x21
 4957 14ab 01       		.uleb128 0x1
 4958 14ac 50       		.byte	0x50
 4959 14ad 05       		.uleb128 0x5
 4960 14ae 03       		.byte	0x3
 4961 14af 08010000 		.4byte	.LC14
 4962 14b3 00       		.byte	0
 4963 14b4 20       		.uleb128 0x20
 4964 14b5 48000000 		.4byte	.LVL158
 4965 14b9 4F1F0000 		.4byte	0x1f4f
 4966 14bd CB140000 		.4byte	0x14cb
 4967 14c1 21       		.uleb128 0x21
 4968 14c2 01       		.uleb128 0x1
 4969 14c3 50       		.byte	0x50
 4970 14c4 05       		.uleb128 0x5
 4971 14c5 03       		.byte	0x3
ARM GAS  C:\Users\student\AppData\Local\Temp\cc7xlRSM.s 			page 102


 4972 14c6 24010000 		.4byte	.LC15
 4973 14ca 00       		.byte	0
 4974 14cb 20       		.uleb128 0x20
 4975 14cc 54000000 		.4byte	.LVL159
 4976 14d0 F11D0000 		.4byte	0x1df1
 4977 14d4 ED140000 		.4byte	0x14ed
 4978 14d8 21       		.uleb128 0x21
 4979 14d9 01       		.uleb128 0x1
 4980 14da 52       		.byte	0x52
 4981 14db 02       		.uleb128 0x2
 4982 14dc 08       		.byte	0x8
 4983 14dd 32       		.byte	0x32
 4984 14de 21       		.uleb128 0x21
 4985 14df 01       		.uleb128 0x1
 4986 14e0 51       		.byte	0x51
 4987 14e1 01       		.uleb128 0x1
 4988 14e2 3A       		.byte	0x3a
 4989 14e3 21       		.uleb128 0x21
 4990 14e4 01       		.uleb128 0x1
 4991 14e5 50       		.byte	0x50
 4992 14e6 05       		.uleb128 0x5
 4993 14e7 03       		.byte	0x3
 4994 14e8 28010000 		.4byte	.LC16
 4995 14ec 00       		.byte	0
 4996 14ed 20       		.uleb128 0x20
 4997 14ee 60000000 		.4byte	.LVL160
 4998 14f2 F11D0000 		.4byte	0x1df1
 4999 14f6 0F150000 		.4byte	0x150f
 5000 14fa 21       		.uleb128 0x21
 5001 14fb 01       		.uleb128 0x1
 5002 14fc 52       		.byte	0x52
 5003 14fd 02       		.uleb128 0x2
 5004 14fe 08       		.byte	0x8
 5005 14ff 32       		.byte	0x32
 5006 1500 21       		.uleb128 0x21
 5007 1501 01       		.uleb128 0x1
 5008 1502 51       		.byte	0x51
 5009 1503 01       		.uleb128 0x1
 5010 1504 3A       		.byte	0x3a
 5011 1505 21       		.uleb128 0x21
 5012 1506 01       		.uleb128 0x1
 5013 1507 50       		.byte	0x50
 5014 1508 05       		.uleb128 0x5
 5015 1509 03       		.byte	0x3
 5016 150a 3C010000 		.4byte	.LC17
 5017 150e 00       		.byte	0
 5018 150f 20       		.uleb128 0x20
 5019 1510 6C000000 		.4byte	.LVL161
 5020 1514 651F0000 		.4byte	0x1f65
 5021 1518 3B150000 		.4byte	0x153b
 5022 151c 21       		.uleb128 0x21
 5023 151d 01       		.uleb128 0x1
 5024 151e 53       		.byte	0x53
 5025 151f 01       		.uleb128 0x1
 5026 1520 40       		.byte	0x40
 5027 1521 21       		.uleb128 0x21
 5028 1522 01       		.uleb128 0x1
ARM GAS  C:\Users\student\AppData\Local\Temp\cc7xlRSM.s 			page 103


 5029 1523 52       		.byte	0x52
 5030 1524 05       		.uleb128 0x5
 5031 1525 03       		.byte	0x3
 5032 1526 08000000 		.4byte	.LANCHOR0+8
 5033 152a 21       		.uleb128 0x21
 5034 152b 01       		.uleb128 0x1
 5035 152c 51       		.byte	0x51
 5036 152d 05       		.uleb128 0x5
 5037 152e 03       		.byte	0x3
 5038 152f 4C010000 		.4byte	.LC18
 5039 1533 21       		.uleb128 0x21
 5040 1534 01       		.uleb128 0x1
 5041 1535 50       		.byte	0x50
 5042 1536 03       		.uleb128 0x3
 5043 1537 91       		.byte	0x91
 5044 1538 A87F     		.sleb128 -88
 5045 153a 00       		.byte	0
 5046 153b 20       		.uleb128 0x20
 5047 153c AC000000 		.4byte	.LVL166
 5048 1540 901F0000 		.4byte	0x1f90
 5049 1544 50150000 		.4byte	0x1550
 5050 1548 21       		.uleb128 0x21
 5051 1549 01       		.uleb128 0x1
 5052 154a 50       		.byte	0x50
 5053 154b 03       		.uleb128 0x3
 5054 154c 91       		.byte	0x91
 5055 154d A87F     		.sleb128 -88
 5056 154f 00       		.byte	0
 5057 1550 20       		.uleb128 0x20
 5058 1551 B8000000 		.4byte	.LVL167
 5059 1555 F11D0000 		.4byte	0x1df1
 5060 1559 72150000 		.4byte	0x1572
 5061 155d 21       		.uleb128 0x21
 5062 155e 01       		.uleb128 0x1
 5063 155f 52       		.byte	0x52
 5064 1560 02       		.uleb128 0x2
 5065 1561 08       		.byte	0x8
 5066 1562 46       		.byte	0x46
 5067 1563 21       		.uleb128 0x21
 5068 1564 01       		.uleb128 0x1
 5069 1565 51       		.byte	0x51
 5070 1566 01       		.uleb128 0x1
 5071 1567 3A       		.byte	0x3a
 5072 1568 21       		.uleb128 0x21
 5073 1569 01       		.uleb128 0x1
 5074 156a 50       		.byte	0x50
 5075 156b 05       		.uleb128 0x5
 5076 156c 03       		.byte	0x3
 5077 156d 70010000 		.4byte	.LC22
 5078 1571 00       		.byte	0
 5079 1572 20       		.uleb128 0x20
 5080 1573 C0000000 		.4byte	.LVL168
 5081 1577 A21F0000 		.4byte	0x1fa2
 5082 157b 92150000 		.4byte	0x1592
 5083 157f 21       		.uleb128 0x21
 5084 1580 01       		.uleb128 0x1
 5085 1581 51       		.byte	0x51
ARM GAS  C:\Users\student\AppData\Local\Temp\cc7xlRSM.s 			page 104


 5086 1582 05       		.uleb128 0x5
 5087 1583 03       		.byte	0x3
 5088 1584 80010000 		.4byte	.LC23
 5089 1588 21       		.uleb128 0x21
 5090 1589 01       		.uleb128 0x1
 5091 158a 50       		.byte	0x50
 5092 158b 05       		.uleb128 0x5
 5093 158c 03       		.byte	0x3
 5094 158d 08000000 		.4byte	.LANCHOR0+8
 5095 1591 00       		.byte	0
 5096 1592 20       		.uleb128 0x20
 5097 1593 38010000 		.4byte	.LVL177
 5098 1597 F11D0000 		.4byte	0x1df1
 5099 159b B4150000 		.4byte	0x15b4
 5100 159f 21       		.uleb128 0x21
 5101 15a0 01       		.uleb128 0x1
 5102 15a1 52       		.byte	0x52
 5103 15a2 02       		.uleb128 0x2
 5104 15a3 08       		.byte	0x8
 5105 15a4 82       		.byte	0x82
 5106 15a5 21       		.uleb128 0x21
 5107 15a6 01       		.uleb128 0x1
 5108 15a7 51       		.byte	0x51
 5109 15a8 01       		.uleb128 0x1
 5110 15a9 3A       		.byte	0x3a
 5111 15aa 21       		.uleb128 0x21
 5112 15ab 01       		.uleb128 0x1
 5113 15ac 50       		.byte	0x50
 5114 15ad 05       		.uleb128 0x5
 5115 15ae 03       		.byte	0x3
 5116 15af DC010000 		.4byte	.LC28
 5117 15b3 00       		.byte	0
 5118 15b4 20       		.uleb128 0x20
 5119 15b5 40010000 		.4byte	.LVL178
 5120 15b9 161F0000 		.4byte	0x1f16
 5121 15bd C9150000 		.4byte	0x15c9
 5122 15c1 21       		.uleb128 0x21
 5123 15c2 01       		.uleb128 0x1
 5124 15c3 50       		.byte	0x50
 5125 15c4 03       		.uleb128 0x3
 5126 15c5 0A       		.byte	0xa
 5127 15c6 E803     		.2byte	0x3e8
 5128 15c8 00       		.byte	0
 5129 15c9 20       		.uleb128 0x20
 5130 15ca 4C010000 		.4byte	.LVL179
 5131 15ce 651F0000 		.4byte	0x1f65
 5132 15d2 F5150000 		.4byte	0x15f5
 5133 15d6 21       		.uleb128 0x21
 5134 15d7 01       		.uleb128 0x1
 5135 15d8 53       		.byte	0x53
 5136 15d9 01       		.uleb128 0x1
 5137 15da 40       		.byte	0x40
 5138 15db 21       		.uleb128 0x21
 5139 15dc 01       		.uleb128 0x1
 5140 15dd 52       		.byte	0x52
 5141 15de 05       		.uleb128 0x5
 5142 15df 03       		.byte	0x3
ARM GAS  C:\Users\student\AppData\Local\Temp\cc7xlRSM.s 			page 105


 5143 15e0 20000000 		.4byte	.LANCHOR0+32
 5144 15e4 21       		.uleb128 0x21
 5145 15e5 01       		.uleb128 0x1
 5146 15e6 51       		.byte	0x51
 5147 15e7 05       		.uleb128 0x5
 5148 15e8 03       		.byte	0x3
 5149 15e9 4C010000 		.4byte	.LC18
 5150 15ed 21       		.uleb128 0x21
 5151 15ee 01       		.uleb128 0x1
 5152 15ef 50       		.byte	0x50
 5153 15f0 03       		.uleb128 0x3
 5154 15f1 91       		.byte	0x91
 5155 15f2 A87F     		.sleb128 -88
 5156 15f4 00       		.byte	0
 5157 15f5 20       		.uleb128 0x20
 5158 15f6 8C010000 		.4byte	.LVL184
 5159 15fa 901F0000 		.4byte	0x1f90
 5160 15fe 0A160000 		.4byte	0x160a
 5161 1602 21       		.uleb128 0x21
 5162 1603 01       		.uleb128 0x1
 5163 1604 50       		.byte	0x50
 5164 1605 03       		.uleb128 0x3
 5165 1606 91       		.byte	0x91
 5166 1607 A87F     		.sleb128 -88
 5167 1609 00       		.byte	0
 5168 160a 20       		.uleb128 0x20
 5169 160b 98010000 		.4byte	.LVL185
 5170 160f F11D0000 		.4byte	0x1df1
 5171 1613 2C160000 		.4byte	0x162c
 5172 1617 21       		.uleb128 0x21
 5173 1618 01       		.uleb128 0x1
 5174 1619 52       		.byte	0x52
 5175 161a 02       		.uleb128 0x2
 5176 161b 08       		.byte	0x8
 5177 161c 46       		.byte	0x46
 5178 161d 21       		.uleb128 0x21
 5179 161e 01       		.uleb128 0x1
 5180 161f 51       		.byte	0x51
 5181 1620 01       		.uleb128 0x1
 5182 1621 3A       		.byte	0x3a
 5183 1622 21       		.uleb128 0x21
 5184 1623 01       		.uleb128 0x1
 5185 1624 50       		.byte	0x50
 5186 1625 05       		.uleb128 0x5
 5187 1626 03       		.byte	0x3
 5188 1627 70010000 		.4byte	.LC22
 5189 162b 00       		.byte	0
 5190 162c 20       		.uleb128 0x20
 5191 162d A0010000 		.4byte	.LVL186
 5192 1631 A21F0000 		.4byte	0x1fa2
 5193 1635 4C160000 		.4byte	0x164c
 5194 1639 21       		.uleb128 0x21
 5195 163a 01       		.uleb128 0x1
 5196 163b 51       		.byte	0x51
 5197 163c 05       		.uleb128 0x5
 5198 163d 03       		.byte	0x3
 5199 163e 80010000 		.4byte	.LC23
ARM GAS  C:\Users\student\AppData\Local\Temp\cc7xlRSM.s 			page 106


 5200 1642 21       		.uleb128 0x21
 5201 1643 01       		.uleb128 0x1
 5202 1644 50       		.byte	0x50
 5203 1645 05       		.uleb128 0x5
 5204 1646 03       		.byte	0x3
 5205 1647 20000000 		.4byte	.LANCHOR0+32
 5206 164b 00       		.byte	0
 5207 164c 2F       		.uleb128 0x2f
 5208 164d 18020000 		.4byte	.LVL195
 5209 1651 F11D0000 		.4byte	0x1df1
 5210 1655 21       		.uleb128 0x21
 5211 1656 01       		.uleb128 0x1
 5212 1657 52       		.byte	0x52
 5213 1658 02       		.uleb128 0x2
 5214 1659 08       		.byte	0x8
 5215 165a 82       		.byte	0x82
 5216 165b 21       		.uleb128 0x21
 5217 165c 01       		.uleb128 0x1
 5218 165d 51       		.byte	0x51
 5219 165e 01       		.uleb128 0x1
 5220 165f 3A       		.byte	0x3a
 5221 1660 21       		.uleb128 0x21
 5222 1661 01       		.uleb128 0x1
 5223 1662 50       		.byte	0x50
 5224 1663 05       		.uleb128 0x5
 5225 1664 03       		.byte	0x3
 5226 1665 DC010000 		.4byte	.LC28
 5227 1669 00       		.byte	0
 5228 166a 00       		.byte	0
 5229 166b 09       		.uleb128 0x9
 5230 166c 01010000 		.4byte	0x101
 5231 1670 7B160000 		.4byte	0x167b
 5232 1674 0A       		.uleb128 0xa
 5233 1675 3B010000 		.4byte	0x13b
 5234 1679 09       		.byte	0x9
 5235 167a 00       		.byte	0
 5236 167b 09       		.uleb128 0x9
 5237 167c 01010000 		.4byte	0x101
 5238 1680 8B160000 		.4byte	0x168b
 5239 1684 0A       		.uleb128 0xa
 5240 1685 3B010000 		.4byte	0x13b
 5241 1689 FF       		.byte	0xff
 5242 168a 00       		.byte	0
 5243 168b 34       		.uleb128 0x34
 5244 168c 30040000 		.4byte	.LASF158
 5245 1690 01       		.byte	0x1
 5246 1691 5701     		.2byte	0x157
 5247 1693 00000000 		.4byte	.LFB69
 5248 1697 B4000000 		.4byte	.LFE69-.LFB69
 5249 169b 01       		.uleb128 0x1
 5250 169c 9C       		.byte	0x9c
 5251 169d 1B170000 		.4byte	0x171b
 5252 16a1 1F       		.uleb128 0x1f
 5253 16a2 D8070000 		.4byte	.LASF159
 5254 16a6 01       		.byte	0x1
 5255 16a7 5801     		.2byte	0x158
 5256 16a9 45000000 		.4byte	0x45
ARM GAS  C:\Users\student\AppData\Local\Temp\cc7xlRSM.s 			page 107


 5257 16ad A4040000 		.4byte	.LLST32
 5258 16b1 1F       		.uleb128 0x1f
 5259 16b2 E6070000 		.4byte	.LASF160
 5260 16b6 01       		.byte	0x1
 5261 16b7 5901     		.2byte	0x159
 5262 16b9 45000000 		.4byte	0x45
 5263 16bd C2040000 		.4byte	.LLST33
 5264 16c1 1F       		.uleb128 0x1f
 5265 16c2 02010000 		.4byte	.LASF161
 5266 16c6 01       		.byte	0x1
 5267 16c7 5C01     		.2byte	0x15c
 5268 16c9 25000000 		.4byte	0x25
 5269 16cd E0040000 		.4byte	.LLST34
 5270 16d1 1F       		.uleb128 0x1f
 5271 16d2 1A090000 		.4byte	.LASF162
 5272 16d6 01       		.byte	0x1
 5273 16d7 5D01     		.2byte	0x15d
 5274 16d9 25000000 		.4byte	0x25
 5275 16dd FE040000 		.4byte	.LLST35
 5276 16e1 1F       		.uleb128 0x1f
 5277 16e2 29090000 		.4byte	.LASF163
 5278 16e6 01       		.byte	0x1
 5279 16e7 5E01     		.2byte	0x15e
 5280 16e9 25000000 		.4byte	0x25
 5281 16ed 1C050000 		.4byte	.LLST36
 5282 16f1 1F       		.uleb128 0x1f
 5283 16f2 64020000 		.4byte	.LASF164
 5284 16f6 01       		.byte	0x1
 5285 16f7 6201     		.2byte	0x162
 5286 16f9 90000000 		.4byte	0x90
 5287 16fd 3A050000 		.4byte	.LLST37
 5288 1701 1F       		.uleb128 0x1f
 5289 1702 4A020000 		.4byte	.LASF133
 5290 1706 01       		.byte	0x1
 5291 1707 6701     		.2byte	0x167
 5292 1709 D6000000 		.4byte	0xd6
 5293 170d 5C050000 		.4byte	.LLST38
 5294 1711 22       		.uleb128 0x22
 5295 1712 96000000 		.4byte	.LVL222
 5296 1716 BD1F0000 		.4byte	0x1fbd
 5297 171a 00       		.byte	0
 5298 171b 1E       		.uleb128 0x1e
 5299 171c 3A040000 		.4byte	.LASF165
 5300 1720 01       		.byte	0x1
 5301 1721 6E01     		.2byte	0x16e
 5302 1723 00000000 		.4byte	.LFB70
 5303 1727 44000000 		.4byte	.LFE70-.LFB70
 5304 172b 01       		.uleb128 0x1
 5305 172c 9C       		.byte	0x9c
 5306 172d 62170000 		.4byte	0x1762
 5307 1731 33       		.uleb128 0x33
 5308 1732 14000000 		.4byte	.LBB6
 5309 1736 1C000000 		.4byte	.LBE6-.LBB6
 5310 173a 4F170000 		.4byte	0x174f
 5311 173e 1F       		.uleb128 0x1f
 5312 173f FF0C0000 		.4byte	.LASF166
 5313 1743 01       		.byte	0x1
ARM GAS  C:\Users\student\AppData\Local\Temp\cc7xlRSM.s 			page 108


 5314 1744 7401     		.2byte	0x174
 5315 1746 250B0000 		.4byte	0xb25
 5316 174a 6F050000 		.4byte	.LLST39
 5317 174e 00       		.byte	0
 5318 174f 22       		.uleb128 0x22
 5319 1750 34000000 		.4byte	.LVL227
 5320 1754 8B160000 		.4byte	0x168b
 5321 1758 22       		.uleb128 0x22
 5322 1759 38000000 		.4byte	.LVL228
 5323 175d CE1F0000 		.4byte	0x1fce
 5324 1761 00       		.byte	0
 5325 1762 1E       		.uleb128 0x1e
 5326 1763 4F040000 		.4byte	.LASF167
 5327 1767 01       		.byte	0x1
 5328 1768 AD01     		.2byte	0x1ad
 5329 176a 00000000 		.4byte	.LFB73
 5330 176e 20000000 		.4byte	.LFE73-.LFB73
 5331 1772 01       		.uleb128 0x1
 5332 1773 9C       		.byte	0x9c
 5333 1774 E3170000 		.4byte	0x17e3
 5334 1778 35       		.uleb128 0x35
 5335 1779 72656700 		.ascii	"reg\000"
 5336 177d 01       		.byte	0x1
 5337 177e AD01     		.2byte	0x1ad
 5338 1780 9E000000 		.4byte	0x9e
 5339 1784 82050000 		.4byte	.LLST40
 5340 1788 36       		.uleb128 0x36
 5341 1789 920A0000 		.4byte	.LASF168
 5342 178d 01       		.byte	0x1
 5343 178e AD01     		.2byte	0x1ad
 5344 1790 9E000000 		.4byte	0x9e
 5345 1794 A3050000 		.4byte	.LLST41
 5346 1798 20       		.uleb128 0x20
 5347 1799 0E000000 		.4byte	.LVL232
 5348 179d D91F0000 		.4byte	0x1fd9
 5349 17a1 B1170000 		.4byte	0x17b1
 5350 17a5 21       		.uleb128 0x21
 5351 17a6 01       		.uleb128 0x1
 5352 17a7 51       		.byte	0x51
 5353 17a8 01       		.uleb128 0x1
 5354 17a9 30       		.byte	0x30
 5355 17aa 21       		.uleb128 0x21
 5356 17ab 01       		.uleb128 0x1
 5357 17ac 50       		.byte	0x50
 5358 17ad 02       		.uleb128 0x2
 5359 17ae 08       		.byte	0x8
 5360 17af 68       		.byte	0x68
 5361 17b0 00       		.byte	0
 5362 17b1 20       		.uleb128 0x20
 5363 17b2 14000000 		.4byte	.LVL233
 5364 17b6 F31F0000 		.4byte	0x1ff3
 5365 17ba C5170000 		.4byte	0x17c5
 5366 17be 21       		.uleb128 0x21
 5367 17bf 01       		.uleb128 0x1
 5368 17c0 50       		.byte	0x50
 5369 17c1 02       		.uleb128 0x2
 5370 17c2 75       		.byte	0x75
ARM GAS  C:\Users\student\AppData\Local\Temp\cc7xlRSM.s 			page 109


 5371 17c3 00       		.sleb128 0
 5372 17c4 00       		.byte	0
 5373 17c5 20       		.uleb128 0x20
 5374 17c6 1A000000 		.4byte	.LVL234
 5375 17ca F31F0000 		.4byte	0x1ff3
 5376 17ce D9170000 		.4byte	0x17d9
 5377 17d2 21       		.uleb128 0x21
 5378 17d3 01       		.uleb128 0x1
 5379 17d4 50       		.byte	0x50
 5380 17d5 02       		.uleb128 0x2
 5381 17d6 74       		.byte	0x74
 5382 17d7 00       		.sleb128 0
 5383 17d8 00       		.byte	0
 5384 17d9 22       		.uleb128 0x22
 5385 17da 1E000000 		.4byte	.LVL235
 5386 17de 08200000 		.4byte	0x2008
 5387 17e2 00       		.byte	0
 5388 17e3 37       		.uleb128 0x37
 5389 17e4 12020000 		.4byte	.LASF169
 5390 17e8 01       		.byte	0x1
 5391 17e9 BD01     		.2byte	0x1bd
 5392 17eb 90000000 		.4byte	0x90
 5393 17ef 00000000 		.4byte	.LFB74
 5394 17f3 E0010000 		.4byte	.LFE74-.LFB74
 5395 17f7 01       		.uleb128 0x1
 5396 17f8 9C       		.byte	0x9c
 5397 17f9 151B0000 		.4byte	0x1b15
 5398 17fd 38       		.uleb128 0x38
 5399 17fe 23030000 		.4byte	.LASF126
 5400 1802 01       		.byte	0x1
 5401 1803 D201     		.2byte	0x1d2
 5402 1805 A9000000 		.4byte	0xa9
 5403 1809 1F       		.uleb128 0x1f
 5404 180a 7D090000 		.4byte	.LASF170
 5405 180e 01       		.byte	0x1
 5406 180f E501     		.2byte	0x1e5
 5407 1811 90000000 		.4byte	0x90
 5408 1815 C4050000 		.4byte	.LLST42
 5409 1819 33       		.uleb128 0x33
 5410 181a FE000000 		.4byte	.LBB7
 5411 181e E2000000 		.4byte	.LBE7-.LBB7
 5412 1822 FC180000 		.4byte	0x18fc
 5413 1826 1F       		.uleb128 0x1f
 5414 1827 82050000 		.4byte	.LASF171
 5415 182b 01       		.byte	0x1
 5416 182c EB01     		.2byte	0x1eb
 5417 182e 20010000 		.4byte	0x120
 5418 1832 FA050000 		.4byte	.LLST43
 5419 1836 1F       		.uleb128 0x1f
 5420 1837 8D050000 		.4byte	.LASF172
 5421 183b 01       		.byte	0x1
 5422 183c EC01     		.2byte	0x1ec
 5423 183e 20010000 		.4byte	0x120
 5424 1842 30060000 		.4byte	.LLST44
 5425 1846 20       		.uleb128 0x20
 5426 1847 14010000 		.4byte	.LVL271
 5427 184b C31E0000 		.4byte	0x1ec3
ARM GAS  C:\Users\student\AppData\Local\Temp\cc7xlRSM.s 			page 110


 5428 184f 5B180000 		.4byte	0x185b
 5429 1853 21       		.uleb128 0x21
 5430 1854 01       		.uleb128 0x1
 5431 1855 52       		.byte	0x52
 5432 1856 03       		.uleb128 0x3
 5433 1857 0A       		.byte	0xa
 5434 1858 F82F     		.2byte	0x2ff8
 5435 185a 00       		.byte	0
 5436 185b 20       		.uleb128 0x20
 5437 185c 30010000 		.4byte	.LVL275
 5438 1860 C31E0000 		.4byte	0x1ec3
 5439 1864 70180000 		.4byte	0x1870
 5440 1868 21       		.uleb128 0x21
 5441 1869 01       		.uleb128 0x1
 5442 186a 52       		.byte	0x52
 5443 186b 03       		.uleb128 0x3
 5444 186c 0A       		.byte	0xa
 5445 186d F82F     		.2byte	0x2ff8
 5446 186f 00       		.byte	0
 5447 1870 20       		.uleb128 0x20
 5448 1871 64010000 		.4byte	.LVL280
 5449 1875 C41D0000 		.4byte	0x1dc4
 5450 1879 87180000 		.4byte	0x1887
 5451 187d 21       		.uleb128 0x21
 5452 187e 01       		.uleb128 0x1
 5453 187f 50       		.byte	0x50
 5454 1880 05       		.uleb128 0x5
 5455 1881 0C       		.byte	0xc
 5456 1882 8080FF00 		.4byte	0xff8080
 5457 1886 00       		.byte	0
 5458 1887 20       		.uleb128 0x20
 5459 1888 70010000 		.4byte	.LVL281
 5460 188c F11D0000 		.4byte	0x1df1
 5461 1890 AB180000 		.4byte	0x18ab
 5462 1894 21       		.uleb128 0x21
 5463 1895 01       		.uleb128 0x1
 5464 1896 52       		.byte	0x52
 5465 1897 03       		.uleb128 0x3
 5466 1898 0A       		.byte	0xa
 5467 1899 2C01     		.2byte	0x12c
 5468 189b 21       		.uleb128 0x21
 5469 189c 01       		.uleb128 0x1
 5470 189d 51       		.byte	0x51
 5471 189e 02       		.uleb128 0x2
 5472 189f 08       		.byte	0x8
 5473 18a0 32       		.byte	0x32
 5474 18a1 21       		.uleb128 0x21
 5475 18a2 01       		.uleb128 0x1
 5476 18a3 50       		.byte	0x50
 5477 18a4 05       		.uleb128 0x5
 5478 18a5 03       		.byte	0x3
 5479 18a6 04020000 		.4byte	.LC31
 5480 18aa 00       		.byte	0
 5481 18ab 22       		.uleb128 0x22
 5482 18ac 78010000 		.4byte	.LVL282
 5483 18b0 13200000 		.4byte	0x2013
 5484 18b4 20       		.uleb128 0x20
ARM GAS  C:\Users\student\AppData\Local\Temp\cc7xlRSM.s 			page 111


 5485 18b5 7E010000 		.4byte	.LVL283
 5486 18b9 29200000 		.4byte	0x2029
 5487 18bd CB180000 		.4byte	0x18cb
 5488 18c1 21       		.uleb128 0x21
 5489 18c2 01       		.uleb128 0x1
 5490 18c3 50       		.byte	0x50
 5491 18c4 05       		.uleb128 0x5
 5492 18c5 03       		.byte	0x3
 5493 18c6 24010000 		.4byte	.LC15
 5494 18ca 00       		.byte	0
 5495 18cb 20       		.uleb128 0x20
 5496 18cc 94010000 		.4byte	.LVL285
 5497 18d0 F5090000 		.4byte	0x9f5
 5498 18d4 E5180000 		.4byte	0x18e5
 5499 18d8 21       		.uleb128 0x21
 5500 18d9 01       		.uleb128 0x1
 5501 18da 52       		.byte	0x52
 5502 18db 01       		.uleb128 0x1
 5503 18dc 30       		.byte	0x30
 5504 18dd 21       		.uleb128 0x21
 5505 18de 01       		.uleb128 0x1
 5506 18df 51       		.byte	0x51
 5507 18e0 03       		.uleb128 0x3
 5508 18e1 0A       		.byte	0xa
 5509 18e2 FC17     		.2byte	0x17fc
 5510 18e4 00       		.byte	0
 5511 18e5 2F       		.uleb128 0x2f
 5512 18e6 A0010000 		.4byte	.LVL286
 5513 18ea F5090000 		.4byte	0x9f5
 5514 18ee 21       		.uleb128 0x21
 5515 18ef 01       		.uleb128 0x1
 5516 18f0 52       		.byte	0x52
 5517 18f1 01       		.uleb128 0x1
 5518 18f2 31       		.byte	0x31
 5519 18f3 21       		.uleb128 0x21
 5520 18f4 01       		.uleb128 0x1
 5521 18f5 51       		.byte	0x51
 5522 18f6 03       		.uleb128 0x3
 5523 18f7 0A       		.byte	0xa
 5524 18f8 FC17     		.2byte	0x17fc
 5525 18fa 00       		.byte	0
 5526 18fb 00       		.byte	0
 5527 18fc 22       		.uleb128 0x22
 5528 18fd 08000000 		.4byte	.LVL236
 5529 1901 3B200000 		.4byte	0x203b
 5530 1905 22       		.uleb128 0x22
 5531 1906 0C000000 		.4byte	.LVL237
 5532 190a F10B0000 		.4byte	0xbf1
 5533 190e 22       		.uleb128 0x22
 5534 190f 10000000 		.4byte	.LVL238
 5535 1913 EE100000 		.4byte	0x10ee
 5536 1917 22       		.uleb128 0x22
 5537 1918 14000000 		.4byte	.LVL239
 5538 191c 42200000 		.4byte	0x2042
 5539 1920 20       		.uleb128 0x20
 5540 1921 1A000000 		.4byte	.LVL240
 5541 1925 49200000 		.4byte	0x2049
ARM GAS  C:\Users\student\AppData\Local\Temp\cc7xlRSM.s 			page 112


 5542 1929 37190000 		.4byte	0x1937
 5543 192d 21       		.uleb128 0x21
 5544 192e 01       		.uleb128 0x1
 5545 192f 50       		.byte	0x50
 5546 1930 05       		.uleb128 0x5
 5547 1931 03       		.byte	0x3
 5548 1932 00000000 		.4byte	audioTimerISRHandler
 5549 1936 00       		.byte	0
 5550 1937 22       		.uleb128 0x22
 5551 1938 1E000000 		.4byte	.LVL241
 5552 193c A51E0000 		.4byte	0x1ea5
 5553 1940 20       		.uleb128 0x20
 5554 1941 28000000 		.4byte	.LVL242
 5555 1945 F11D0000 		.4byte	0x1df1
 5556 1949 62190000 		.4byte	0x1962
 5557 194d 21       		.uleb128 0x21
 5558 194e 01       		.uleb128 0x1
 5559 194f 52       		.byte	0x52
 5560 1950 01       		.uleb128 0x1
 5561 1951 3A       		.byte	0x3a
 5562 1952 21       		.uleb128 0x21
 5563 1953 01       		.uleb128 0x1
 5564 1954 51       		.byte	0x51
 5565 1955 02       		.uleb128 0x2
 5566 1956 08       		.byte	0x8
 5567 1957 64       		.byte	0x64
 5568 1958 21       		.uleb128 0x21
 5569 1959 01       		.uleb128 0x1
 5570 195a 50       		.byte	0x50
 5571 195b 05       		.uleb128 0x5
 5572 195c 03       		.byte	0x3
 5573 195d F0010000 		.4byte	.LC29
 5574 1961 00       		.byte	0
 5575 1962 20       		.uleb128 0x20
 5576 1963 32000000 		.4byte	.LVL243
 5577 1967 F11D0000 		.4byte	0x1df1
 5578 196b 84190000 		.4byte	0x1984
 5579 196f 21       		.uleb128 0x21
 5580 1970 01       		.uleb128 0x1
 5581 1971 52       		.byte	0x52
 5582 1972 01       		.uleb128 0x1
 5583 1973 4E       		.byte	0x4e
 5584 1974 21       		.uleb128 0x21
 5585 1975 01       		.uleb128 0x1
 5586 1976 51       		.byte	0x51
 5587 1977 02       		.uleb128 0x2
 5588 1978 08       		.byte	0x8
 5589 1979 50       		.byte	0x50
 5590 197a 21       		.uleb128 0x21
 5591 197b 01       		.uleb128 0x1
 5592 197c 50       		.byte	0x50
 5593 197d 05       		.uleb128 0x5
 5594 197e 03       		.byte	0x3
 5595 197f F8010000 		.4byte	.LC30
 5596 1983 00       		.byte	0
 5597 1984 20       		.uleb128 0x20
 5598 1985 4E000000 		.4byte	.LVL246
ARM GAS  C:\Users\student\AppData\Local\Temp\cc7xlRSM.s 			page 113


 5599 1989 D61D0000 		.4byte	0x1dd6
 5600 198d 9E190000 		.4byte	0x199e
 5601 1991 21       		.uleb128 0x21
 5602 1992 01       		.uleb128 0x1
 5603 1993 51       		.byte	0x51
 5604 1994 02       		.uleb128 0x2
 5605 1995 77       		.byte	0x77
 5606 1996 00       		.sleb128 0
 5607 1997 21       		.uleb128 0x21
 5608 1998 01       		.uleb128 0x1
 5609 1999 50       		.byte	0x50
 5610 199a 02       		.uleb128 0x2
 5611 199b 75       		.byte	0x75
 5612 199c 00       		.sleb128 0
 5613 199d 00       		.byte	0
 5614 199e 20       		.uleb128 0x20
 5615 199f 58000000 		.4byte	.LVL247
 5616 19a3 F11D0000 		.4byte	0x1df1
 5617 19a7 BD190000 		.4byte	0x19bd
 5618 19ab 21       		.uleb128 0x21
 5619 19ac 01       		.uleb128 0x1
 5620 19ad 52       		.byte	0x52
 5621 19ae 02       		.uleb128 0x2
 5622 19af 08       		.byte	0x8
 5623 19b0 32       		.byte	0x32
 5624 19b1 21       		.uleb128 0x21
 5625 19b2 01       		.uleb128 0x1
 5626 19b3 51       		.byte	0x51
 5627 19b4 01       		.uleb128 0x1
 5628 19b5 44       		.byte	0x44
 5629 19b6 21       		.uleb128 0x21
 5630 19b7 01       		.uleb128 0x1
 5631 19b8 50       		.byte	0x50
 5632 19b9 02       		.uleb128 0x2
 5633 19ba 75       		.byte	0x75
 5634 19bb 00       		.sleb128 0
 5635 19bc 00       		.byte	0
 5636 19bd 20       		.uleb128 0x20
 5637 19be 72000000 		.4byte	.LVL250
 5638 19c2 D61D0000 		.4byte	0x1dd6
 5639 19c6 D7190000 		.4byte	0x19d7
 5640 19ca 21       		.uleb128 0x21
 5641 19cb 01       		.uleb128 0x1
 5642 19cc 51       		.byte	0x51
 5643 19cd 02       		.uleb128 0x2
 5644 19ce 77       		.byte	0x77
 5645 19cf 00       		.sleb128 0
 5646 19d0 21       		.uleb128 0x21
 5647 19d1 01       		.uleb128 0x1
 5648 19d2 50       		.byte	0x50
 5649 19d3 02       		.uleb128 0x2
 5650 19d4 76       		.byte	0x76
 5651 19d5 00       		.sleb128 0
 5652 19d6 00       		.byte	0
 5653 19d7 20       		.uleb128 0x20
 5654 19d8 7C000000 		.4byte	.LVL251
 5655 19dc F11D0000 		.4byte	0x1df1
ARM GAS  C:\Users\student\AppData\Local\Temp\cc7xlRSM.s 			page 114


 5656 19e0 F7190000 		.4byte	0x19f7
 5657 19e4 21       		.uleb128 0x21
 5658 19e5 01       		.uleb128 0x1
 5659 19e6 52       		.byte	0x52
 5660 19e7 02       		.uleb128 0x2
 5661 19e8 08       		.byte	0x8
 5662 19e9 32       		.byte	0x32
 5663 19ea 21       		.uleb128 0x21
 5664 19eb 01       		.uleb128 0x1
 5665 19ec 51       		.byte	0x51
 5666 19ed 02       		.uleb128 0x2
 5667 19ee 08       		.byte	0x8
 5668 19ef 78       		.byte	0x78
 5669 19f0 21       		.uleb128 0x21
 5670 19f1 01       		.uleb128 0x1
 5671 19f2 50       		.byte	0x50
 5672 19f3 02       		.uleb128 0x2
 5673 19f4 76       		.byte	0x76
 5674 19f5 00       		.sleb128 0
 5675 19f6 00       		.byte	0
 5676 19f7 20       		.uleb128 0x20
 5677 19f8 88000000 		.4byte	.LVL252
 5678 19fc F5090000 		.4byte	0x9f5
 5679 1a00 111A0000 		.4byte	0x1a11
 5680 1a04 21       		.uleb128 0x21
 5681 1a05 01       		.uleb128 0x1
 5682 1a06 52       		.byte	0x52
 5683 1a07 01       		.uleb128 0x1
 5684 1a08 30       		.byte	0x30
 5685 1a09 21       		.uleb128 0x21
 5686 1a0a 01       		.uleb128 0x1
 5687 1a0b 51       		.byte	0x51
 5688 1a0c 03       		.uleb128 0x3
 5689 1a0d 0A       		.byte	0xa
 5690 1a0e FC17     		.2byte	0x17fc
 5691 1a10 00       		.byte	0
 5692 1a11 20       		.uleb128 0x20
 5693 1a12 94000000 		.4byte	.LVL253
 5694 1a16 F5090000 		.4byte	0x9f5
 5695 1a1a 2B1A0000 		.4byte	0x1a2b
 5696 1a1e 21       		.uleb128 0x21
 5697 1a1f 01       		.uleb128 0x1
 5698 1a20 52       		.byte	0x52
 5699 1a21 01       		.uleb128 0x1
 5700 1a22 31       		.byte	0x31
 5701 1a23 21       		.uleb128 0x21
 5702 1a24 01       		.uleb128 0x1
 5703 1a25 51       		.byte	0x51
 5704 1a26 03       		.uleb128 0x3
 5705 1a27 0A       		.byte	0xa
 5706 1a28 FC17     		.2byte	0x17fc
 5707 1a2a 00       		.byte	0
 5708 1a2b 22       		.uleb128 0x22
 5709 1a2c 9A000000 		.4byte	.LVL255
 5710 1a30 5A200000 		.4byte	0x205a
 5711 1a34 22       		.uleb128 0x22
 5712 1a35 9E000000 		.4byte	.LVL256
ARM GAS  C:\Users\student\AppData\Local\Temp\cc7xlRSM.s 			page 115


 5713 1a39 61200000 		.4byte	0x2061
 5714 1a3d 22       		.uleb128 0x22
 5715 1a3e A2000000 		.4byte	.LVL257
 5716 1a42 68200000 		.4byte	0x2068
 5717 1a46 22       		.uleb128 0x22
 5718 1a47 A6000000 		.4byte	.LVL258
 5719 1a4b 6F200000 		.4byte	0x206f
 5720 1a4f 20       		.uleb128 0x20
 5721 1a50 AC000000 		.4byte	.LVL259
 5722 1a54 76200000 		.4byte	0x2076
 5723 1a58 661A0000 		.4byte	0x1a66
 5724 1a5c 21       		.uleb128 0x21
 5725 1a5d 01       		.uleb128 0x1
 5726 1a5e 50       		.byte	0x50
 5727 1a5f 05       		.uleb128 0x5
 5728 1a60 03       		.byte	0x3
 5729 1a61 00000000 		.4byte	updateSecondsTimer
 5730 1a65 00       		.byte	0
 5731 1a66 22       		.uleb128 0x22
 5732 1a67 B0000000 		.4byte	.LVL260
 5733 1a6b 87200000 		.4byte	0x2087
 5734 1a6f 20       		.uleb128 0x20
 5735 1a70 B8000000 		.4byte	.LVL261
 5736 1a74 D91F0000 		.4byte	0x1fd9
 5737 1a78 881A0000 		.4byte	0x1a88
 5738 1a7c 21       		.uleb128 0x21
 5739 1a7d 01       		.uleb128 0x1
 5740 1a7e 51       		.byte	0x51
 5741 1a7f 01       		.uleb128 0x1
 5742 1a80 30       		.byte	0x30
 5743 1a81 21       		.uleb128 0x21
 5744 1a82 01       		.uleb128 0x1
 5745 1a83 50       		.byte	0x50
 5746 1a84 02       		.uleb128 0x2
 5747 1a85 08       		.byte	0x8
 5748 1a86 68       		.byte	0x68
 5749 1a87 00       		.byte	0
 5750 1a88 20       		.uleb128 0x20
 5751 1a89 BE000000 		.4byte	.LVL262
 5752 1a8d F31F0000 		.4byte	0x1ff3
 5753 1a91 9B1A0000 		.4byte	0x1a9b
 5754 1a95 21       		.uleb128 0x21
 5755 1a96 01       		.uleb128 0x1
 5756 1a97 50       		.byte	0x50
 5757 1a98 01       		.uleb128 0x1
 5758 1a99 4A       		.byte	0x4a
 5759 1a9a 00       		.byte	0
 5760 1a9b 20       		.uleb128 0x20
 5761 1a9c C4000000 		.4byte	.LVL263
 5762 1aa0 F31F0000 		.4byte	0x1ff3
 5763 1aa4 AE1A0000 		.4byte	0x1aae
 5764 1aa8 21       		.uleb128 0x21
 5765 1aa9 01       		.uleb128 0x1
 5766 1aaa 50       		.byte	0x50
 5767 1aab 01       		.uleb128 0x1
 5768 1aac 30       		.byte	0x30
 5769 1aad 00       		.byte	0
ARM GAS  C:\Users\student\AppData\Local\Temp\cc7xlRSM.s 			page 116


 5770 1aae 22       		.uleb128 0x22
 5771 1aaf C8000000 		.4byte	.LVL264
 5772 1ab3 08200000 		.4byte	0x2008
 5773 1ab7 20       		.uleb128 0x20
 5774 1ab8 D0000000 		.4byte	.LVL265
 5775 1abc 62170000 		.4byte	0x1762
 5776 1ac0 D01A0000 		.4byte	0x1ad0
 5777 1ac4 21       		.uleb128 0x21
 5778 1ac5 01       		.uleb128 0x1
 5779 1ac6 51       		.byte	0x51
 5780 1ac7 01       		.uleb128 0x1
 5781 1ac8 30       		.byte	0x30
 5782 1ac9 21       		.uleb128 0x21
 5783 1aca 01       		.uleb128 0x1
 5784 1acb 50       		.byte	0x50
 5785 1acc 02       		.uleb128 0x2
 5786 1acd 08       		.byte	0x8
 5787 1ace 6B       		.byte	0x6b
 5788 1acf 00       		.byte	0
 5789 1ad0 20       		.uleb128 0x20
 5790 1ad1 D8000000 		.4byte	.LVL266
 5791 1ad5 62170000 		.4byte	0x1762
 5792 1ad9 E81A0000 		.4byte	0x1ae8
 5793 1add 21       		.uleb128 0x21
 5794 1ade 01       		.uleb128 0x1
 5795 1adf 51       		.byte	0x51
 5796 1ae0 01       		.uleb128 0x1
 5797 1ae1 30       		.byte	0x30
 5798 1ae2 21       		.uleb128 0x21
 5799 1ae3 01       		.uleb128 0x1
 5800 1ae4 50       		.byte	0x50
 5801 1ae5 01       		.uleb128 0x1
 5802 1ae6 4C       		.byte	0x4c
 5803 1ae7 00       		.byte	0
 5804 1ae8 20       		.uleb128 0x20
 5805 1ae9 E0000000 		.4byte	.LVL267
 5806 1aed 62170000 		.4byte	0x1762
 5807 1af1 011B0000 		.4byte	0x1b01
 5808 1af5 21       		.uleb128 0x21
 5809 1af6 01       		.uleb128 0x1
 5810 1af7 51       		.byte	0x51
 5811 1af8 01       		.uleb128 0x1
 5812 1af9 30       		.byte	0x30
 5813 1afa 21       		.uleb128 0x21
 5814 1afb 01       		.uleb128 0x1
 5815 1afc 50       		.byte	0x50
 5816 1afd 02       		.uleb128 0x2
 5817 1afe 08       		.byte	0x8
 5818 1aff 23       		.byte	0x23
 5819 1b00 00       		.byte	0
 5820 1b01 2F       		.uleb128 0x2f
 5821 1b02 E6000000 		.4byte	.LVL268
 5822 1b06 8E200000 		.4byte	0x208e
 5823 1b0a 21       		.uleb128 0x21
 5824 1b0b 01       		.uleb128 0x1
 5825 1b0c 50       		.byte	0x50
 5826 1b0d 05       		.uleb128 0x5
ARM GAS  C:\Users\student\AppData\Local\Temp\cc7xlRSM.s 			page 117


 5827 1b0e 03       		.byte	0x3
 5828 1b0f 00000000 		.4byte	getADCs
 5829 1b13 00       		.byte	0
 5830 1b14 00       		.byte	0
 5831 1b15 2E       		.uleb128 0x2e
 5832 1b16 9A030000 		.4byte	.LASF173
 5833 1b1a 01       		.byte	0x1
 5834 1b1b 4E       		.byte	0x4e
 5835 1b1c 90000000 		.4byte	0x90
 5836 1b20 05       		.uleb128 0x5
 5837 1b21 03       		.byte	0x3
 5838 1b22 18000000 		.4byte	previousOutput
 5839 1b26 2E       		.uleb128 0x2e
 5840 1b27 AC090000 		.4byte	.LASF174
 5841 1b2b 01       		.byte	0x1
 5842 1b2c 4F       		.byte	0x4f
 5843 1b2d 90000000 		.4byte	0x90
 5844 1b31 05       		.uleb128 0x5
 5845 1b32 03       		.byte	0x3
 5846 1b33 1C000000 		.4byte	previousInput
 5847 1b37 39       		.uleb128 0x39
 5848 1b38 11070000 		.4byte	.LASF175
 5849 1b3c 0A       		.byte	0xa
 5850 1b3d 9606     		.2byte	0x696
 5851 1b3f 431B0000 		.4byte	0x1b43
 5852 1b43 06       		.uleb128 0x6
 5853 1b44 B4000000 		.4byte	0xb4
 5854 1b48 39       		.uleb128 0x39
 5855 1b49 44050000 		.4byte	.LASF176
 5856 1b4d 0B       		.byte	0xb
 5857 1b4e 2108     		.2byte	0x821
 5858 1b50 E9050000 		.4byte	0x5e9
 5859 1b54 3A       		.uleb128 0x3a
 5860 1b55 910C0000 		.4byte	.LASF177
 5861 1b59 01       		.byte	0x1
 5862 1b5a 27       		.byte	0x27
 5863 1b5b 65010000 		.4byte	0x165
 5864 1b5f 05       		.uleb128 0x5
 5865 1b60 03       		.byte	0x3
 5866 1b61 00000000 		.4byte	audioSampleIndex
 5867 1b65 09       		.uleb128 0x9
 5868 1b66 45000000 		.4byte	0x45
 5869 1b6a 761B0000 		.4byte	0x1b76
 5870 1b6e 3B       		.uleb128 0x3b
 5871 1b6f 3B010000 		.4byte	0x13b
 5872 1b73 FB17     		.2byte	0x17fb
 5873 1b75 00       		.byte	0
 5874 1b76 3A       		.uleb128 0x3a
 5875 1b77 3C010000 		.4byte	.LASF178
 5876 1b7b 01       		.byte	0x1
 5877 1b7c 2A       		.byte	0x2a
 5878 1b7d 651B0000 		.4byte	0x1b65
 5879 1b81 05       		.uleb128 0x5
 5880 1b82 03       		.byte	0x3
 5881 1b83 00000000 		.4byte	audioBuffer1
 5882 1b87 3A       		.uleb128 0x3a
 5883 1b88 49010000 		.4byte	.LASF179
ARM GAS  C:\Users\student\AppData\Local\Temp\cc7xlRSM.s 			page 118


 5884 1b8c 01       		.byte	0x1
 5885 1b8d 2B       		.byte	0x2b
 5886 1b8e 651B0000 		.4byte	0x1b65
 5887 1b92 05       		.uleb128 0x5
 5888 1b93 03       		.byte	0x3
 5889 1b94 00000000 		.4byte	audioBuffer2
 5890 1b98 3A       		.uleb128 0x3a
 5891 1b99 56010000 		.4byte	.LASF180
 5892 1b9d 01       		.byte	0x1
 5893 1b9e 2C       		.byte	0x2c
 5894 1b9f 651B0000 		.4byte	0x1b65
 5895 1ba3 05       		.uleb128 0x5
 5896 1ba4 03       		.byte	0x3
 5897 1ba5 00000000 		.4byte	audioBuffer3
 5898 1ba9 3A       		.uleb128 0x3a
 5899 1baa 63010000 		.4byte	.LASF181
 5900 1bae 01       		.byte	0x1
 5901 1baf 2D       		.byte	0x2d
 5902 1bb0 651B0000 		.4byte	0x1b65
 5903 1bb4 05       		.uleb128 0x5
 5904 1bb5 03       		.byte	0x3
 5905 1bb6 00000000 		.4byte	audioBuffer4
 5906 1bba 3A       		.uleb128 0x3a
 5907 1bbb F00C0000 		.4byte	.LASF182
 5908 1bbf 01       		.byte	0x1
 5909 1bc0 2E       		.byte	0x2e
 5910 1bc1 250B0000 		.4byte	0xb25
 5911 1bc5 05       		.uleb128 0x5
 5912 1bc6 03       		.byte	0x3
 5913 1bc7 00000000 		.4byte	currentBuffer1
 5914 1bcb 3A       		.uleb128 0x3a
 5915 1bcc 820C0000 		.4byte	.LASF183
 5916 1bd0 01       		.byte	0x1
 5917 1bd1 2F       		.byte	0x2f
 5918 1bd2 250B0000 		.4byte	0xb25
 5919 1bd6 05       		.uleb128 0x5
 5920 1bd7 03       		.byte	0x3
 5921 1bd8 00000000 		.4byte	loadingBuffer1
 5922 1bdc 3A       		.uleb128 0x3a
 5923 1bdd 190B0000 		.4byte	.LASF184
 5924 1be1 01       		.byte	0x1
 5925 1be2 30       		.byte	0x30
 5926 1be3 250B0000 		.4byte	0xb25
 5927 1be7 05       		.uleb128 0x5
 5928 1be8 03       		.byte	0x3
 5929 1be9 00000000 		.4byte	currentBuffer2
 5930 1bed 3A       		.uleb128 0x3a
 5931 1bee F3000000 		.4byte	.LASF185
 5932 1bf2 01       		.byte	0x1
 5933 1bf3 31       		.byte	0x31
 5934 1bf4 250B0000 		.4byte	0xb25
 5935 1bf8 05       		.uleb128 0x5
 5936 1bf9 03       		.byte	0x3
 5937 1bfa 00000000 		.4byte	loadingBuffer2
 5938 1bfe 09       		.uleb128 0x9
 5939 1bff 01010000 		.4byte	0x101
 5940 1c03 0E1C0000 		.4byte	0x1c0e
ARM GAS  C:\Users\student\AppData\Local\Temp\cc7xlRSM.s 			page 119


 5941 1c07 0A       		.uleb128 0xa
 5942 1c08 3B010000 		.4byte	0x13b
 5943 1c0c 0F       		.byte	0xf
 5944 1c0d 00       		.byte	0
 5945 1c0e 3A       		.uleb128 0x3a
 5946 1c0f E40B0000 		.4byte	.LASF186
 5947 1c13 01       		.byte	0x1
 5948 1c14 35       		.byte	0x35
 5949 1c15 FE1B0000 		.4byte	0x1bfe
 5950 1c19 05       		.uleb128 0x5
 5951 1c1a 03       		.byte	0x3
 5952 1c1b 00000000 		.4byte	file1
 5953 1c1f 09       		.uleb128 0x9
 5954 1c20 01010000 		.4byte	0x101
 5955 1c24 2F1C0000 		.4byte	0x1c2f
 5956 1c28 0A       		.uleb128 0xa
 5957 1c29 3B010000 		.4byte	0x13b
 5958 1c2d 0D       		.byte	0xd
 5959 1c2e 00       		.byte	0
 5960 1c2f 3A       		.uleb128 0x3a
 5961 1c30 EA0B0000 		.4byte	.LASF187
 5962 1c34 01       		.byte	0x1
 5963 1c35 36       		.byte	0x36
 5964 1c36 1F1C0000 		.4byte	0x1c1f
 5965 1c3a 05       		.uleb128 0x5
 5966 1c3b 03       		.byte	0x3
 5967 1c3c 00000000 		.4byte	file2
 5968 1c40 3A       		.uleb128 0x3a
 5969 1c41 7D000000 		.4byte	.LASF188
 5970 1c45 01       		.byte	0x1
 5971 1c46 37       		.byte	0x37
 5972 1c47 08010000 		.4byte	0x108
 5973 1c4b 05       		.uleb128 0x5
 5974 1c4c 03       		.byte	0x3
 5975 1c4d 00000000 		.4byte	overall_size
 5976 1c51 3A       		.uleb128 0x3a
 5977 1c52 C4050000 		.4byte	.LASF189
 5978 1c56 01       		.byte	0x1
 5979 1c57 38       		.byte	0x38
 5980 1c58 08080000 		.4byte	0x808
 5981 1c5c 05       		.uleb128 0x5
 5982 1c5d 03       		.byte	0x3
 5983 1c5e 00000000 		.4byte	audioFile1
 5984 1c62 3A       		.uleb128 0x3a
 5985 1c63 CF050000 		.4byte	.LASF190
 5986 1c67 01       		.byte	0x1
 5987 1c68 39       		.byte	0x39
 5988 1c69 08080000 		.4byte	0x808
 5989 1c6d 05       		.uleb128 0x5
 5990 1c6e 03       		.byte	0x3
 5991 1c6f 00000000 		.4byte	audioFile2
 5992 1c73 3A       		.uleb128 0x3a
 5993 1c74 40090000 		.4byte	.LASF191
 5994 1c78 01       		.byte	0x1
 5995 1c79 3A       		.byte	0x3a
 5996 1c7a 841C0000 		.4byte	0x1c84
 5997 1c7e 05       		.uleb128 0x5
ARM GAS  C:\Users\student\AppData\Local\Temp\cc7xlRSM.s 			page 120


 5998 1c7f 03       		.byte	0x3
 5999 1c80 00000000 		.4byte	currentBufferFill
 6000 1c84 06       		.uleb128 0x6
 6001 1c85 20010000 		.4byte	0x120
 6002 1c89 3A       		.uleb128 0x3a
 6003 1c8a 30060000 		.4byte	.LASF192
 6004 1c8e 01       		.byte	0x1
 6005 1c8f 3B       		.byte	0x3b
 6006 1c90 841C0000 		.4byte	0x1c84
 6007 1c94 05       		.uleb128 0x5
 6008 1c95 03       		.byte	0x3
 6009 1c96 00000000 		.4byte	loadingBufferFill
 6010 1c9a 3A       		.uleb128 0x3a
 6011 1c9b 04020000 		.4byte	.LASF193
 6012 1c9f 01       		.byte	0x1
 6013 1ca0 3C       		.byte	0x3c
 6014 1ca1 AB1C0000 		.4byte	0x1cab
 6015 1ca5 05       		.uleb128 0x5
 6016 1ca6 03       		.byte	0x3
 6017 1ca7 00000000 		.4byte	switchBuffers
 6018 1cab 06       		.uleb128 0x6
 6019 1cac 90000000 		.4byte	0x90
 6020 1cb0 3A       		.uleb128 0x3a
 6021 1cb1 510A0000 		.4byte	.LASF194
 6022 1cb5 01       		.byte	0x1
 6023 1cb6 3D       		.byte	0x3d
 6024 1cb7 AB1C0000 		.4byte	0x1cab
 6025 1cbb 05       		.uleb128 0x5
 6026 1cbc 03       		.byte	0x3
 6027 1cbd 00000000 		.4byte	fileEnd1
 6028 1cc1 3A       		.uleb128 0x3a
 6029 1cc2 5A0A0000 		.4byte	.LASF195
 6030 1cc6 01       		.byte	0x1
 6031 1cc7 3E       		.byte	0x3e
 6032 1cc8 AB1C0000 		.4byte	0x1cab
 6033 1ccc 05       		.uleb128 0x5
 6034 1ccd 03       		.byte	0x3
 6035 1cce 00000000 		.4byte	fileEnd2
 6036 1cd2 3A       		.uleb128 0x3a
 6037 1cd3 B9000000 		.4byte	.LASF196
 6038 1cd7 01       		.byte	0x1
 6039 1cd8 40       		.byte	0x40
 6040 1cd9 E31C0000 		.4byte	0x1ce3
 6041 1cdd 05       		.uleb128 0x5
 6042 1cde 03       		.byte	0x3
 6043 1cdf 00000000 		.4byte	volumeControlCoef1
 6044 1ce3 06       		.uleb128 0x6
 6045 1ce4 25000000 		.4byte	0x25
 6046 1ce8 3A       		.uleb128 0x3a
 6047 1ce9 CC000000 		.4byte	.LASF197
 6048 1ced 01       		.byte	0x1
 6049 1cee 41       		.byte	0x41
 6050 1cef E31C0000 		.4byte	0x1ce3
 6051 1cf3 05       		.uleb128 0x5
 6052 1cf4 03       		.byte	0x3
 6053 1cf5 00000000 		.4byte	volumeControlCoef2
 6054 1cf9 3A       		.uleb128 0x3a
ARM GAS  C:\Users\student\AppData\Local\Temp\cc7xlRSM.s 			page 121


 6055 1cfa 52060000 		.4byte	.LASF198
 6056 1cfe 01       		.byte	0x1
 6057 1cff 42       		.byte	0x42
 6058 1d00 DE100000 		.4byte	0x10de
 6059 1d04 05       		.uleb128 0x5
 6060 1d05 03       		.byte	0x3
 6061 1d06 00000000 		.4byte	volumeControlString1
 6062 1d0a 3A       		.uleb128 0x3a
 6063 1d0b 67060000 		.4byte	.LASF199
 6064 1d0f 01       		.byte	0x1
 6065 1d10 43       		.byte	0x43
 6066 1d11 DE100000 		.4byte	0x10de
 6067 1d15 05       		.uleb128 0x5
 6068 1d16 03       		.byte	0x3
 6069 1d17 00000000 		.4byte	volumeControlString2
 6070 1d1b 3A       		.uleb128 0x3a
 6071 1d1c 38090000 		.4byte	.LASF200
 6072 1d20 01       		.byte	0x1
 6073 1d21 47       		.byte	0x47
 6074 1d22 9E000000 		.4byte	0x9e
 6075 1d26 05       		.uleb128 0x5
 6076 1d27 03       		.byte	0x3
 6077 1d28 00000000 		.4byte	topByte
 6078 1d2c 3A       		.uleb128 0x3a
 6079 1d2d 750D0000 		.4byte	.LASF201
 6080 1d31 01       		.byte	0x1
 6081 1d32 48       		.byte	0x48
 6082 1d33 9E000000 		.4byte	0x9e
 6083 1d37 05       		.uleb128 0x5
 6084 1d38 03       		.byte	0x3
 6085 1d39 00000000 		.4byte	bottomByte
 6086 1d3d 3A       		.uleb128 0x3a
 6087 1d3e 6D0C0000 		.4byte	.LASF202
 6088 1d42 01       		.byte	0x1
 6089 1d43 49       		.byte	0x49
 6090 1d44 A9000000 		.4byte	0xa9
 6091 1d48 05       		.uleb128 0x5
 6092 1d49 03       		.byte	0x3
 6093 1d4a 00000000 		.4byte	combinedData
 6094 1d4e 3A       		.uleb128 0x3a
 6095 1d4f EA000000 		.4byte	.LASF203
 6096 1d53 01       		.byte	0x1
 6097 1d54 4A       		.byte	0x4a
 6098 1d55 25000000 		.4byte	0x25
 6099 1d59 05       		.uleb128 0x5
 6100 1d5a 03       		.byte	0x3
 6101 1d5b 00000000 		.4byte	geeForce
 6102 1d5f 3A       		.uleb128 0x3a
 6103 1d60 F00B0000 		.4byte	.LASF204
 6104 1d64 01       		.byte	0x1
 6105 1d65 4B       		.byte	0x4b
 6106 1d66 55010000 		.4byte	0x155
 6107 1d6a 05       		.uleb128 0x5
 6108 1d6b 03       		.byte	0x3
 6109 1d6c 00000000 		.4byte	mpuString1
 6110 1d70 3A       		.uleb128 0x3a
 6111 1d71 67070000 		.4byte	.LASF205
ARM GAS  C:\Users\student\AppData\Local\Temp\cc7xlRSM.s 			page 122


 6112 1d75 01       		.byte	0x1
 6113 1d76 54       		.byte	0x54
 6114 1d77 AB1C0000 		.4byte	0x1cab
 6115 1d7b 05       		.uleb128 0x5
 6116 1d7c 03       		.byte	0x3
 6117 1d7d 00000000 		.4byte	rectangleIndexTrackOne
 6118 1d81 3A       		.uleb128 0x3a
 6119 1d82 B00B0000 		.4byte	.LASF206
 6120 1d86 01       		.byte	0x1
 6121 1d87 55       		.byte	0x55
 6122 1d88 AB1C0000 		.4byte	0x1cab
 6123 1d8c 05       		.uleb128 0x5
 6124 1d8d 03       		.byte	0x3
 6125 1d8e 00000000 		.4byte	rectangleIndexTrackTwo
 6126 1d92 3A       		.uleb128 0x3a
 6127 1d93 75050000 		.4byte	.LASF207
 6128 1d97 01       		.byte	0x1
 6129 1d98 57       		.byte	0x57
 6130 1d99 AB1C0000 		.4byte	0x1cab
 6131 1d9d 05       		.uleb128 0x5
 6132 1d9e 03       		.byte	0x3
 6133 1d9f 00000000 		.4byte	secondsCount
 6134 1da3 09       		.uleb128 0x9
 6135 1da4 01010000 		.4byte	0x101
 6136 1da8 B31D0000 		.4byte	0x1db3
 6137 1dac 0A       		.uleb128 0xa
 6138 1dad 3B010000 		.4byte	0x13b
 6139 1db1 0B       		.byte	0xb
 6140 1db2 00       		.byte	0
 6141 1db3 3A       		.uleb128 0x3a
 6142 1db4 25060000 		.4byte	.LASF208
 6143 1db8 01       		.byte	0x1
 6144 1db9 58       		.byte	0x58
 6145 1dba A31D0000 		.4byte	0x1da3
 6146 1dbe 05       		.uleb128 0x5
 6147 1dbf 03       		.byte	0x3
 6148 1dc0 00000000 		.4byte	timeString
 6149 1dc4 3C       		.uleb128 0x3c
 6150 1dc5 1E070000 		.4byte	.LASF209
 6151 1dc9 0B       		.byte	0xb
 6152 1dca C101     		.2byte	0x1c1
 6153 1dcc D61D0000 		.4byte	0x1dd6
 6154 1dd0 13       		.uleb128 0x13
 6155 1dd1 8E010000 		.4byte	0x18e
 6156 1dd5 00       		.byte	0
 6157 1dd6 3D       		.uleb128 0x3d
 6158 1dd7 7C060000 		.4byte	.LASF211
 6159 1ddb 0C       		.byte	0xc
 6160 1ddc DE       		.byte	0xde
 6161 1ddd 90000000 		.4byte	0x90
 6162 1de1 F11D0000 		.4byte	0x1df1
 6163 1de5 13       		.uleb128 0x13
 6164 1de6 44010000 		.4byte	0x144
 6165 1dea 13       		.uleb128 0x13
 6166 1deb 4A010000 		.4byte	0x14a
 6167 1def 3E       		.uleb128 0x3e
 6168 1df0 00       		.byte	0
ARM GAS  C:\Users\student\AppData\Local\Temp\cc7xlRSM.s 			page 123


 6169 1df1 3C       		.uleb128 0x3c
 6170 1df2 1B010000 		.4byte	.LASF210
 6171 1df6 0B       		.byte	0xb
 6172 1df7 0503     		.2byte	0x305
 6173 1df9 0D1E0000 		.4byte	0x1e0d
 6174 1dfd 13       		.uleb128 0x13
 6175 1dfe 4A010000 		.4byte	0x14a
 6176 1e02 13       		.uleb128 0x13
 6177 1e03 90000000 		.4byte	0x90
 6178 1e07 13       		.uleb128 0x13
 6179 1e08 90000000 		.4byte	0x90
 6180 1e0c 00       		.byte	0
 6181 1e0d 3F       		.uleb128 0x3f
 6182 1e0e 100D0000 		.4byte	.LASF213
 6183 1e12 0E       		.byte	0xe
 6184 1e13 5E       		.byte	0x5e
 6185 1e14 CA000000 		.4byte	0xca
 6186 1e18 40       		.uleb128 0x40
 6187 1e19 A7010000 		.4byte	.LASF215
 6188 1e1d 0D       		.byte	0xd
 6189 1e1e D1       		.byte	0xd1
 6190 1e1f 3D       		.uleb128 0x3d
 6191 1e20 BB040000 		.4byte	.LASF212
 6192 1e24 0D       		.byte	0xd
 6193 1e25 39       		.byte	0x39
 6194 1e26 CA000000 		.4byte	0xca
 6195 1e2a 341E0000 		.4byte	0x1e34
 6196 1e2e 13       		.uleb128 0x13
 6197 1e2f CA000000 		.4byte	0xca
 6198 1e33 00       		.byte	0
 6199 1e34 3F       		.uleb128 0x3f
 6200 1e35 96080000 		.4byte	.LASF214
 6201 1e39 0D       		.byte	0xd
 6202 1e3a 3B       		.byte	0x3b
 6203 1e3b EE000000 		.4byte	0xee
 6204 1e3f 40       		.uleb128 0x40
 6205 1e40 79010000 		.4byte	.LASF216
 6206 1e44 0F       		.byte	0xf
 6207 1e45 3D       		.byte	0x3d
 6208 1e46 3D       		.uleb128 0x3d
 6209 1e47 A3050000 		.4byte	.LASF217
 6210 1e4b 0F       		.byte	0xf
 6211 1e4c 3F       		.byte	0x3f
 6212 1e4d CA000000 		.4byte	0xca
 6213 1e51 5B1E0000 		.4byte	0x1e5b
 6214 1e55 13       		.uleb128 0x13
 6215 1e56 CA000000 		.4byte	0xca
 6216 1e5a 00       		.byte	0
 6217 1e5b 3F       		.uleb128 0x3f
 6218 1e5c CF0A0000 		.4byte	.LASF218
 6219 1e60 0F       		.byte	0xf
 6220 1e61 41       		.byte	0x41
 6221 1e62 EE000000 		.4byte	0xee
 6222 1e66 3F       		.uleb128 0x3f
 6223 1e67 C2030000 		.4byte	.LASF219
 6224 1e6b 10       		.byte	0x10
 6225 1e6c 5E       		.byte	0x5e
ARM GAS  C:\Users\student\AppData\Local\Temp\cc7xlRSM.s 			page 124


 6226 1e6d CA000000 		.4byte	0xca
 6227 1e71 3C       		.uleb128 0x3c
 6228 1e72 E3090000 		.4byte	.LASF220
 6229 1e76 0B       		.byte	0xb
 6230 1e77 1A02     		.2byte	0x21a
 6231 1e79 921E0000 		.4byte	0x1e92
 6232 1e7d 13       		.uleb128 0x13
 6233 1e7e 90000000 		.4byte	0x90
 6234 1e82 13       		.uleb128 0x13
 6235 1e83 90000000 		.4byte	0x90
 6236 1e87 13       		.uleb128 0x13
 6237 1e88 90000000 		.4byte	0x90
 6238 1e8c 13       		.uleb128 0x13
 6239 1e8d 90000000 		.4byte	0x90
 6240 1e91 00       		.byte	0
 6241 1e92 40       		.uleb128 0x40
 6242 1e93 430C0000 		.4byte	.LASF221
 6243 1e97 11       		.byte	0x11
 6244 1e98 53       		.byte	0x53
 6245 1e99 41       		.uleb128 0x41
 6246 1e9a E0060000 		.4byte	.LASF222
 6247 1e9e 0B       		.byte	0xb
 6248 1e9f 6D01     		.2byte	0x16d
 6249 1ea1 90000000 		.4byte	0x90
 6250 1ea5 42       		.uleb128 0x42
 6251 1ea6 89070000 		.4byte	.LASF223
 6252 1eaa 0B       		.byte	0xb
 6253 1eab F601     		.2byte	0x1f6
 6254 1ead 43       		.uleb128 0x43
 6255 1eae 950B0000 		.4byte	.LASF224
 6256 1eb2 0B       		.byte	0xb
 6257 1eb3 2B03     		.2byte	0x32b
 6258 1eb5 E3050000 		.4byte	0x5e3
 6259 1eb9 C31E0000 		.4byte	0x1ec3
 6260 1ebd 13       		.uleb128 0x13
 6261 1ebe E3050000 		.4byte	0x5e3
 6262 1ec2 00       		.byte	0
 6263 1ec3 43       		.uleb128 0x43
 6264 1ec4 DC040000 		.4byte	.LASF225
 6265 1ec8 09       		.byte	0x9
 6266 1ec9 4301     		.2byte	0x143
 6267 1ecb 7B000000 		.4byte	0x7b
 6268 1ecf E31E0000 		.4byte	0x1ee3
 6269 1ed3 13       		.uleb128 0x13
 6270 1ed4 08080000 		.4byte	0x808
 6271 1ed8 13       		.uleb128 0x13
 6272 1ed9 42010000 		.4byte	0x142
 6273 1edd 13       		.uleb128 0x13
 6274 1ede 7B000000 		.4byte	0x7b
 6275 1ee2 00       		.byte	0
 6276 1ee3 3D       		.uleb128 0x3d
 6277 1ee4 180C0000 		.4byte	.LASF226
 6278 1ee8 12       		.byte	0x12
 6279 1ee9 1A       		.byte	0x1a
 6280 1eea 44010000 		.4byte	0x144
 6281 1eee FD1E0000 		.4byte	0x1efd
 6282 1ef2 13       		.uleb128 0x13
ARM GAS  C:\Users\student\AppData\Local\Temp\cc7xlRSM.s 			page 125


 6283 1ef3 44010000 		.4byte	0x144
 6284 1ef7 13       		.uleb128 0x13
 6285 1ef8 4A010000 		.4byte	0x14a
 6286 1efc 00       		.byte	0
 6287 1efd 44       		.uleb128 0x44
 6288 1efe F5030000 		.4byte	.LASF227
 6289 1f02 13       		.byte	0x13
 6290 1f03 00       		.byte	0
 6291 1f04 5A0B0000 		.4byte	.LASF254
 6292 1f08 97000000 		.4byte	0x97
 6293 1f0c 161F0000 		.4byte	0x1f16
 6294 1f10 13       		.uleb128 0x13
 6295 1f11 4A010000 		.4byte	0x14a
 6296 1f15 00       		.byte	0
 6297 1f16 45       		.uleb128 0x45
 6298 1f17 FB080000 		.4byte	.LASF228
 6299 1f1b 14       		.byte	0x14
 6300 1f1c 76       		.byte	0x76
 6301 1f1d 271F0000 		.4byte	0x1f27
 6302 1f21 13       		.uleb128 0x13
 6303 1f22 E2000000 		.4byte	0xe2
 6304 1f26 00       		.byte	0
 6305 1f27 42       		.uleb128 0x42
 6306 1f28 D30B0000 		.4byte	.LASF229
 6307 1f2c 09       		.byte	0x9
 6308 1f2d DA01     		.2byte	0x1da
 6309 1f2f 43       		.uleb128 0x43
 6310 1f30 AA040000 		.4byte	.LASF230
 6311 1f34 09       		.byte	0x9
 6312 1f35 7001     		.2byte	0x170
 6313 1f37 90000000 		.4byte	0x90
 6314 1f3b 4F1F0000 		.4byte	0x1f4f
 6315 1f3f 13       		.uleb128 0x13
 6316 1f40 90000000 		.4byte	0x90
 6317 1f44 13       		.uleb128 0x13
 6318 1f45 44010000 		.4byte	0x144
 6319 1f49 13       		.uleb128 0x13
 6320 1f4a 90000000 		.4byte	0x90
 6321 1f4e 00       		.byte	0
 6322 1f4f 43       		.uleb128 0x43
 6323 1f50 70010000 		.4byte	.LASF231
 6324 1f54 09       		.byte	0x9
 6325 1f55 7801     		.2byte	0x178
 6326 1f57 90000000 		.4byte	0x90
 6327 1f5b 651F0000 		.4byte	0x1f65
 6328 1f5f 13       		.uleb128 0x13
 6329 1f60 4A010000 		.4byte	0x14a
 6330 1f64 00       		.byte	0
 6331 1f65 43       		.uleb128 0x43
 6332 1f66 2B050000 		.4byte	.LASF232
 6333 1f6a 09       		.byte	0x9
 6334 1f6b B901     		.2byte	0x1b9
 6335 1f6d 01010000 		.4byte	0x101
 6336 1f71 8A1F0000 		.4byte	0x1f8a
 6337 1f75 13       		.uleb128 0x13
 6338 1f76 8A1F0000 		.4byte	0x1f8a
 6339 1f7a 13       		.uleb128 0x13
ARM GAS  C:\Users\student\AppData\Local\Temp\cc7xlRSM.s 			page 126


 6340 1f7b 4A010000 		.4byte	0x14a
 6341 1f7f 13       		.uleb128 0x13
 6342 1f80 44010000 		.4byte	0x144
 6343 1f84 13       		.uleb128 0x13
 6344 1f85 90000000 		.4byte	0x90
 6345 1f89 00       		.byte	0
 6346 1f8a 07       		.uleb128 0x7
 6347 1f8b 04       		.byte	0x4
 6348 1f8c FD070000 		.4byte	0x7fd
 6349 1f90 3C       		.uleb128 0x3c
 6350 1f91 F7010000 		.4byte	.LASF233
 6351 1f95 09       		.byte	0x9
 6352 1f96 BB01     		.2byte	0x1bb
 6353 1f98 A21F0000 		.4byte	0x1fa2
 6354 1f9c 13       		.uleb128 0x13
 6355 1f9d 8A1F0000 		.4byte	0x1f8a
 6356 1fa1 00       		.byte	0
 6357 1fa2 43       		.uleb128 0x43
 6358 1fa3 84060000 		.4byte	.LASF234
 6359 1fa7 09       		.byte	0x9
 6360 1fa8 3A01     		.2byte	0x13a
 6361 1faa 08080000 		.4byte	0x808
 6362 1fae BD1F0000 		.4byte	0x1fbd
 6363 1fb2 13       		.uleb128 0x13
 6364 1fb3 4A010000 		.4byte	0x14a
 6365 1fb7 13       		.uleb128 0x13
 6366 1fb8 4A010000 		.4byte	0x14a
 6367 1fbc 00       		.byte	0
 6368 1fbd 45       		.uleb128 0x45
 6369 1fbe 01080000 		.4byte	.LASF235
 6370 1fc2 15       		.byte	0x15
 6371 1fc3 64       		.byte	0x64
 6372 1fc4 CE1F0000 		.4byte	0x1fce
 6373 1fc8 13       		.uleb128 0x13
 6374 1fc9 D6000000 		.4byte	0xd6
 6375 1fcd 00       		.byte	0
 6376 1fce 3F       		.uleb128 0x3f
 6377 1fcf C5010000 		.4byte	.LASF236
 6378 1fd3 16       		.byte	0x16
 6379 1fd4 5E       		.byte	0x5e
 6380 1fd5 CA000000 		.4byte	0xca
 6381 1fd9 3D       		.uleb128 0x3d
 6382 1fda FB050000 		.4byte	.LASF237
 6383 1fde 17       		.byte	0x17
 6384 1fdf B1       		.byte	0xb1
 6385 1fe0 CA000000 		.4byte	0xca
 6386 1fe4 F31F0000 		.4byte	0x1ff3
 6387 1fe8 13       		.uleb128 0x13
 6388 1fe9 CA000000 		.4byte	0xca
 6389 1fed 13       		.uleb128 0x13
 6390 1fee CA000000 		.4byte	0xca
 6391 1ff2 00       		.byte	0
 6392 1ff3 3D       		.uleb128 0x3d
 6393 1ff4 580D0000 		.4byte	.LASF238
 6394 1ff8 17       		.byte	0x17
 6395 1ff9 B6       		.byte	0xb6
 6396 1ffa CA000000 		.4byte	0xca
ARM GAS  C:\Users\student\AppData\Local\Temp\cc7xlRSM.s 			page 127


 6397 1ffe 08200000 		.4byte	0x2008
 6398 2002 13       		.uleb128 0x13
 6399 2003 CA000000 		.4byte	0xca
 6400 2007 00       		.byte	0
 6401 2008 3F       		.uleb128 0x3f
 6402 2009 0F050000 		.4byte	.LASF239
 6403 200d 17       		.byte	0x17
 6404 200e B5       		.byte	0xb5
 6405 200f CA000000 		.4byte	0xca
 6406 2013 43       		.uleb128 0x43
 6407 2014 97010000 		.4byte	.LASF240
 6408 2018 09       		.byte	0x9
 6409 2019 3B01     		.2byte	0x13b
 6410 201b 90000000 		.4byte	0x90
 6411 201f 29200000 		.4byte	0x2029
 6412 2023 13       		.uleb128 0x13
 6413 2024 08080000 		.4byte	0x808
 6414 2028 00       		.byte	0
 6415 2029 3C       		.uleb128 0x3c
 6416 202a DF000000 		.4byte	.LASF241
 6417 202e 09       		.byte	0x9
 6418 202f 7701     		.2byte	0x177
 6419 2031 3B200000 		.4byte	0x203b
 6420 2035 13       		.uleb128 0x13
 6421 2036 4A010000 		.4byte	0x14a
 6422 203a 00       		.byte	0
 6423 203b 40       		.uleb128 0x40
 6424 203c 330D0000 		.4byte	.LASF242
 6425 2040 15       		.byte	0x15
 6426 2041 53       		.byte	0x53
 6427 2042 40       		.uleb128 0x40
 6428 2043 9E000000 		.4byte	.LASF243
 6429 2047 16       		.byte	0x16
 6430 2048 5A       		.byte	0x5a
 6431 2049 45       		.uleb128 0x45
 6432 204a 68080000 		.4byte	.LASF244
 6433 204e 18       		.byte	0x18
 6434 204f 18       		.byte	0x18
 6435 2050 5A200000 		.4byte	0x205a
 6436 2054 13       		.uleb128 0x13
 6437 2055 0D010000 		.4byte	0x10d
 6438 2059 00       		.byte	0
 6439 205a 40       		.uleb128 0x40
 6440 205b FB0A0000 		.4byte	.LASF245
 6441 205f 10       		.byte	0x10
 6442 2060 5A       		.byte	0x5a
 6443 2061 40       		.uleb128 0x40
 6444 2062 EB040000 		.4byte	.LASF246
 6445 2066 0D       		.byte	0xd
 6446 2067 34       		.byte	0x34
 6447 2068 40       		.uleb128 0x40
 6448 2069 52080000 		.4byte	.LASF247
 6449 206d 0E       		.byte	0xe
 6450 206e 5A       		.byte	0x5a
 6451 206f 40       		.uleb128 0x40
 6452 2070 7F080000 		.4byte	.LASF248
 6453 2074 0F       		.byte	0xf
ARM GAS  C:\Users\student\AppData\Local\Temp\cc7xlRSM.s 			page 128


 6454 2075 3A       		.byte	0x3a
 6455 2076 45       		.uleb128 0x45
 6456 2077 89090000 		.4byte	.LASF249
 6457 207b 19       		.byte	0x19
 6458 207c 18       		.byte	0x18
 6459 207d 87200000 		.4byte	0x2087
 6460 2081 13       		.uleb128 0x13
 6461 2082 0D010000 		.4byte	0x10d
 6462 2086 00       		.byte	0
 6463 2087 40       		.uleb128 0x40
 6464 2088 300C0000 		.4byte	.LASF250
 6465 208c 17       		.byte	0x17
 6466 208d 93       		.byte	0x93
 6467 208e 46       		.uleb128 0x46
 6468 208f 25000000 		.4byte	.LASF255
 6469 2093 1A       		.byte	0x1a
 6470 2094 18       		.byte	0x18
 6471 2095 13       		.uleb128 0x13
 6472 2096 0D010000 		.4byte	0x10d
 6473 209a 00       		.byte	0
 6474 209b 00       		.byte	0
 6475              		.section	.debug_abbrev,"",%progbits
 6476              	.Ldebug_abbrev0:
 6477 0000 01       		.uleb128 0x1
 6478 0001 11       		.uleb128 0x11
 6479 0002 01       		.byte	0x1
 6480 0003 25       		.uleb128 0x25
 6481 0004 0E       		.uleb128 0xe
 6482 0005 13       		.uleb128 0x13
 6483 0006 0B       		.uleb128 0xb
 6484 0007 03       		.uleb128 0x3
 6485 0008 0E       		.uleb128 0xe
 6486 0009 1B       		.uleb128 0x1b
 6487 000a 0E       		.uleb128 0xe
 6488 000b 55       		.uleb128 0x55
 6489 000c 17       		.uleb128 0x17
 6490 000d 11       		.uleb128 0x11
 6491 000e 01       		.uleb128 0x1
 6492 000f 10       		.uleb128 0x10
 6493 0010 17       		.uleb128 0x17
 6494 0011 00       		.byte	0
 6495 0012 00       		.byte	0
 6496 0013 02       		.uleb128 0x2
 6497 0014 24       		.uleb128 0x24
 6498 0015 00       		.byte	0
 6499 0016 0B       		.uleb128 0xb
 6500 0017 0B       		.uleb128 0xb
 6501 0018 3E       		.uleb128 0x3e
 6502 0019 0B       		.uleb128 0xb
 6503 001a 03       		.uleb128 0x3
 6504 001b 0E       		.uleb128 0xe
 6505 001c 00       		.byte	0
 6506 001d 00       		.byte	0
 6507 001e 03       		.uleb128 0x3
 6508 001f 16       		.uleb128 0x16
 6509 0020 00       		.byte	0
 6510 0021 03       		.uleb128 0x3
ARM GAS  C:\Users\student\AppData\Local\Temp\cc7xlRSM.s 			page 129


 6511 0022 0E       		.uleb128 0xe
 6512 0023 3A       		.uleb128 0x3a
 6513 0024 0B       		.uleb128 0xb
 6514 0025 3B       		.uleb128 0x3b
 6515 0026 0B       		.uleb128 0xb
 6516 0027 49       		.uleb128 0x49
 6517 0028 13       		.uleb128 0x13
 6518 0029 00       		.byte	0
 6519 002a 00       		.byte	0
 6520 002b 04       		.uleb128 0x4
 6521 002c 24       		.uleb128 0x24
 6522 002d 00       		.byte	0
 6523 002e 0B       		.uleb128 0xb
 6524 002f 0B       		.uleb128 0xb
 6525 0030 3E       		.uleb128 0x3e
 6526 0031 0B       		.uleb128 0xb
 6527 0032 03       		.uleb128 0x3
 6528 0033 08       		.uleb128 0x8
 6529 0034 00       		.byte	0
 6530 0035 00       		.byte	0
 6531 0036 05       		.uleb128 0x5
 6532 0037 16       		.uleb128 0x16
 6533 0038 00       		.byte	0
 6534 0039 03       		.uleb128 0x3
 6535 003a 0E       		.uleb128 0xe
 6536 003b 3A       		.uleb128 0x3a
 6537 003c 0B       		.uleb128 0xb
 6538 003d 3B       		.uleb128 0x3b
 6539 003e 05       		.uleb128 0x5
 6540 003f 49       		.uleb128 0x49
 6541 0040 13       		.uleb128 0x13
 6542 0041 00       		.byte	0
 6543 0042 00       		.byte	0
 6544 0043 06       		.uleb128 0x6
 6545 0044 35       		.uleb128 0x35
 6546 0045 00       		.byte	0
 6547 0046 49       		.uleb128 0x49
 6548 0047 13       		.uleb128 0x13
 6549 0048 00       		.byte	0
 6550 0049 00       		.byte	0
 6551 004a 07       		.uleb128 0x7
 6552 004b 0F       		.uleb128 0xf
 6553 004c 00       		.byte	0
 6554 004d 0B       		.uleb128 0xb
 6555 004e 0B       		.uleb128 0xb
 6556 004f 49       		.uleb128 0x49
 6557 0050 13       		.uleb128 0x13
 6558 0051 00       		.byte	0
 6559 0052 00       		.byte	0
 6560 0053 08       		.uleb128 0x8
 6561 0054 15       		.uleb128 0x15
 6562 0055 00       		.byte	0
 6563 0056 27       		.uleb128 0x27
 6564 0057 19       		.uleb128 0x19
 6565 0058 00       		.byte	0
 6566 0059 00       		.byte	0
 6567 005a 09       		.uleb128 0x9
ARM GAS  C:\Users\student\AppData\Local\Temp\cc7xlRSM.s 			page 130


 6568 005b 01       		.uleb128 0x1
 6569 005c 01       		.byte	0x1
 6570 005d 49       		.uleb128 0x49
 6571 005e 13       		.uleb128 0x13
 6572 005f 01       		.uleb128 0x1
 6573 0060 13       		.uleb128 0x13
 6574 0061 00       		.byte	0
 6575 0062 00       		.byte	0
 6576 0063 0A       		.uleb128 0xa
 6577 0064 21       		.uleb128 0x21
 6578 0065 00       		.byte	0
 6579 0066 49       		.uleb128 0x49
 6580 0067 13       		.uleb128 0x13
 6581 0068 2F       		.uleb128 0x2f
 6582 0069 0B       		.uleb128 0xb
 6583 006a 00       		.byte	0
 6584 006b 00       		.byte	0
 6585 006c 0B       		.uleb128 0xb
 6586 006d 0F       		.uleb128 0xf
 6587 006e 00       		.byte	0
 6588 006f 0B       		.uleb128 0xb
 6589 0070 0B       		.uleb128 0xb
 6590 0071 00       		.byte	0
 6591 0072 00       		.byte	0
 6592 0073 0C       		.uleb128 0xc
 6593 0074 26       		.uleb128 0x26
 6594 0075 00       		.byte	0
 6595 0076 49       		.uleb128 0x49
 6596 0077 13       		.uleb128 0x13
 6597 0078 00       		.byte	0
 6598 0079 00       		.byte	0
 6599 007a 0D       		.uleb128 0xd
 6600 007b 26       		.uleb128 0x26
 6601 007c 00       		.byte	0
 6602 007d 00       		.byte	0
 6603 007e 00       		.byte	0
 6604 007f 0E       		.uleb128 0xe
 6605 0080 13       		.uleb128 0x13
 6606 0081 01       		.byte	0x1
 6607 0082 0B       		.uleb128 0xb
 6608 0083 0B       		.uleb128 0xb
 6609 0084 3A       		.uleb128 0x3a
 6610 0085 0B       		.uleb128 0xb
 6611 0086 3B       		.uleb128 0x3b
 6612 0087 0B       		.uleb128 0xb
 6613 0088 01       		.uleb128 0x1
 6614 0089 13       		.uleb128 0x13
 6615 008a 00       		.byte	0
 6616 008b 00       		.byte	0
 6617 008c 0F       		.uleb128 0xf
 6618 008d 0D       		.uleb128 0xd
 6619 008e 00       		.byte	0
 6620 008f 03       		.uleb128 0x3
 6621 0090 08       		.uleb128 0x8
 6622 0091 3A       		.uleb128 0x3a
 6623 0092 0B       		.uleb128 0xb
 6624 0093 3B       		.uleb128 0x3b
ARM GAS  C:\Users\student\AppData\Local\Temp\cc7xlRSM.s 			page 131


 6625 0094 0B       		.uleb128 0xb
 6626 0095 49       		.uleb128 0x49
 6627 0096 13       		.uleb128 0x13
 6628 0097 38       		.uleb128 0x38
 6629 0098 0B       		.uleb128 0xb
 6630 0099 00       		.byte	0
 6631 009a 00       		.byte	0
 6632 009b 10       		.uleb128 0x10
 6633 009c 0D       		.uleb128 0xd
 6634 009d 00       		.byte	0
 6635 009e 03       		.uleb128 0x3
 6636 009f 0E       		.uleb128 0xe
 6637 00a0 3A       		.uleb128 0x3a
 6638 00a1 0B       		.uleb128 0xb
 6639 00a2 3B       		.uleb128 0x3b
 6640 00a3 0B       		.uleb128 0xb
 6641 00a4 49       		.uleb128 0x49
 6642 00a5 13       		.uleb128 0x13
 6643 00a6 38       		.uleb128 0x38
 6644 00a7 0B       		.uleb128 0xb
 6645 00a8 00       		.byte	0
 6646 00a9 00       		.byte	0
 6647 00aa 11       		.uleb128 0x11
 6648 00ab 13       		.uleb128 0x13
 6649 00ac 01       		.byte	0x1
 6650 00ad 03       		.uleb128 0x3
 6651 00ae 0E       		.uleb128 0xe
 6652 00af 0B       		.uleb128 0xb
 6653 00b0 0B       		.uleb128 0xb
 6654 00b1 3A       		.uleb128 0x3a
 6655 00b2 0B       		.uleb128 0xb
 6656 00b3 3B       		.uleb128 0x3b
 6657 00b4 0B       		.uleb128 0xb
 6658 00b5 01       		.uleb128 0x1
 6659 00b6 13       		.uleb128 0x13
 6660 00b7 00       		.byte	0
 6661 00b8 00       		.byte	0
 6662 00b9 12       		.uleb128 0x12
 6663 00ba 15       		.uleb128 0x15
 6664 00bb 01       		.byte	0x1
 6665 00bc 27       		.uleb128 0x27
 6666 00bd 19       		.uleb128 0x19
 6667 00be 49       		.uleb128 0x49
 6668 00bf 13       		.uleb128 0x13
 6669 00c0 01       		.uleb128 0x1
 6670 00c1 13       		.uleb128 0x13
 6671 00c2 00       		.byte	0
 6672 00c3 00       		.byte	0
 6673 00c4 13       		.uleb128 0x13
 6674 00c5 05       		.uleb128 0x5
 6675 00c6 00       		.byte	0
 6676 00c7 49       		.uleb128 0x49
 6677 00c8 13       		.uleb128 0x13
 6678 00c9 00       		.byte	0
 6679 00ca 00       		.byte	0
 6680 00cb 14       		.uleb128 0x14
 6681 00cc 15       		.uleb128 0x15
ARM GAS  C:\Users\student\AppData\Local\Temp\cc7xlRSM.s 			page 132


 6682 00cd 01       		.byte	0x1
 6683 00ce 27       		.uleb128 0x27
 6684 00cf 19       		.uleb128 0x19
 6685 00d0 01       		.uleb128 0x1
 6686 00d1 13       		.uleb128 0x13
 6687 00d2 00       		.byte	0
 6688 00d3 00       		.byte	0
 6689 00d4 15       		.uleb128 0x15
 6690 00d5 13       		.uleb128 0x13
 6691 00d6 01       		.byte	0x1
 6692 00d7 0B       		.uleb128 0xb
 6693 00d8 0B       		.uleb128 0xb
 6694 00d9 3A       		.uleb128 0x3a
 6695 00da 0B       		.uleb128 0xb
 6696 00db 3B       		.uleb128 0x3b
 6697 00dc 05       		.uleb128 0x5
 6698 00dd 01       		.uleb128 0x1
 6699 00de 13       		.uleb128 0x13
 6700 00df 00       		.byte	0
 6701 00e0 00       		.byte	0
 6702 00e1 16       		.uleb128 0x16
 6703 00e2 0D       		.uleb128 0xd
 6704 00e3 00       		.byte	0
 6705 00e4 03       		.uleb128 0x3
 6706 00e5 0E       		.uleb128 0xe
 6707 00e6 3A       		.uleb128 0x3a
 6708 00e7 0B       		.uleb128 0xb
 6709 00e8 3B       		.uleb128 0x3b
 6710 00e9 05       		.uleb128 0x5
 6711 00ea 49       		.uleb128 0x49
 6712 00eb 13       		.uleb128 0x13
 6713 00ec 38       		.uleb128 0x38
 6714 00ed 0B       		.uleb128 0xb
 6715 00ee 00       		.byte	0
 6716 00ef 00       		.byte	0
 6717 00f0 17       		.uleb128 0x17
 6718 00f1 13       		.uleb128 0x13
 6719 00f2 01       		.byte	0x1
 6720 00f3 03       		.uleb128 0x3
 6721 00f4 0E       		.uleb128 0xe
 6722 00f5 0B       		.uleb128 0xb
 6723 00f6 0B       		.uleb128 0xb
 6724 00f7 3A       		.uleb128 0x3a
 6725 00f8 0B       		.uleb128 0xb
 6726 00f9 3B       		.uleb128 0x3b
 6727 00fa 05       		.uleb128 0x5
 6728 00fb 01       		.uleb128 0x1
 6729 00fc 13       		.uleb128 0x13
 6730 00fd 00       		.byte	0
 6731 00fe 00       		.byte	0
 6732 00ff 18       		.uleb128 0x18
 6733 0100 0D       		.uleb128 0xd
 6734 0101 00       		.byte	0
 6735 0102 03       		.uleb128 0x3
 6736 0103 08       		.uleb128 0x8
 6737 0104 3A       		.uleb128 0x3a
 6738 0105 0B       		.uleb128 0xb
ARM GAS  C:\Users\student\AppData\Local\Temp\cc7xlRSM.s 			page 133


 6739 0106 3B       		.uleb128 0x3b
 6740 0107 05       		.uleb128 0x5
 6741 0108 49       		.uleb128 0x49
 6742 0109 13       		.uleb128 0x13
 6743 010a 38       		.uleb128 0x38
 6744 010b 0B       		.uleb128 0xb
 6745 010c 00       		.byte	0
 6746 010d 00       		.byte	0
 6747 010e 19       		.uleb128 0x19
 6748 010f 17       		.uleb128 0x17
 6749 0110 01       		.byte	0x1
 6750 0111 0B       		.uleb128 0xb
 6751 0112 0B       		.uleb128 0xb
 6752 0113 3A       		.uleb128 0x3a
 6753 0114 0B       		.uleb128 0xb
 6754 0115 3B       		.uleb128 0x3b
 6755 0116 05       		.uleb128 0x5
 6756 0117 01       		.uleb128 0x1
 6757 0118 13       		.uleb128 0x13
 6758 0119 00       		.byte	0
 6759 011a 00       		.byte	0
 6760 011b 1A       		.uleb128 0x1a
 6761 011c 0D       		.uleb128 0xd
 6762 011d 00       		.byte	0
 6763 011e 03       		.uleb128 0x3
 6764 011f 0E       		.uleb128 0xe
 6765 0120 3A       		.uleb128 0x3a
 6766 0121 0B       		.uleb128 0xb
 6767 0122 3B       		.uleb128 0x3b
 6768 0123 05       		.uleb128 0x5
 6769 0124 49       		.uleb128 0x49
 6770 0125 13       		.uleb128 0x13
 6771 0126 00       		.byte	0
 6772 0127 00       		.byte	0
 6773 0128 1B       		.uleb128 0x1b
 6774 0129 13       		.uleb128 0x13
 6775 012a 00       		.byte	0
 6776 012b 03       		.uleb128 0x3
 6777 012c 0E       		.uleb128 0xe
 6778 012d 3C       		.uleb128 0x3c
 6779 012e 19       		.uleb128 0x19
 6780 012f 00       		.byte	0
 6781 0130 00       		.byte	0
 6782 0131 1C       		.uleb128 0x1c
 6783 0132 04       		.uleb128 0x4
 6784 0133 01       		.byte	0x1
 6785 0134 0B       		.uleb128 0xb
 6786 0135 0B       		.uleb128 0xb
 6787 0136 3A       		.uleb128 0x3a
 6788 0137 0B       		.uleb128 0xb
 6789 0138 3B       		.uleb128 0x3b
 6790 0139 0B       		.uleb128 0xb
 6791 013a 01       		.uleb128 0x1
 6792 013b 13       		.uleb128 0x13
 6793 013c 00       		.byte	0
 6794 013d 00       		.byte	0
 6795 013e 1D       		.uleb128 0x1d
ARM GAS  C:\Users\student\AppData\Local\Temp\cc7xlRSM.s 			page 134


 6796 013f 28       		.uleb128 0x28
 6797 0140 00       		.byte	0
 6798 0141 03       		.uleb128 0x3
 6799 0142 0E       		.uleb128 0xe
 6800 0143 1C       		.uleb128 0x1c
 6801 0144 0D       		.uleb128 0xd
 6802 0145 00       		.byte	0
 6803 0146 00       		.byte	0
 6804 0147 1E       		.uleb128 0x1e
 6805 0148 2E       		.uleb128 0x2e
 6806 0149 01       		.byte	0x1
 6807 014a 3F       		.uleb128 0x3f
 6808 014b 19       		.uleb128 0x19
 6809 014c 03       		.uleb128 0x3
 6810 014d 0E       		.uleb128 0xe
 6811 014e 3A       		.uleb128 0x3a
 6812 014f 0B       		.uleb128 0xb
 6813 0150 3B       		.uleb128 0x3b
 6814 0151 05       		.uleb128 0x5
 6815 0152 27       		.uleb128 0x27
 6816 0153 19       		.uleb128 0x19
 6817 0154 11       		.uleb128 0x11
 6818 0155 01       		.uleb128 0x1
 6819 0156 12       		.uleb128 0x12
 6820 0157 06       		.uleb128 0x6
 6821 0158 40       		.uleb128 0x40
 6822 0159 18       		.uleb128 0x18
 6823 015a 9742     		.uleb128 0x2117
 6824 015c 19       		.uleb128 0x19
 6825 015d 01       		.uleb128 0x1
 6826 015e 13       		.uleb128 0x13
 6827 015f 00       		.byte	0
 6828 0160 00       		.byte	0
 6829 0161 1F       		.uleb128 0x1f
 6830 0162 34       		.uleb128 0x34
 6831 0163 00       		.byte	0
 6832 0164 03       		.uleb128 0x3
 6833 0165 0E       		.uleb128 0xe
 6834 0166 3A       		.uleb128 0x3a
 6835 0167 0B       		.uleb128 0xb
 6836 0168 3B       		.uleb128 0x3b
 6837 0169 05       		.uleb128 0x5
 6838 016a 49       		.uleb128 0x49
 6839 016b 13       		.uleb128 0x13
 6840 016c 02       		.uleb128 0x2
 6841 016d 17       		.uleb128 0x17
 6842 016e 00       		.byte	0
 6843 016f 00       		.byte	0
 6844 0170 20       		.uleb128 0x20
 6845 0171 898201   		.uleb128 0x4109
 6846 0174 01       		.byte	0x1
 6847 0175 11       		.uleb128 0x11
 6848 0176 01       		.uleb128 0x1
 6849 0177 31       		.uleb128 0x31
 6850 0178 13       		.uleb128 0x13
 6851 0179 01       		.uleb128 0x1
 6852 017a 13       		.uleb128 0x13
ARM GAS  C:\Users\student\AppData\Local\Temp\cc7xlRSM.s 			page 135


 6853 017b 00       		.byte	0
 6854 017c 00       		.byte	0
 6855 017d 21       		.uleb128 0x21
 6856 017e 8A8201   		.uleb128 0x410a
 6857 0181 00       		.byte	0
 6858 0182 02       		.uleb128 0x2
 6859 0183 18       		.uleb128 0x18
 6860 0184 9142     		.uleb128 0x2111
 6861 0186 18       		.uleb128 0x18
 6862 0187 00       		.byte	0
 6863 0188 00       		.byte	0
 6864 0189 22       		.uleb128 0x22
 6865 018a 898201   		.uleb128 0x4109
 6866 018d 00       		.byte	0
 6867 018e 11       		.uleb128 0x11
 6868 018f 01       		.uleb128 0x1
 6869 0190 31       		.uleb128 0x31
 6870 0191 13       		.uleb128 0x13
 6871 0192 00       		.byte	0
 6872 0193 00       		.byte	0
 6873 0194 23       		.uleb128 0x23
 6874 0195 2E       		.uleb128 0x2e
 6875 0196 01       		.byte	0x1
 6876 0197 3F       		.uleb128 0x3f
 6877 0198 19       		.uleb128 0x19
 6878 0199 03       		.uleb128 0x3
 6879 019a 0E       		.uleb128 0xe
 6880 019b 3A       		.uleb128 0x3a
 6881 019c 0B       		.uleb128 0xb
 6882 019d 3B       		.uleb128 0x3b
 6883 019e 05       		.uleb128 0x5
 6884 019f 27       		.uleb128 0x27
 6885 01a0 19       		.uleb128 0x19
 6886 01a1 11       		.uleb128 0x11
 6887 01a2 01       		.uleb128 0x1
 6888 01a3 12       		.uleb128 0x12
 6889 01a4 06       		.uleb128 0x6
 6890 01a5 40       		.uleb128 0x40
 6891 01a6 18       		.uleb128 0x18
 6892 01a7 9642     		.uleb128 0x2116
 6893 01a9 19       		.uleb128 0x19
 6894 01aa 01       		.uleb128 0x1
 6895 01ab 13       		.uleb128 0x13
 6896 01ac 00       		.byte	0
 6897 01ad 00       		.byte	0
 6898 01ae 24       		.uleb128 0x24
 6899 01af 2E       		.uleb128 0x2e
 6900 01b0 01       		.byte	0x1
 6901 01b1 3F       		.uleb128 0x3f
 6902 01b2 19       		.uleb128 0x19
 6903 01b3 03       		.uleb128 0x3
 6904 01b4 0E       		.uleb128 0xe
 6905 01b5 3A       		.uleb128 0x3a
 6906 01b6 0B       		.uleb128 0xb
 6907 01b7 3B       		.uleb128 0x3b
 6908 01b8 0B       		.uleb128 0xb
 6909 01b9 27       		.uleb128 0x27
ARM GAS  C:\Users\student\AppData\Local\Temp\cc7xlRSM.s 			page 136


 6910 01ba 19       		.uleb128 0x19
 6911 01bb 11       		.uleb128 0x11
 6912 01bc 01       		.uleb128 0x1
 6913 01bd 12       		.uleb128 0x12
 6914 01be 06       		.uleb128 0x6
 6915 01bf 40       		.uleb128 0x40
 6916 01c0 18       		.uleb128 0x18
 6917 01c1 9742     		.uleb128 0x2117
 6918 01c3 19       		.uleb128 0x19
 6919 01c4 01       		.uleb128 0x1
 6920 01c5 13       		.uleb128 0x13
 6921 01c6 00       		.byte	0
 6922 01c7 00       		.byte	0
 6923 01c8 25       		.uleb128 0x25
 6924 01c9 05       		.uleb128 0x5
 6925 01ca 00       		.byte	0
 6926 01cb 03       		.uleb128 0x3
 6927 01cc 0E       		.uleb128 0xe
 6928 01cd 3A       		.uleb128 0x3a
 6929 01ce 0B       		.uleb128 0xb
 6930 01cf 3B       		.uleb128 0x3b
 6931 01d0 0B       		.uleb128 0xb
 6932 01d1 49       		.uleb128 0x49
 6933 01d2 13       		.uleb128 0x13
 6934 01d3 02       		.uleb128 0x2
 6935 01d4 17       		.uleb128 0x17
 6936 01d5 00       		.byte	0
 6937 01d6 00       		.byte	0
 6938 01d7 26       		.uleb128 0x26
 6939 01d8 34       		.uleb128 0x34
 6940 01d9 00       		.byte	0
 6941 01da 03       		.uleb128 0x3
 6942 01db 0E       		.uleb128 0xe
 6943 01dc 3A       		.uleb128 0x3a
 6944 01dd 0B       		.uleb128 0xb
 6945 01de 3B       		.uleb128 0x3b
 6946 01df 0B       		.uleb128 0xb
 6947 01e0 49       		.uleb128 0x49
 6948 01e1 13       		.uleb128 0x13
 6949 01e2 1C       		.uleb128 0x1c
 6950 01e3 05       		.uleb128 0x5
 6951 01e4 00       		.byte	0
 6952 01e5 00       		.byte	0
 6953 01e6 27       		.uleb128 0x27
 6954 01e7 34       		.uleb128 0x34
 6955 01e8 00       		.byte	0
 6956 01e9 03       		.uleb128 0x3
 6957 01ea 0E       		.uleb128 0xe
 6958 01eb 3A       		.uleb128 0x3a
 6959 01ec 0B       		.uleb128 0xb
 6960 01ed 3B       		.uleb128 0x3b
 6961 01ee 0B       		.uleb128 0xb
 6962 01ef 49       		.uleb128 0x49
 6963 01f0 13       		.uleb128 0x13
 6964 01f1 02       		.uleb128 0x2
 6965 01f2 17       		.uleb128 0x17
 6966 01f3 00       		.byte	0
ARM GAS  C:\Users\student\AppData\Local\Temp\cc7xlRSM.s 			page 137


 6967 01f4 00       		.byte	0
 6968 01f5 28       		.uleb128 0x28
 6969 01f6 34       		.uleb128 0x34
 6970 01f7 00       		.byte	0
 6971 01f8 03       		.uleb128 0x3
 6972 01f9 0E       		.uleb128 0xe
 6973 01fa 3A       		.uleb128 0x3a
 6974 01fb 0B       		.uleb128 0xb
 6975 01fc 3B       		.uleb128 0x3b
 6976 01fd 0B       		.uleb128 0xb
 6977 01fe 49       		.uleb128 0x49
 6978 01ff 13       		.uleb128 0x13
 6979 0200 1C       		.uleb128 0x1c
 6980 0201 0B       		.uleb128 0xb
 6981 0202 00       		.byte	0
 6982 0203 00       		.byte	0
 6983 0204 29       		.uleb128 0x29
 6984 0205 34       		.uleb128 0x34
 6985 0206 00       		.byte	0
 6986 0207 03       		.uleb128 0x3
 6987 0208 08       		.uleb128 0x8
 6988 0209 3A       		.uleb128 0x3a
 6989 020a 0B       		.uleb128 0xb
 6990 020b 3B       		.uleb128 0x3b
 6991 020c 0B       		.uleb128 0xb
 6992 020d 49       		.uleb128 0x49
 6993 020e 13       		.uleb128 0x13
 6994 020f 02       		.uleb128 0x2
 6995 0210 17       		.uleb128 0x17
 6996 0211 00       		.byte	0
 6997 0212 00       		.byte	0
 6998 0213 2A       		.uleb128 0x2a
 6999 0214 34       		.uleb128 0x34
 7000 0215 00       		.byte	0
 7001 0216 03       		.uleb128 0x3
 7002 0217 0E       		.uleb128 0xe
 7003 0218 3A       		.uleb128 0x3a
 7004 0219 0B       		.uleb128 0xb
 7005 021a 3B       		.uleb128 0x3b
 7006 021b 0B       		.uleb128 0xb
 7007 021c 49       		.uleb128 0x49
 7008 021d 13       		.uleb128 0x13
 7009 021e 00       		.byte	0
 7010 021f 00       		.byte	0
 7011 0220 2B       		.uleb128 0x2b
 7012 0221 2E       		.uleb128 0x2e
 7013 0222 01       		.byte	0x1
 7014 0223 3F       		.uleb128 0x3f
 7015 0224 19       		.uleb128 0x19
 7016 0225 03       		.uleb128 0x3
 7017 0226 0E       		.uleb128 0xe
 7018 0227 3A       		.uleb128 0x3a
 7019 0228 0B       		.uleb128 0xb
 7020 0229 3B       		.uleb128 0x3b
 7021 022a 0B       		.uleb128 0xb
 7022 022b 27       		.uleb128 0x27
 7023 022c 19       		.uleb128 0x19
ARM GAS  C:\Users\student\AppData\Local\Temp\cc7xlRSM.s 			page 138


 7024 022d 11       		.uleb128 0x11
 7025 022e 01       		.uleb128 0x1
 7026 022f 12       		.uleb128 0x12
 7027 0230 06       		.uleb128 0x6
 7028 0231 40       		.uleb128 0x40
 7029 0232 18       		.uleb128 0x18
 7030 0233 9642     		.uleb128 0x2116
 7031 0235 19       		.uleb128 0x19
 7032 0236 01       		.uleb128 0x1
 7033 0237 13       		.uleb128 0x13
 7034 0238 00       		.byte	0
 7035 0239 00       		.byte	0
 7036 023a 2C       		.uleb128 0x2c
 7037 023b 05       		.uleb128 0x5
 7038 023c 00       		.byte	0
 7039 023d 03       		.uleb128 0x3
 7040 023e 08       		.uleb128 0x8
 7041 023f 3A       		.uleb128 0x3a
 7042 0240 0B       		.uleb128 0xb
 7043 0241 3B       		.uleb128 0x3b
 7044 0242 0B       		.uleb128 0xb
 7045 0243 49       		.uleb128 0x49
 7046 0244 13       		.uleb128 0x13
 7047 0245 02       		.uleb128 0x2
 7048 0246 17       		.uleb128 0x17
 7049 0247 00       		.byte	0
 7050 0248 00       		.byte	0
 7051 0249 2D       		.uleb128 0x2d
 7052 024a 2E       		.uleb128 0x2e
 7053 024b 01       		.byte	0x1
 7054 024c 3F       		.uleb128 0x3f
 7055 024d 19       		.uleb128 0x19
 7056 024e 03       		.uleb128 0x3
 7057 024f 0E       		.uleb128 0xe
 7058 0250 3A       		.uleb128 0x3a
 7059 0251 0B       		.uleb128 0xb
 7060 0252 3B       		.uleb128 0x3b
 7061 0253 0B       		.uleb128 0xb
 7062 0254 11       		.uleb128 0x11
 7063 0255 01       		.uleb128 0x1
 7064 0256 12       		.uleb128 0x12
 7065 0257 06       		.uleb128 0x6
 7066 0258 40       		.uleb128 0x40
 7067 0259 18       		.uleb128 0x18
 7068 025a 9742     		.uleb128 0x2117
 7069 025c 19       		.uleb128 0x19
 7070 025d 01       		.uleb128 0x1
 7071 025e 13       		.uleb128 0x13
 7072 025f 00       		.byte	0
 7073 0260 00       		.byte	0
 7074 0261 2E       		.uleb128 0x2e
 7075 0262 34       		.uleb128 0x34
 7076 0263 00       		.byte	0
 7077 0264 03       		.uleb128 0x3
 7078 0265 0E       		.uleb128 0xe
 7079 0266 3A       		.uleb128 0x3a
 7080 0267 0B       		.uleb128 0xb
ARM GAS  C:\Users\student\AppData\Local\Temp\cc7xlRSM.s 			page 139


 7081 0268 3B       		.uleb128 0x3b
 7082 0269 0B       		.uleb128 0xb
 7083 026a 49       		.uleb128 0x49
 7084 026b 13       		.uleb128 0x13
 7085 026c 02       		.uleb128 0x2
 7086 026d 18       		.uleb128 0x18
 7087 026e 00       		.byte	0
 7088 026f 00       		.byte	0
 7089 0270 2F       		.uleb128 0x2f
 7090 0271 898201   		.uleb128 0x4109
 7091 0274 01       		.byte	0x1
 7092 0275 11       		.uleb128 0x11
 7093 0276 01       		.uleb128 0x1
 7094 0277 31       		.uleb128 0x31
 7095 0278 13       		.uleb128 0x13
 7096 0279 00       		.byte	0
 7097 027a 00       		.byte	0
 7098 027b 30       		.uleb128 0x30
 7099 027c 34       		.uleb128 0x34
 7100 027d 00       		.byte	0
 7101 027e 03       		.uleb128 0x3
 7102 027f 08       		.uleb128 0x8
 7103 0280 3A       		.uleb128 0x3a
 7104 0281 0B       		.uleb128 0xb
 7105 0282 3B       		.uleb128 0x3b
 7106 0283 05       		.uleb128 0x5
 7107 0284 49       		.uleb128 0x49
 7108 0285 13       		.uleb128 0x13
 7109 0286 02       		.uleb128 0x2
 7110 0287 18       		.uleb128 0x18
 7111 0288 00       		.byte	0
 7112 0289 00       		.byte	0
 7113 028a 31       		.uleb128 0x31
 7114 028b 34       		.uleb128 0x34
 7115 028c 00       		.byte	0
 7116 028d 03       		.uleb128 0x3
 7117 028e 0E       		.uleb128 0xe
 7118 028f 3A       		.uleb128 0x3a
 7119 0290 0B       		.uleb128 0xb
 7120 0291 3B       		.uleb128 0x3b
 7121 0292 05       		.uleb128 0x5
 7122 0293 49       		.uleb128 0x49
 7123 0294 13       		.uleb128 0x13
 7124 0295 02       		.uleb128 0x2
 7125 0296 18       		.uleb128 0x18
 7126 0297 00       		.byte	0
 7127 0298 00       		.byte	0
 7128 0299 32       		.uleb128 0x32
 7129 029a 34       		.uleb128 0x34
 7130 029b 00       		.byte	0
 7131 029c 03       		.uleb128 0x3
 7132 029d 08       		.uleb128 0x8
 7133 029e 3A       		.uleb128 0x3a
 7134 029f 0B       		.uleb128 0xb
 7135 02a0 3B       		.uleb128 0x3b
 7136 02a1 05       		.uleb128 0x5
 7137 02a2 49       		.uleb128 0x49
ARM GAS  C:\Users\student\AppData\Local\Temp\cc7xlRSM.s 			page 140


 7138 02a3 13       		.uleb128 0x13
 7139 02a4 00       		.byte	0
 7140 02a5 00       		.byte	0
 7141 02a6 33       		.uleb128 0x33
 7142 02a7 0B       		.uleb128 0xb
 7143 02a8 01       		.byte	0x1
 7144 02a9 11       		.uleb128 0x11
 7145 02aa 01       		.uleb128 0x1
 7146 02ab 12       		.uleb128 0x12
 7147 02ac 06       		.uleb128 0x6
 7148 02ad 01       		.uleb128 0x1
 7149 02ae 13       		.uleb128 0x13
 7150 02af 00       		.byte	0
 7151 02b0 00       		.byte	0
 7152 02b1 34       		.uleb128 0x34
 7153 02b2 2E       		.uleb128 0x2e
 7154 02b3 01       		.byte	0x1
 7155 02b4 3F       		.uleb128 0x3f
 7156 02b5 19       		.uleb128 0x19
 7157 02b6 03       		.uleb128 0x3
 7158 02b7 0E       		.uleb128 0xe
 7159 02b8 3A       		.uleb128 0x3a
 7160 02b9 0B       		.uleb128 0xb
 7161 02ba 3B       		.uleb128 0x3b
 7162 02bb 05       		.uleb128 0x5
 7163 02bc 11       		.uleb128 0x11
 7164 02bd 01       		.uleb128 0x1
 7165 02be 12       		.uleb128 0x12
 7166 02bf 06       		.uleb128 0x6
 7167 02c0 40       		.uleb128 0x40
 7168 02c1 18       		.uleb128 0x18
 7169 02c2 9642     		.uleb128 0x2116
 7170 02c4 19       		.uleb128 0x19
 7171 02c5 01       		.uleb128 0x1
 7172 02c6 13       		.uleb128 0x13
 7173 02c7 00       		.byte	0
 7174 02c8 00       		.byte	0
 7175 02c9 35       		.uleb128 0x35
 7176 02ca 05       		.uleb128 0x5
 7177 02cb 00       		.byte	0
 7178 02cc 03       		.uleb128 0x3
 7179 02cd 08       		.uleb128 0x8
 7180 02ce 3A       		.uleb128 0x3a
 7181 02cf 0B       		.uleb128 0xb
 7182 02d0 3B       		.uleb128 0x3b
 7183 02d1 05       		.uleb128 0x5
 7184 02d2 49       		.uleb128 0x49
 7185 02d3 13       		.uleb128 0x13
 7186 02d4 02       		.uleb128 0x2
 7187 02d5 17       		.uleb128 0x17
 7188 02d6 00       		.byte	0
 7189 02d7 00       		.byte	0
 7190 02d8 36       		.uleb128 0x36
 7191 02d9 05       		.uleb128 0x5
 7192 02da 00       		.byte	0
 7193 02db 03       		.uleb128 0x3
 7194 02dc 0E       		.uleb128 0xe
ARM GAS  C:\Users\student\AppData\Local\Temp\cc7xlRSM.s 			page 141


 7195 02dd 3A       		.uleb128 0x3a
 7196 02de 0B       		.uleb128 0xb
 7197 02df 3B       		.uleb128 0x3b
 7198 02e0 05       		.uleb128 0x5
 7199 02e1 49       		.uleb128 0x49
 7200 02e2 13       		.uleb128 0x13
 7201 02e3 02       		.uleb128 0x2
 7202 02e4 17       		.uleb128 0x17
 7203 02e5 00       		.byte	0
 7204 02e6 00       		.byte	0
 7205 02e7 37       		.uleb128 0x37
 7206 02e8 2E       		.uleb128 0x2e
 7207 02e9 01       		.byte	0x1
 7208 02ea 3F       		.uleb128 0x3f
 7209 02eb 19       		.uleb128 0x19
 7210 02ec 03       		.uleb128 0x3
 7211 02ed 0E       		.uleb128 0xe
 7212 02ee 3A       		.uleb128 0x3a
 7213 02ef 0B       		.uleb128 0xb
 7214 02f0 3B       		.uleb128 0x3b
 7215 02f1 05       		.uleb128 0x5
 7216 02f2 49       		.uleb128 0x49
 7217 02f3 13       		.uleb128 0x13
 7218 02f4 11       		.uleb128 0x11
 7219 02f5 01       		.uleb128 0x1
 7220 02f6 12       		.uleb128 0x12
 7221 02f7 06       		.uleb128 0x6
 7222 02f8 40       		.uleb128 0x40
 7223 02f9 18       		.uleb128 0x18
 7224 02fa 9642     		.uleb128 0x2116
 7225 02fc 19       		.uleb128 0x19
 7226 02fd 01       		.uleb128 0x1
 7227 02fe 13       		.uleb128 0x13
 7228 02ff 00       		.byte	0
 7229 0300 00       		.byte	0
 7230 0301 38       		.uleb128 0x38
 7231 0302 34       		.uleb128 0x34
 7232 0303 00       		.byte	0
 7233 0304 03       		.uleb128 0x3
 7234 0305 0E       		.uleb128 0xe
 7235 0306 3A       		.uleb128 0x3a
 7236 0307 0B       		.uleb128 0xb
 7237 0308 3B       		.uleb128 0x3b
 7238 0309 05       		.uleb128 0x5
 7239 030a 49       		.uleb128 0x49
 7240 030b 13       		.uleb128 0x13
 7241 030c 00       		.byte	0
 7242 030d 00       		.byte	0
 7243 030e 39       		.uleb128 0x39
 7244 030f 34       		.uleb128 0x34
 7245 0310 00       		.byte	0
 7246 0311 03       		.uleb128 0x3
 7247 0312 0E       		.uleb128 0xe
 7248 0313 3A       		.uleb128 0x3a
 7249 0314 0B       		.uleb128 0xb
 7250 0315 3B       		.uleb128 0x3b
 7251 0316 05       		.uleb128 0x5
ARM GAS  C:\Users\student\AppData\Local\Temp\cc7xlRSM.s 			page 142


 7252 0317 49       		.uleb128 0x49
 7253 0318 13       		.uleb128 0x13
 7254 0319 3F       		.uleb128 0x3f
 7255 031a 19       		.uleb128 0x19
 7256 031b 3C       		.uleb128 0x3c
 7257 031c 19       		.uleb128 0x19
 7258 031d 00       		.byte	0
 7259 031e 00       		.byte	0
 7260 031f 3A       		.uleb128 0x3a
 7261 0320 34       		.uleb128 0x34
 7262 0321 00       		.byte	0
 7263 0322 03       		.uleb128 0x3
 7264 0323 0E       		.uleb128 0xe
 7265 0324 3A       		.uleb128 0x3a
 7266 0325 0B       		.uleb128 0xb
 7267 0326 3B       		.uleb128 0x3b
 7268 0327 0B       		.uleb128 0xb
 7269 0328 49       		.uleb128 0x49
 7270 0329 13       		.uleb128 0x13
 7271 032a 3F       		.uleb128 0x3f
 7272 032b 19       		.uleb128 0x19
 7273 032c 02       		.uleb128 0x2
 7274 032d 18       		.uleb128 0x18
 7275 032e 00       		.byte	0
 7276 032f 00       		.byte	0
 7277 0330 3B       		.uleb128 0x3b
 7278 0331 21       		.uleb128 0x21
 7279 0332 00       		.byte	0
 7280 0333 49       		.uleb128 0x49
 7281 0334 13       		.uleb128 0x13
 7282 0335 2F       		.uleb128 0x2f
 7283 0336 05       		.uleb128 0x5
 7284 0337 00       		.byte	0
 7285 0338 00       		.byte	0
 7286 0339 3C       		.uleb128 0x3c
 7287 033a 2E       		.uleb128 0x2e
 7288 033b 01       		.byte	0x1
 7289 033c 3F       		.uleb128 0x3f
 7290 033d 19       		.uleb128 0x19
 7291 033e 03       		.uleb128 0x3
 7292 033f 0E       		.uleb128 0xe
 7293 0340 3A       		.uleb128 0x3a
 7294 0341 0B       		.uleb128 0xb
 7295 0342 3B       		.uleb128 0x3b
 7296 0343 05       		.uleb128 0x5
 7297 0344 27       		.uleb128 0x27
 7298 0345 19       		.uleb128 0x19
 7299 0346 3C       		.uleb128 0x3c
 7300 0347 19       		.uleb128 0x19
 7301 0348 01       		.uleb128 0x1
 7302 0349 13       		.uleb128 0x13
 7303 034a 00       		.byte	0
 7304 034b 00       		.byte	0
 7305 034c 3D       		.uleb128 0x3d
 7306 034d 2E       		.uleb128 0x2e
 7307 034e 01       		.byte	0x1
 7308 034f 3F       		.uleb128 0x3f
ARM GAS  C:\Users\student\AppData\Local\Temp\cc7xlRSM.s 			page 143


 7309 0350 19       		.uleb128 0x19
 7310 0351 03       		.uleb128 0x3
 7311 0352 0E       		.uleb128 0xe
 7312 0353 3A       		.uleb128 0x3a
 7313 0354 0B       		.uleb128 0xb
 7314 0355 3B       		.uleb128 0x3b
 7315 0356 0B       		.uleb128 0xb
 7316 0357 27       		.uleb128 0x27
 7317 0358 19       		.uleb128 0x19
 7318 0359 49       		.uleb128 0x49
 7319 035a 13       		.uleb128 0x13
 7320 035b 3C       		.uleb128 0x3c
 7321 035c 19       		.uleb128 0x19
 7322 035d 01       		.uleb128 0x1
 7323 035e 13       		.uleb128 0x13
 7324 035f 00       		.byte	0
 7325 0360 00       		.byte	0
 7326 0361 3E       		.uleb128 0x3e
 7327 0362 18       		.uleb128 0x18
 7328 0363 00       		.byte	0
 7329 0364 00       		.byte	0
 7330 0365 00       		.byte	0
 7331 0366 3F       		.uleb128 0x3f
 7332 0367 2E       		.uleb128 0x2e
 7333 0368 00       		.byte	0
 7334 0369 3F       		.uleb128 0x3f
 7335 036a 19       		.uleb128 0x19
 7336 036b 03       		.uleb128 0x3
 7337 036c 0E       		.uleb128 0xe
 7338 036d 3A       		.uleb128 0x3a
 7339 036e 0B       		.uleb128 0xb
 7340 036f 3B       		.uleb128 0x3b
 7341 0370 0B       		.uleb128 0xb
 7342 0371 27       		.uleb128 0x27
 7343 0372 19       		.uleb128 0x19
 7344 0373 49       		.uleb128 0x49
 7345 0374 13       		.uleb128 0x13
 7346 0375 3C       		.uleb128 0x3c
 7347 0376 19       		.uleb128 0x19
 7348 0377 00       		.byte	0
 7349 0378 00       		.byte	0
 7350 0379 40       		.uleb128 0x40
 7351 037a 2E       		.uleb128 0x2e
 7352 037b 00       		.byte	0
 7353 037c 3F       		.uleb128 0x3f
 7354 037d 19       		.uleb128 0x19
 7355 037e 03       		.uleb128 0x3
 7356 037f 0E       		.uleb128 0xe
 7357 0380 3A       		.uleb128 0x3a
 7358 0381 0B       		.uleb128 0xb
 7359 0382 3B       		.uleb128 0x3b
 7360 0383 0B       		.uleb128 0xb
 7361 0384 27       		.uleb128 0x27
 7362 0385 19       		.uleb128 0x19
 7363 0386 3C       		.uleb128 0x3c
 7364 0387 19       		.uleb128 0x19
 7365 0388 00       		.byte	0
ARM GAS  C:\Users\student\AppData\Local\Temp\cc7xlRSM.s 			page 144


 7366 0389 00       		.byte	0
 7367 038a 41       		.uleb128 0x41
 7368 038b 2E       		.uleb128 0x2e
 7369 038c 00       		.byte	0
 7370 038d 3F       		.uleb128 0x3f
 7371 038e 19       		.uleb128 0x19
 7372 038f 03       		.uleb128 0x3
 7373 0390 0E       		.uleb128 0xe
 7374 0391 3A       		.uleb128 0x3a
 7375 0392 0B       		.uleb128 0xb
 7376 0393 3B       		.uleb128 0x3b
 7377 0394 05       		.uleb128 0x5
 7378 0395 27       		.uleb128 0x27
 7379 0396 19       		.uleb128 0x19
 7380 0397 49       		.uleb128 0x49
 7381 0398 13       		.uleb128 0x13
 7382 0399 3C       		.uleb128 0x3c
 7383 039a 19       		.uleb128 0x19
 7384 039b 00       		.byte	0
 7385 039c 00       		.byte	0
 7386 039d 42       		.uleb128 0x42
 7387 039e 2E       		.uleb128 0x2e
 7388 039f 00       		.byte	0
 7389 03a0 3F       		.uleb128 0x3f
 7390 03a1 19       		.uleb128 0x19
 7391 03a2 03       		.uleb128 0x3
 7392 03a3 0E       		.uleb128 0xe
 7393 03a4 3A       		.uleb128 0x3a
 7394 03a5 0B       		.uleb128 0xb
 7395 03a6 3B       		.uleb128 0x3b
 7396 03a7 05       		.uleb128 0x5
 7397 03a8 27       		.uleb128 0x27
 7398 03a9 19       		.uleb128 0x19
 7399 03aa 3C       		.uleb128 0x3c
 7400 03ab 19       		.uleb128 0x19
 7401 03ac 00       		.byte	0
 7402 03ad 00       		.byte	0
 7403 03ae 43       		.uleb128 0x43
 7404 03af 2E       		.uleb128 0x2e
 7405 03b0 01       		.byte	0x1
 7406 03b1 3F       		.uleb128 0x3f
 7407 03b2 19       		.uleb128 0x19
 7408 03b3 03       		.uleb128 0x3
 7409 03b4 0E       		.uleb128 0xe
 7410 03b5 3A       		.uleb128 0x3a
 7411 03b6 0B       		.uleb128 0xb
 7412 03b7 3B       		.uleb128 0x3b
 7413 03b8 05       		.uleb128 0x5
 7414 03b9 27       		.uleb128 0x27
 7415 03ba 19       		.uleb128 0x19
 7416 03bb 49       		.uleb128 0x49
 7417 03bc 13       		.uleb128 0x13
 7418 03bd 3C       		.uleb128 0x3c
 7419 03be 19       		.uleb128 0x19
 7420 03bf 01       		.uleb128 0x1
 7421 03c0 13       		.uleb128 0x13
 7422 03c1 00       		.byte	0
ARM GAS  C:\Users\student\AppData\Local\Temp\cc7xlRSM.s 			page 145


 7423 03c2 00       		.byte	0
 7424 03c3 44       		.uleb128 0x44
 7425 03c4 2E       		.uleb128 0x2e
 7426 03c5 01       		.byte	0x1
 7427 03c6 3F       		.uleb128 0x3f
 7428 03c7 19       		.uleb128 0x19
 7429 03c8 03       		.uleb128 0x3
 7430 03c9 0E       		.uleb128 0xe
 7431 03ca 3A       		.uleb128 0x3a
 7432 03cb 0B       		.uleb128 0xb
 7433 03cc 3B       		.uleb128 0x3b
 7434 03cd 0B       		.uleb128 0xb
 7435 03ce 6E       		.uleb128 0x6e
 7436 03cf 0E       		.uleb128 0xe
 7437 03d0 27       		.uleb128 0x27
 7438 03d1 19       		.uleb128 0x19
 7439 03d2 49       		.uleb128 0x49
 7440 03d3 13       		.uleb128 0x13
 7441 03d4 3C       		.uleb128 0x3c
 7442 03d5 19       		.uleb128 0x19
 7443 03d6 01       		.uleb128 0x1
 7444 03d7 13       		.uleb128 0x13
 7445 03d8 00       		.byte	0
 7446 03d9 00       		.byte	0
 7447 03da 45       		.uleb128 0x45
 7448 03db 2E       		.uleb128 0x2e
 7449 03dc 01       		.byte	0x1
 7450 03dd 3F       		.uleb128 0x3f
 7451 03de 19       		.uleb128 0x19
 7452 03df 03       		.uleb128 0x3
 7453 03e0 0E       		.uleb128 0xe
 7454 03e1 3A       		.uleb128 0x3a
 7455 03e2 0B       		.uleb128 0xb
 7456 03e3 3B       		.uleb128 0x3b
 7457 03e4 0B       		.uleb128 0xb
 7458 03e5 27       		.uleb128 0x27
 7459 03e6 19       		.uleb128 0x19
 7460 03e7 3C       		.uleb128 0x3c
 7461 03e8 19       		.uleb128 0x19
 7462 03e9 01       		.uleb128 0x1
 7463 03ea 13       		.uleb128 0x13
 7464 03eb 00       		.byte	0
 7465 03ec 00       		.byte	0
 7466 03ed 46       		.uleb128 0x46
 7467 03ee 2E       		.uleb128 0x2e
 7468 03ef 01       		.byte	0x1
 7469 03f0 3F       		.uleb128 0x3f
 7470 03f1 19       		.uleb128 0x19
 7471 03f2 03       		.uleb128 0x3
 7472 03f3 0E       		.uleb128 0xe
 7473 03f4 3A       		.uleb128 0x3a
 7474 03f5 0B       		.uleb128 0xb
 7475 03f6 3B       		.uleb128 0x3b
 7476 03f7 0B       		.uleb128 0xb
 7477 03f8 27       		.uleb128 0x27
 7478 03f9 19       		.uleb128 0x19
 7479 03fa 3C       		.uleb128 0x3c
ARM GAS  C:\Users\student\AppData\Local\Temp\cc7xlRSM.s 			page 146


 7480 03fb 19       		.uleb128 0x19
 7481 03fc 00       		.byte	0
 7482 03fd 00       		.byte	0
 7483 03fe 00       		.byte	0
 7484              		.section	.debug_loc,"",%progbits
 7485              	.Ldebug_loc0:
 7486              	.LLST0:
 7487 0000 1C000000 		.4byte	.LVL1
 7488 0004 3F000000 		.4byte	.LVL3-1
 7489 0008 0100     		.2byte	0x1
 7490 000a 52       		.byte	0x52
 7491 000b 00000000 		.4byte	0
 7492 000f 00000000 		.4byte	0
 7493              	.LLST1:
 7494 0013 32000000 		.4byte	.LVL2
 7495 0017 3F000000 		.4byte	.LVL3-1
 7496 001b 0100     		.2byte	0x1
 7497 001d 53       		.byte	0x53
 7498 001e 00000000 		.4byte	0
 7499 0022 00000000 		.4byte	0
 7500              	.LLST2:
 7501 0026 14000000 		.4byte	.LVL8
 7502 002a 19000000 		.4byte	.LVL9-1
 7503 002e 0100     		.2byte	0x1
 7504 0030 50       		.byte	0x50
 7505 0031 00000000 		.4byte	0
 7506 0035 00000000 		.4byte	0
 7507              	.LLST3:
 7508 0039 3E000000 		.4byte	.LVL15
 7509 003d 40000000 		.4byte	.LVL16
 7510 0041 0100     		.2byte	0x1
 7511 0043 50       		.byte	0x50
 7512 0044 00000000 		.4byte	0
 7513 0048 00000000 		.4byte	0
 7514              	.LLST4:
 7515 004c 00000000 		.4byte	.LVL30
 7516 0050 38000000 		.4byte	.LVL38
 7517 0054 0100     		.2byte	0x1
 7518 0056 50       		.byte	0x50
 7519 0057 38000000 		.4byte	.LVL38
 7520 005b A4000000 		.4byte	.LFE63
 7521 005f 0400     		.2byte	0x4
 7522 0061 F3       		.byte	0xf3
 7523 0062 01       		.uleb128 0x1
 7524 0063 50       		.byte	0x50
 7525 0064 9F       		.byte	0x9f
 7526 0065 00000000 		.4byte	0
 7527 0069 00000000 		.4byte	0
 7528              	.LLST5:
 7529 006d 00000000 		.4byte	.LVL30
 7530 0071 3B000000 		.4byte	.LVL39-1
 7531 0075 0100     		.2byte	0x1
 7532 0077 51       		.byte	0x51
 7533 0078 3B000000 		.4byte	.LVL39-1
 7534 007c A4000000 		.4byte	.LFE63
 7535 0080 0400     		.2byte	0x4
 7536 0082 F3       		.byte	0xf3
ARM GAS  C:\Users\student\AppData\Local\Temp\cc7xlRSM.s 			page 147


 7537 0083 01       		.uleb128 0x1
 7538 0084 51       		.byte	0x51
 7539 0085 9F       		.byte	0x9f
 7540 0086 00000000 		.4byte	0
 7541 008a 00000000 		.4byte	0
 7542              	.LLST6:
 7543 008e 00000000 		.4byte	.LVL30
 7544 0092 0A000000 		.4byte	.LVL32
 7545 0096 0100     		.2byte	0x1
 7546 0098 52       		.byte	0x52
 7547 0099 0A000000 		.4byte	.LVL32
 7548 009d A4000000 		.4byte	.LFE63
 7549 00a1 0400     		.2byte	0x4
 7550 00a3 F3       		.byte	0xf3
 7551 00a4 01       		.uleb128 0x1
 7552 00a5 52       		.byte	0x52
 7553 00a6 9F       		.byte	0x9f
 7554 00a7 00000000 		.4byte	0
 7555 00ab 00000000 		.4byte	0
 7556              	.LLST7:
 7557 00af 04000000 		.4byte	.LVL31
 7558 00b3 0A000000 		.4byte	.LVL32
 7559 00b7 0200     		.2byte	0x2
 7560 00b9 30       		.byte	0x30
 7561 00ba 9F       		.byte	0x9f
 7562 00bb 0A000000 		.4byte	.LVL32
 7563 00bf 20000000 		.4byte	.LVL35
 7564 00c3 0100     		.2byte	0x1
 7565 00c5 54       		.byte	0x54
 7566 00c6 00000000 		.4byte	0
 7567 00ca 00000000 		.4byte	0
 7568              	.LLST8:
 7569 00ce 04000000 		.4byte	.LVL31
 7570 00d2 0A000000 		.4byte	.LVL32
 7571 00d6 0200     		.2byte	0x2
 7572 00d8 30       		.byte	0x30
 7573 00d9 9F       		.byte	0x9f
 7574 00da 0A000000 		.4byte	.LVL32
 7575 00de 3B000000 		.4byte	.LVL39-1
 7576 00e2 0100     		.2byte	0x1
 7577 00e4 53       		.byte	0x53
 7578 00e5 00000000 		.4byte	0
 7579 00e9 00000000 		.4byte	0
 7580              	.LLST9:
 7581 00ed 20000000 		.4byte	.LVL35
 7582 00f1 24000000 		.4byte	.LVL36
 7583 00f5 0100     		.2byte	0x1
 7584 00f7 54       		.byte	0x54
 7585 00f8 00000000 		.4byte	0
 7586 00fc 00000000 		.4byte	0
 7587              	.LLST10:
 7588 0100 34000000 		.4byte	.LVL37
 7589 0104 84000000 		.4byte	.LVL48
 7590 0108 0100     		.2byte	0x1
 7591 010a 54       		.byte	0x54
 7592 010b 00000000 		.4byte	0
 7593 010f 00000000 		.4byte	0
ARM GAS  C:\Users\student\AppData\Local\Temp\cc7xlRSM.s 			page 148


 7594              	.LLST11:
 7595 0113 48000000 		.4byte	.LVL40
 7596 0117 50000000 		.4byte	.LVL41
 7597 011b 0500     		.2byte	0x5
 7598 011d 76       		.byte	0x76
 7599 011e 00       		.sleb128 0
 7600 011f 3E       		.byte	0x3e
 7601 0120 25       		.byte	0x25
 7602 0121 9F       		.byte	0x9f
 7603 0122 00000000 		.4byte	0
 7604 0126 00000000 		.4byte	0
 7605              	.LLST12:
 7606 012a 54000000 		.4byte	.LVL42
 7607 012e 9C000000 		.4byte	.LVL51
 7608 0132 0100     		.2byte	0x1
 7609 0134 56       		.byte	0x56
 7610 0135 00000000 		.4byte	0
 7611 0139 00000000 		.4byte	0
 7612              	.LLST13:
 7613 013d 5E000000 		.4byte	.LVL43
 7614 0141 6C000000 		.4byte	.LVL45
 7615 0145 0300     		.2byte	0x3
 7616 0147 08       		.byte	0x8
 7617 0148 3C       		.byte	0x3c
 7618 0149 9F       		.byte	0x9f
 7619 014a 74000000 		.4byte	.LVL46
 7620 014e 80000000 		.4byte	.LVL47
 7621 0152 0300     		.2byte	0x3
 7622 0154 08       		.byte	0x8
 7623 0155 B4       		.byte	0xb4
 7624 0156 9F       		.byte	0x9f
 7625 0157 80000000 		.4byte	.LVL47
 7626 015b 94000000 		.4byte	.LVL49
 7627 015f 0100     		.2byte	0x1
 7628 0161 52       		.byte	0x52
 7629 0162 00000000 		.4byte	0
 7630 0166 00000000 		.4byte	0
 7631              	.LLST14:
 7632 016a 00000000 		.4byte	.LVL52
 7633 016e 08000000 		.4byte	.LVL53
 7634 0172 0100     		.2byte	0x1
 7635 0174 50       		.byte	0x50
 7636 0175 08000000 		.4byte	.LVL53
 7637 0179 34000000 		.4byte	.LVL61
 7638 017d 0100     		.2byte	0x1
 7639 017f 54       		.byte	0x54
 7640 0180 34000000 		.4byte	.LVL61
 7641 0184 38000000 		.4byte	.LFE64
 7642 0188 0400     		.2byte	0x4
 7643 018a F3       		.byte	0xf3
 7644 018b 01       		.uleb128 0x1
 7645 018c 50       		.byte	0x50
 7646 018d 9F       		.byte	0x9f
 7647 018e 00000000 		.4byte	0
 7648 0192 00000000 		.4byte	0
 7649              	.LLST15:
 7650 0196 00000000 		.4byte	.LVL52
ARM GAS  C:\Users\student\AppData\Local\Temp\cc7xlRSM.s 			page 149


 7651 019a 0F000000 		.4byte	.LVL55-1
 7652 019e 0100     		.2byte	0x1
 7653 01a0 51       		.byte	0x51
 7654 01a1 0F000000 		.4byte	.LVL55-1
 7655 01a5 34000000 		.4byte	.LVL61
 7656 01a9 0100     		.2byte	0x1
 7657 01ab 55       		.byte	0x55
 7658 01ac 34000000 		.4byte	.LVL61
 7659 01b0 38000000 		.4byte	.LFE64
 7660 01b4 0600     		.2byte	0x6
 7661 01b6 F3       		.byte	0xf3
 7662 01b7 03       		.uleb128 0x3
 7663 01b8 F5       		.byte	0xf5
 7664 01b9 01       		.uleb128 0x1
 7665 01ba 25       		.uleb128 0x25
 7666 01bb 9F       		.byte	0x9f
 7667 01bc 00000000 		.4byte	0
 7668 01c0 00000000 		.4byte	0
 7669              	.LLST16:
 7670 01c4 08000000 		.4byte	.LVL53
 7671 01c8 0C000000 		.4byte	.LVL54
 7672 01cc 0500     		.2byte	0x5
 7673 01ce 70       		.byte	0x70
 7674 01cf 80807E   		.sleb128 -32768
 7675 01d2 9F       		.byte	0x9f
 7676 01d3 0C000000 		.4byte	.LVL54
 7677 01d7 0F000000 		.4byte	.LVL55-1
 7678 01db 0100     		.2byte	0x1
 7679 01dd 50       		.byte	0x50
 7680 01de 1A000000 		.4byte	.LVL57
 7681 01e2 30000000 		.4byte	.LVL60
 7682 01e6 0100     		.2byte	0x1
 7683 01e8 50       		.byte	0x50
 7684 01e9 30000000 		.4byte	.LVL60
 7685 01ed 38000000 		.4byte	.LFE64
 7686 01f1 0500     		.2byte	0x5
 7687 01f3 70       		.byte	0x70
 7688 01f4 808002   		.sleb128 32768
 7689 01f7 9F       		.byte	0x9f
 7690 01f8 00000000 		.4byte	0
 7691 01fc 00000000 		.4byte	0
 7692              	.LLST17:
 7693 0200 00000000 		.4byte	.LVL62
 7694 0204 0C000000 		.4byte	.LVL63
 7695 0208 0100     		.2byte	0x1
 7696 020a 50       		.byte	0x50
 7697 020b 0C000000 		.4byte	.LVL63
 7698 020f DC000000 		.4byte	.LVL98
 7699 0213 0100     		.2byte	0x1
 7700 0215 54       		.byte	0x54
 7701 0216 DC000000 		.4byte	.LVL98
 7702 021a E4000000 		.4byte	.LFE65
 7703 021e 0400     		.2byte	0x4
 7704 0220 F3       		.byte	0xf3
 7705 0221 01       		.uleb128 0x1
 7706 0222 50       		.byte	0x50
 7707 0223 9F       		.byte	0x9f
ARM GAS  C:\Users\student\AppData\Local\Temp\cc7xlRSM.s 			page 150


 7708 0224 00000000 		.4byte	0
 7709 0228 00000000 		.4byte	0
 7710              	.LLST18:
 7711 022c 00000000 		.4byte	.LVL62
 7712 0230 0E000000 		.4byte	.LVL64
 7713 0234 0100     		.2byte	0x1
 7714 0236 51       		.byte	0x51
 7715 0237 0E000000 		.4byte	.LVL64
 7716 023b 11000000 		.4byte	.LVL65-1
 7717 023f 0100     		.2byte	0x1
 7718 0241 50       		.byte	0x50
 7719 0242 11000000 		.4byte	.LVL65-1
 7720 0246 E4000000 		.4byte	.LFE65
 7721 024a 0600     		.2byte	0x6
 7722 024c F3       		.byte	0xf3
 7723 024d 03       		.uleb128 0x3
 7724 024e F5       		.byte	0xf5
 7725 024f 01       		.uleb128 0x1
 7726 0250 25       		.uleb128 0x25
 7727 0251 9F       		.byte	0x9f
 7728 0252 00000000 		.4byte	0
 7729 0256 00000000 		.4byte	0
 7730              	.LLST19:
 7731 025a 00000000 		.4byte	.LVL62
 7732 025e 11000000 		.4byte	.LVL65-1
 7733 0262 0100     		.2byte	0x1
 7734 0264 52       		.byte	0x52
 7735 0265 11000000 		.4byte	.LVL65-1
 7736 0269 1C000000 		.4byte	.LVL67
 7737 026d 0100     		.2byte	0x1
 7738 026f 55       		.byte	0x55
 7739 0270 1C000000 		.4byte	.LVL67
 7740 0274 E4000000 		.4byte	.LFE65
 7741 0278 0600     		.2byte	0x6
 7742 027a F3       		.byte	0xf3
 7743 027b 03       		.uleb128 0x3
 7744 027c F5       		.byte	0xf5
 7745 027d 02       		.uleb128 0x2
 7746 027e 25       		.uleb128 0x25
 7747 027f 9F       		.byte	0x9f
 7748 0280 00000000 		.4byte	0
 7749 0284 00000000 		.4byte	0
 7750              	.LLST20:
 7751 0288 00000000 		.4byte	.LVL62
 7752 028c 11000000 		.4byte	.LVL65-1
 7753 0290 0100     		.2byte	0x1
 7754 0292 53       		.byte	0x53
 7755 0293 11000000 		.4byte	.LVL65-1
 7756 0297 E4000000 		.4byte	.LFE65
 7757 029b 0400     		.2byte	0x4
 7758 029d F3       		.byte	0xf3
 7759 029e 01       		.uleb128 0x1
 7760 029f 53       		.byte	0x53
 7761 02a0 9F       		.byte	0x9f
 7762 02a1 00000000 		.4byte	0
 7763 02a5 00000000 		.4byte	0
 7764              	.LLST21:
ARM GAS  C:\Users\student\AppData\Local\Temp\cc7xlRSM.s 			page 151


 7765 02a9 1C000000 		.4byte	.LVL67
 7766 02ad 1E000000 		.4byte	.LVL68
 7767 02b1 0100     		.2byte	0x1
 7768 02b3 50       		.byte	0x50
 7769 02b4 1E000000 		.4byte	.LVL68
 7770 02b8 44000000 		.4byte	.LVL75
 7771 02bc 0100     		.2byte	0x1
 7772 02be 55       		.byte	0x55
 7773 02bf 60000000 		.4byte	.LVL80
 7774 02c3 6E000000 		.4byte	.LVL83
 7775 02c7 0100     		.2byte	0x1
 7776 02c9 55       		.byte	0x55
 7777 02ca 00000000 		.4byte	0
 7778 02ce 00000000 		.4byte	0
 7779              	.LLST22:
 7780 02d2 2C000000 		.4byte	.LVL71
 7781 02d6 30000000 		.4byte	.LVL72
 7782 02da 0100     		.2byte	0x1
 7783 02dc 50       		.byte	0x50
 7784 02dd 30000000 		.4byte	.LVL72
 7785 02e1 60000000 		.4byte	.LVL80
 7786 02e5 0100     		.2byte	0x1
 7787 02e7 57       		.byte	0x57
 7788 02e8 60000000 		.4byte	.LVL80
 7789 02ec 64000000 		.4byte	.LVL81
 7790 02f0 0100     		.2byte	0x1
 7791 02f2 50       		.byte	0x50
 7792 02f3 64000000 		.4byte	.LVL81
 7793 02f7 DC000000 		.4byte	.LVL98
 7794 02fb 0100     		.2byte	0x1
 7795 02fd 57       		.byte	0x57
 7796 02fe 00000000 		.4byte	0
 7797 0302 00000000 		.4byte	0
 7798              	.LLST23:
 7799 0306 5E000000 		.4byte	.LVL79
 7800 030a 60000000 		.4byte	.LVL80
 7801 030e 0100     		.2byte	0x1
 7802 0310 50       		.byte	0x50
 7803 0311 94000000 		.4byte	.LVL89
 7804 0315 98000000 		.4byte	.LVL90
 7805 0319 0100     		.2byte	0x1
 7806 031b 50       		.byte	0x50
 7807 031c 98000000 		.4byte	.LVL90
 7808 0320 B2000000 		.4byte	.LVL94
 7809 0324 0100     		.2byte	0x1
 7810 0326 55       		.byte	0x55
 7811 0327 B2000000 		.4byte	.LVL94
 7812 032b B7000000 		.4byte	.LVL95-1
 7813 032f 0100     		.2byte	0x1
 7814 0331 50       		.byte	0x50
 7815 0332 B7000000 		.4byte	.LVL95-1
 7816 0336 DC000000 		.4byte	.LVL98
 7817 033a 0100     		.2byte	0x1
 7818 033c 55       		.byte	0x55
 7819 033d 00000000 		.4byte	0
 7820 0341 00000000 		.4byte	0
 7821              	.LLST24:
ARM GAS  C:\Users\student\AppData\Local\Temp\cc7xlRSM.s 			page 152


 7822 0345 00000000 		.4byte	.LVL103
 7823 0349 0D000000 		.4byte	.LVL104-1
 7824 034d 0100     		.2byte	0x1
 7825 034f 50       		.byte	0x50
 7826 0350 0D000000 		.4byte	.LVL104-1
 7827 0354 1E020000 		.4byte	.LVL151
 7828 0358 0100     		.2byte	0x1
 7829 035a 54       		.byte	0x54
 7830 035b 1E020000 		.4byte	.LVL151
 7831 035f 50020000 		.4byte	.LFE67
 7832 0363 0400     		.2byte	0x4
 7833 0365 F3       		.byte	0xf3
 7834 0366 01       		.uleb128 0x1
 7835 0367 50       		.byte	0x50
 7836 0368 9F       		.byte	0x9f
 7837 0369 00000000 		.4byte	0
 7838 036d 00000000 		.4byte	0
 7839              	.LLST25:
 7840 0371 F4000000 		.4byte	.LVL117
 7841 0375 FC000000 		.4byte	.LVL118
 7842 0379 0800     		.2byte	0x8
 7843 037b 72       		.byte	0x72
 7844 037c 00       		.sleb128 0
 7845 037d 48       		.byte	0x48
 7846 037e 24       		.byte	0x24
 7847 037f 73       		.byte	0x73
 7848 0380 00       		.sleb128 0
 7849 0381 21       		.byte	0x21
 7850 0382 9F       		.byte	0x9f
 7851 0383 FC000000 		.4byte	.LVL118
 7852 0387 FF000000 		.4byte	.LVL119-1
 7853 038b 0100     		.2byte	0x1
 7854 038d 52       		.byte	0x52
 7855 038e 00000000 		.4byte	0
 7856 0392 00000000 		.4byte	0
 7857              	.LLST26:
 7858 0396 1C010000 		.4byte	.LVL122
 7859 039a 24010000 		.4byte	.LVL123
 7860 039e 0800     		.2byte	0x8
 7861 03a0 72       		.byte	0x72
 7862 03a1 00       		.sleb128 0
 7863 03a2 38       		.byte	0x38
 7864 03a3 24       		.byte	0x24
 7865 03a4 73       		.byte	0x73
 7866 03a5 00       		.sleb128 0
 7867 03a6 21       		.byte	0x21
 7868 03a7 9F       		.byte	0x9f
 7869 03a8 24010000 		.4byte	.LVL123
 7870 03ac 27010000 		.4byte	.LVL124-1
 7871 03b0 0D00     		.2byte	0xd
 7872 03b2 91       		.byte	0x91
 7873 03b3 71       		.sleb128 -15
 7874 03b4 94       		.byte	0x94
 7875 03b5 01       		.byte	0x1
 7876 03b6 08       		.byte	0x8
 7877 03b7 FF       		.byte	0xff
 7878 03b8 1A       		.byte	0x1a
ARM GAS  C:\Users\student\AppData\Local\Temp\cc7xlRSM.s 			page 153


 7879 03b9 38       		.byte	0x38
 7880 03ba 24       		.byte	0x24
 7881 03bb 73       		.byte	0x73
 7882 03bc 00       		.sleb128 0
 7883 03bd 21       		.byte	0x21
 7884 03be 9F       		.byte	0x9f
 7885 03bf 00000000 		.4byte	0
 7886 03c3 00000000 		.4byte	0
 7887              	.LLST27:
 7888 03c7 44010000 		.4byte	.LVL127
 7889 03cb 4C010000 		.4byte	.LVL128
 7890 03cf 0800     		.2byte	0x8
 7891 03d1 72       		.byte	0x72
 7892 03d2 00       		.sleb128 0
 7893 03d3 38       		.byte	0x38
 7894 03d4 24       		.byte	0x24
 7895 03d5 73       		.byte	0x73
 7896 03d6 00       		.sleb128 0
 7897 03d7 21       		.byte	0x21
 7898 03d8 9F       		.byte	0x9f
 7899 03d9 4C010000 		.4byte	.LVL128
 7900 03dd 4F010000 		.4byte	.LVL129-1
 7901 03e1 0D00     		.2byte	0xd
 7902 03e3 91       		.byte	0x91
 7903 03e4 71       		.sleb128 -15
 7904 03e5 94       		.byte	0x94
 7905 03e6 01       		.byte	0x1
 7906 03e7 08       		.byte	0x8
 7907 03e8 FF       		.byte	0xff
 7908 03e9 1A       		.byte	0x1a
 7909 03ea 38       		.byte	0x38
 7910 03eb 24       		.byte	0x24
 7911 03ec 73       		.byte	0x73
 7912 03ed 00       		.sleb128 0
 7913 03ee 21       		.byte	0x21
 7914 03ef 9F       		.byte	0x9f
 7915 03f0 00000000 		.4byte	0
 7916 03f4 00000000 		.4byte	0
 7917              	.LLST28:
 7918 03f8 7C010000 		.4byte	.LVL132
 7919 03fc 84010000 		.4byte	.LVL133
 7920 0400 0800     		.2byte	0x8
 7921 0402 72       		.byte	0x72
 7922 0403 00       		.sleb128 0
 7923 0404 48       		.byte	0x48
 7924 0405 24       		.byte	0x24
 7925 0406 73       		.byte	0x73
 7926 0407 00       		.sleb128 0
 7927 0408 21       		.byte	0x21
 7928 0409 9F       		.byte	0x9f
 7929 040a 84010000 		.4byte	.LVL133
 7930 040e 87010000 		.4byte	.LVL134-1
 7931 0412 0100     		.2byte	0x1
 7932 0414 52       		.byte	0x52
 7933 0415 00000000 		.4byte	0
 7934 0419 00000000 		.4byte	0
 7935              	.LLST29:
ARM GAS  C:\Users\student\AppData\Local\Temp\cc7xlRSM.s 			page 154


 7936 041d B4010000 		.4byte	.LVL137
 7937 0421 BC010000 		.4byte	.LVL138
 7938 0425 0800     		.2byte	0x8
 7939 0427 72       		.byte	0x72
 7940 0428 00       		.sleb128 0
 7941 0429 48       		.byte	0x48
 7942 042a 24       		.byte	0x24
 7943 042b 73       		.byte	0x73
 7944 042c 00       		.sleb128 0
 7945 042d 21       		.byte	0x21
 7946 042e 9F       		.byte	0x9f
 7947 042f BC010000 		.4byte	.LVL138
 7948 0433 BF010000 		.4byte	.LVL139-1
 7949 0437 0100     		.2byte	0x1
 7950 0439 52       		.byte	0x52
 7951 043a 00000000 		.4byte	0
 7952 043e 00000000 		.4byte	0
 7953              	.LLST30:
 7954 0442 DC010000 		.4byte	.LVL142
 7955 0446 E4010000 		.4byte	.LVL143
 7956 044a 0800     		.2byte	0x8
 7957 044c 72       		.byte	0x72
 7958 044d 00       		.sleb128 0
 7959 044e 38       		.byte	0x38
 7960 044f 24       		.byte	0x24
 7961 0450 73       		.byte	0x73
 7962 0451 00       		.sleb128 0
 7963 0452 21       		.byte	0x21
 7964 0453 9F       		.byte	0x9f
 7965 0454 E4010000 		.4byte	.LVL143
 7966 0458 E7010000 		.4byte	.LVL144-1
 7967 045c 0D00     		.2byte	0xd
 7968 045e 91       		.byte	0x91
 7969 045f 71       		.sleb128 -15
 7970 0460 94       		.byte	0x94
 7971 0461 01       		.byte	0x1
 7972 0462 08       		.byte	0x8
 7973 0463 FF       		.byte	0xff
 7974 0464 1A       		.byte	0x1a
 7975 0465 38       		.byte	0x38
 7976 0466 24       		.byte	0x24
 7977 0467 73       		.byte	0x73
 7978 0468 00       		.sleb128 0
 7979 0469 21       		.byte	0x21
 7980 046a 9F       		.byte	0x9f
 7981 046b 00000000 		.4byte	0
 7982 046f 00000000 		.4byte	0
 7983              	.LLST31:
 7984 0473 04020000 		.4byte	.LVL147
 7985 0477 0C020000 		.4byte	.LVL148
 7986 047b 0800     		.2byte	0x8
 7987 047d 72       		.byte	0x72
 7988 047e 00       		.sleb128 0
 7989 047f 38       		.byte	0x38
 7990 0480 24       		.byte	0x24
 7991 0481 73       		.byte	0x73
 7992 0482 00       		.sleb128 0
ARM GAS  C:\Users\student\AppData\Local\Temp\cc7xlRSM.s 			page 155


 7993 0483 21       		.byte	0x21
 7994 0484 9F       		.byte	0x9f
 7995 0485 0C020000 		.4byte	.LVL148
 7996 0489 0F020000 		.4byte	.LVL149-1
 7997 048d 0D00     		.2byte	0xd
 7998 048f 91       		.byte	0x91
 7999 0490 71       		.sleb128 -15
 8000 0491 94       		.byte	0x94
 8001 0492 01       		.byte	0x1
 8002 0493 08       		.byte	0x8
 8003 0494 FF       		.byte	0xff
 8004 0495 1A       		.byte	0x1a
 8005 0496 38       		.byte	0x38
 8006 0497 24       		.byte	0x24
 8007 0498 73       		.byte	0x73
 8008 0499 00       		.sleb128 0
 8009 049a 21       		.byte	0x21
 8010 049b 9F       		.byte	0x9f
 8011 049c 00000000 		.4byte	0
 8012 04a0 00000000 		.4byte	0
 8013              	.LLST32:
 8014 04a4 10000000 		.4byte	.LVL196
 8015 04a8 4A000000 		.4byte	.LVL210
 8016 04ac 0100     		.2byte	0x1
 8017 04ae 59       		.byte	0x59
 8018 04af 4A000000 		.4byte	.LVL210
 8019 04b3 9A000000 		.4byte	.LVL223
 8020 04b7 0100     		.2byte	0x1
 8021 04b9 54       		.byte	0x54
 8022 04ba 00000000 		.4byte	0
 8023 04be 00000000 		.4byte	0
 8024              	.LLST33:
 8025 04c2 18000000 		.4byte	.LVL197
 8026 04c6 5A000000 		.4byte	.LVL213
 8027 04ca 0100     		.2byte	0x1
 8028 04cc 57       		.byte	0x57
 8029 04cd 5A000000 		.4byte	.LVL213
 8030 04d1 60000000 		.4byte	.LVL214
 8031 04d5 0100     		.2byte	0x1
 8032 04d7 50       		.byte	0x50
 8033 04d8 00000000 		.4byte	0
 8034 04dc 00000000 		.4byte	0
 8035              	.LLST34:
 8036 04e0 22000000 		.4byte	.LVL199
 8037 04e4 24000000 		.4byte	.LVL200
 8038 04e8 0100     		.2byte	0x1
 8039 04ea 50       		.byte	0x50
 8040 04eb 24000000 		.4byte	.LVL200
 8041 04ef 9A000000 		.4byte	.LVL223
 8042 04f3 0100     		.2byte	0x1
 8043 04f5 56       		.byte	0x56
 8044 04f6 00000000 		.4byte	0
 8045 04fa 00000000 		.4byte	0
 8046              	.LLST35:
 8047 04fe 2C000000 		.4byte	.LVL202
 8048 0502 2E000000 		.4byte	.LVL203
 8049 0506 0100     		.2byte	0x1
ARM GAS  C:\Users\student\AppData\Local\Temp\cc7xlRSM.s 			page 156


 8050 0508 50       		.byte	0x50
 8051 0509 2E000000 		.4byte	.LVL203
 8052 050d 9A000000 		.4byte	.LVL223
 8053 0511 0100     		.2byte	0x1
 8054 0513 58       		.byte	0x58
 8055 0514 00000000 		.4byte	0
 8056 0518 00000000 		.4byte	0
 8057              	.LLST36:
 8058 051c 36000000 		.4byte	.LVL205
 8059 0520 3A000000 		.4byte	.LVL206
 8060 0524 0100     		.2byte	0x1
 8061 0526 50       		.byte	0x50
 8062 0527 3A000000 		.4byte	.LVL206
 8063 052b 9A000000 		.4byte	.LVL223
 8064 052f 0100     		.2byte	0x1
 8065 0531 55       		.byte	0x55
 8066 0532 00000000 		.4byte	0
 8067 0536 00000000 		.4byte	0
 8068              	.LLST37:
 8069 053a 72000000 		.4byte	.LVL217
 8070 053e 88000000 		.4byte	.LVL220
 8071 0542 0100     		.2byte	0x1
 8072 0544 50       		.byte	0x50
 8073 0545 88000000 		.4byte	.LVL220
 8074 0549 92000000 		.4byte	.LVL221
 8075 054d 0500     		.2byte	0x5
 8076 054f 70       		.byte	0x70
 8077 0550 808002   		.sleb128 32768
 8078 0553 9F       		.byte	0x9f
 8079 0554 00000000 		.4byte	0
 8080 0558 00000000 		.4byte	0
 8081              	.LLST38:
 8082 055c 88000000 		.4byte	.LVL220
 8083 0560 95000000 		.4byte	.LVL222-1
 8084 0564 0100     		.2byte	0x1
 8085 0566 50       		.byte	0x50
 8086 0567 00000000 		.4byte	0
 8087 056b 00000000 		.4byte	0
 8088              	.LLST39:
 8089 056f 22000000 		.4byte	.LVL224
 8090 0573 30000000 		.4byte	.LVL226
 8091 0577 0100     		.2byte	0x1
 8092 0579 52       		.byte	0x52
 8093 057a 00000000 		.4byte	0
 8094 057e 00000000 		.4byte	0
 8095              	.LLST40:
 8096 0582 00000000 		.4byte	.LVL229
 8097 0586 08000000 		.4byte	.LVL230
 8098 058a 0100     		.2byte	0x1
 8099 058c 50       		.byte	0x50
 8100 058d 08000000 		.4byte	.LVL230
 8101 0591 20000000 		.4byte	.LFE73
 8102 0595 0400     		.2byte	0x4
 8103 0597 F3       		.byte	0xf3
 8104 0598 01       		.uleb128 0x1
 8105 0599 50       		.byte	0x50
 8106 059a 9F       		.byte	0x9f
ARM GAS  C:\Users\student\AppData\Local\Temp\cc7xlRSM.s 			page 157


 8107 059b 00000000 		.4byte	0
 8108 059f 00000000 		.4byte	0
 8109              	.LLST41:
 8110 05a3 00000000 		.4byte	.LVL229
 8111 05a7 0A000000 		.4byte	.LVL231
 8112 05ab 0100     		.2byte	0x1
 8113 05ad 51       		.byte	0x51
 8114 05ae 0A000000 		.4byte	.LVL231
 8115 05b2 20000000 		.4byte	.LFE73
 8116 05b6 0400     		.2byte	0x4
 8117 05b8 F3       		.byte	0xf3
 8118 05b9 01       		.uleb128 0x1
 8119 05ba 51       		.byte	0x51
 8120 05bb 9F       		.byte	0x9f
 8121 05bc 00000000 		.4byte	0
 8122 05c0 00000000 		.4byte	0
 8123              	.LLST42:
 8124 05c4 E6000000 		.4byte	.LVL268
 8125 05c8 E8000000 		.4byte	.LVL269
 8126 05cc 0200     		.2byte	0x2
 8127 05ce 31       		.byte	0x31
 8128 05cf 9F       		.byte	0x9f
 8129 05d0 E8000000 		.4byte	.LVL269
 8130 05d4 8A010000 		.4byte	.LVL284
 8131 05d8 0100     		.2byte	0x1
 8132 05da 54       		.byte	0x54
 8133 05db A0010000 		.4byte	.LVL286
 8134 05df A4010000 		.4byte	.LVL287
 8135 05e3 0200     		.2byte	0x2
 8136 05e5 30       		.byte	0x30
 8137 05e6 9F       		.byte	0x9f
 8138 05e7 A4010000 		.4byte	.LVL287
 8139 05eb E0010000 		.4byte	.LFE74
 8140 05ef 0100     		.2byte	0x1
 8141 05f1 54       		.byte	0x54
 8142 05f2 00000000 		.4byte	0
 8143 05f6 00000000 		.4byte	0
 8144              	.LLST43:
 8145 05fa FE000000 		.4byte	.LVL270
 8146 05fe 16010000 		.4byte	.LVL272
 8147 0602 0200     		.2byte	0x2
 8148 0604 30       		.byte	0x30
 8149 0605 9F       		.byte	0x9f
 8150 0606 16010000 		.4byte	.LVL272
 8151 060a 18010000 		.4byte	.LVL273
 8152 060e 0100     		.2byte	0x1
 8153 0610 55       		.byte	0x55
 8154 0611 18010000 		.4byte	.LVL273
 8155 0615 1A010000 		.4byte	.LVL274
 8156 0619 0200     		.2byte	0x2
 8157 061b 30       		.byte	0x30
 8158 061c 9F       		.byte	0x9f
 8159 061d 1A010000 		.4byte	.LVL274
 8160 0621 E0010000 		.4byte	.LFE74
 8161 0625 0100     		.2byte	0x1
 8162 0627 55       		.byte	0x55
 8163 0628 00000000 		.4byte	0
ARM GAS  C:\Users\student\AppData\Local\Temp\cc7xlRSM.s 			page 158


 8164 062c 00000000 		.4byte	0
 8165              	.LLST44:
 8166 0630 FE000000 		.4byte	.LVL270
 8167 0634 32010000 		.4byte	.LVL276
 8168 0638 0200     		.2byte	0x2
 8169 063a 30       		.byte	0x30
 8170 063b 9F       		.byte	0x9f
 8171 063c 32010000 		.4byte	.LVL276
 8172 0640 34010000 		.4byte	.LVL277
 8173 0644 0100     		.2byte	0x1
 8174 0646 50       		.byte	0x50
 8175 0647 34010000 		.4byte	.LVL277
 8176 064b 36010000 		.4byte	.LVL278
 8177 064f 0200     		.2byte	0x2
 8178 0651 30       		.byte	0x30
 8179 0652 9F       		.byte	0x9f
 8180 0653 36010000 		.4byte	.LVL278
 8181 0657 60010000 		.4byte	.LVL279
 8182 065b 0100     		.2byte	0x1
 8183 065d 50       		.byte	0x50
 8184 065e 00000000 		.4byte	0
 8185 0662 00000000 		.4byte	0
 8186              		.section	.debug_aranges,"",%progbits
 8187 0000 74000000 		.4byte	0x74
 8188 0004 0200     		.2byte	0x2
 8189 0006 00000000 		.4byte	.Ldebug_info0
 8190 000a 04       		.byte	0x4
 8191 000b 00       		.byte	0
 8192 000c 0000     		.2byte	0
 8193 000e 0000     		.2byte	0
 8194 0010 00000000 		.4byte	.LFB71
 8195 0014 78000000 		.4byte	.LFE71-.LFB71
 8196 0018 00000000 		.4byte	.LFB72
 8197 001c CC000000 		.4byte	.LFE72-.LFB72
 8198 0020 00000000 		.4byte	.LFB63
 8199 0024 A4000000 		.4byte	.LFE63-.LFB63
 8200 0028 00000000 		.4byte	.LFB64
 8201 002c 38000000 		.4byte	.LFE64-.LFB64
 8202 0030 00000000 		.4byte	.LFB65
 8203 0034 E4000000 		.4byte	.LFE65-.LFB65
 8204 0038 00000000 		.4byte	.LFB66
 8205 003c 1C000000 		.4byte	.LFE66-.LFB66
 8206 0040 00000000 		.4byte	.LFB67
 8207 0044 50020000 		.4byte	.LFE67-.LFB67
 8208 0048 00000000 		.4byte	.LFB68
 8209 004c 6C020000 		.4byte	.LFE68-.LFB68
 8210 0050 00000000 		.4byte	.LFB69
 8211 0054 B4000000 		.4byte	.LFE69-.LFB69
 8212 0058 00000000 		.4byte	.LFB70
 8213 005c 44000000 		.4byte	.LFE70-.LFB70
 8214 0060 00000000 		.4byte	.LFB73
 8215 0064 20000000 		.4byte	.LFE73-.LFB73
 8216 0068 00000000 		.4byte	.LFB74
 8217 006c E0010000 		.4byte	.LFE74-.LFB74
 8218 0070 00000000 		.4byte	0
 8219 0074 00000000 		.4byte	0
 8220              		.section	.debug_ranges,"",%progbits
ARM GAS  C:\Users\student\AppData\Local\Temp\cc7xlRSM.s 			page 159


 8221              	.Ldebug_ranges0:
 8222 0000 00000000 		.4byte	.LFB71
 8223 0004 78000000 		.4byte	.LFE71
 8224 0008 00000000 		.4byte	.LFB72
 8225 000c CC000000 		.4byte	.LFE72
 8226 0010 00000000 		.4byte	.LFB63
 8227 0014 A4000000 		.4byte	.LFE63
 8228 0018 00000000 		.4byte	.LFB64
 8229 001c 38000000 		.4byte	.LFE64
 8230 0020 00000000 		.4byte	.LFB65
 8231 0024 E4000000 		.4byte	.LFE65
 8232 0028 00000000 		.4byte	.LFB66
 8233 002c 1C000000 		.4byte	.LFE66
 8234 0030 00000000 		.4byte	.LFB67
 8235 0034 50020000 		.4byte	.LFE67
 8236 0038 00000000 		.4byte	.LFB68
 8237 003c 6C020000 		.4byte	.LFE68
 8238 0040 00000000 		.4byte	.LFB69
 8239 0044 B4000000 		.4byte	.LFE69
 8240 0048 00000000 		.4byte	.LFB70
 8241 004c 44000000 		.4byte	.LFE70
 8242 0050 00000000 		.4byte	.LFB73
 8243 0054 20000000 		.4byte	.LFE73
 8244 0058 00000000 		.4byte	.LFB74
 8245 005c E0010000 		.4byte	.LFE74
 8246 0060 00000000 		.4byte	0
 8247 0064 00000000 		.4byte	0
 8248              		.section	.debug_line,"",%progbits
 8249              	.Ldebug_line0:
 8250 0000 6D050000 		.section	.debug_str,"MS",%progbits,1
 8250      02005403 
 8250      00000201 
 8250      FB0E0D00 
 8250      01010101 
 8251              	.LASF106:
 8252 0000 46696C74 		.ascii	"FilterType\000"
 8252      65725479 
 8252      706500
 8253              	.LASF25:
 8254 000b 73697A65 		.ascii	"size_t\000"
 8254      5F7400
 8255              	.LASF26:
 8256 0012 73697A65 		.ascii	"sizetype\000"
 8256      74797065 
 8256      00
 8257              	.LASF71:
 8258 001b 70616645 		.ascii	"pafEncode\000"
 8258      6E636F64 
 8258      6500
 8259              	.LASF255:
 8260 0025 6765745F 		.ascii	"get_adcs_isr_StartEx\000"
 8260      61646373 
 8260      5F697372 
 8260      5F537461 
 8260      72744578 
 8261              	.LASF121:
 8262 003a 73756D41 		.ascii	"sumAmplitude\000"
ARM GAS  C:\Users\student\AppData\Local\Temp\cc7xlRSM.s 			page 160


 8262      6D706C69 
 8262      74756465 
 8262      00
 8263              	.LASF49:
 8264 0047 4755495F 		.ascii	"GUI_FONT_PROP_EXT\000"
 8264      464F4E54 
 8264      5F50524F 
 8264      505F4558 
 8264      5400
 8265              	.LASF153:
 8266 0059 7364566F 		.ascii	"sdVolName\000"
 8266      6C4E616D 
 8266      6500
 8267              	.LASF16:
 8268 0063 696E7433 		.ascii	"int32_t\000"
 8268      325F7400 
 8269              	.LASF20:
 8270 006b 75696E74 		.ascii	"uint32\000"
 8270      333200
 8271              	.LASF156:
 8272 0072 66696C65 		.ascii	"fileString\000"
 8272      53747269 
 8272      6E6700
 8273              	.LASF188:
 8274 007d 6F766572 		.ascii	"overall_size\000"
 8274      616C6C5F 
 8274      73697A65 
 8274      00
 8275              	.LASF68:
 8276 008a 70664765 		.ascii	"pfGetFontInfo\000"
 8276      74466F6E 
 8276      74496E66 
 8276      6F00
 8277              	.LASF35:
 8278 0098 5853697A 		.ascii	"XSize\000"
 8278      6500
 8279              	.LASF243:
 8280 009e 41756469 		.ascii	"AudioTimer_Start\000"
 8280      6F54696D 
 8280      65725F53 
 8280      74617274 
 8280      00
 8281              	.LASF85:
 8282 00af 46535F56 		.ascii	"FS_VOLUME\000"
 8282      4F4C554D 
 8282      4500
 8283              	.LASF196:
 8284 00b9 766F6C75 		.ascii	"volumeControlCoef1\000"
 8284      6D65436F 
 8284      6E74726F 
 8284      6C436F65 
 8284      663100
 8285              	.LASF197:
 8286 00cc 766F6C75 		.ascii	"volumeControlCoef2\000"
 8286      6D65436F 
 8286      6E74726F 
 8286      6C436F65 
ARM GAS  C:\Users\student\AppData\Local\Temp\cc7xlRSM.s 			page 161


 8286      663200
 8287              	.LASF241:
 8288 00df 46535F55 		.ascii	"FS_Unmount\000"
 8288      6E6D6F75 
 8288      6E7400
 8289              	.LASF203:
 8290 00ea 67656546 		.ascii	"geeForce\000"
 8290      6F726365 
 8290      00
 8291              	.LASF185:
 8292 00f3 6C6F6164 		.ascii	"loadingBuffer2\000"
 8292      696E6742 
 8292      75666665 
 8292      723200
 8293              	.LASF161:
 8294 0102 746F7461 		.ascii	"totalVolumeControl\000"
 8294      6C566F6C 
 8294      756D6543 
 8294      6F6E7472 
 8294      6F6C00
 8295              	.LASF72:
 8296 0115 59446973 		.ascii	"YDist\000"
 8296      7400
 8297              	.LASF210:
 8298 011b 4755495F 		.ascii	"GUI_DispStringAt\000"
 8298      44697370 
 8298      53747269 
 8298      6E674174 
 8298      00
 8299              	.LASF4:
 8300 012c 5F5F7569 		.ascii	"__uint8_t\000"
 8300      6E74385F 
 8300      7400
 8301              	.LASF136:
 8302 0136 616C7068 		.ascii	"alpha\000"
 8302      6100
 8303              	.LASF178:
 8304 013c 61756469 		.ascii	"audioBuffer1\000"
 8304      6F427566 
 8304      66657231 
 8304      00
 8305              	.LASF179:
 8306 0149 61756469 		.ascii	"audioBuffer2\000"
 8306      6F427566 
 8306      66657232 
 8306      00
 8307              	.LASF180:
 8308 0156 61756469 		.ascii	"audioBuffer3\000"
 8308      6F427566 
 8308      66657233 
 8308      00
 8309              	.LASF181:
 8310 0163 61756469 		.ascii	"audioBuffer4\000"
 8310      6F427566 
 8310      66657234 
 8310      00
 8311              	.LASF231:
ARM GAS  C:\Users\student\AppData\Local\Temp\cc7xlRSM.s 			page 162


 8312 0170 46535F4D 		.ascii	"FS_Mount\000"
 8312      6F756E74 
 8312      00
 8313              	.LASF216:
 8314 0179 4144435F 		.ascii	"ADC_FlexSensor_R_StartConvert\000"
 8314      466C6578 
 8314      53656E73 
 8314      6F725F52 
 8314      5F537461 
 8315              	.LASF240:
 8316 0197 46535F46 		.ascii	"FS_FClose\000"
 8316      436C6F73 
 8316      6500
 8317              	.LASF81:
 8318 01a1 704D6F6E 		.ascii	"pMono\000"
 8318      6F00
 8319              	.LASF215:
 8320 01a7 4144435F 		.ascii	"ADC_FlexSensor_L_StartConvert\000"
 8320      466C6578 
 8320      53656E73 
 8320      6F725F4C 
 8320      5F537461 
 8321              	.LASF236:
 8322 01c5 41756469 		.ascii	"AudioTimer_ReadStatusRegister\000"
 8322      6F54696D 
 8322      65725F52 
 8322      65616453 
 8322      74617475 
 8323              	.LASF8:
 8324 01e3 6C6F6E67 		.ascii	"long int\000"
 8324      20696E74 
 8324      00
 8325              	.LASF157:
 8326 01ec 74657874 		.ascii	"textBuffer\000"
 8326      42756666 
 8326      657200
 8327              	.LASF233:
 8328 01f7 46535F46 		.ascii	"FS_FindClose\000"
 8328      696E6443 
 8328      6C6F7365 
 8328      00
 8329              	.LASF193:
 8330 0204 73776974 		.ascii	"switchBuffers\000"
 8330      63684275 
 8330      66666572 
 8330      7300
 8331              	.LASF169:
 8332 0212 6D61696E 		.ascii	"main\000"
 8332      00
 8333              	.LASF6:
 8334 0217 73686F72 		.ascii	"short unsigned int\000"
 8334      7420756E 
 8334      7369676E 
 8334      65642069 
 8334      6E7400
 8335              	.LASF93:
 8336 022a 6572726F 		.ascii	"error\000"
ARM GAS  C:\Users\student\AppData\Local\Temp\cc7xlRSM.s 			page 163


 8336      7200
 8337              	.LASF61:
 8338 0230 70664765 		.ascii	"pfGetLineDistX\000"
 8338      744C696E 
 8338      65446973 
 8338      745800
 8339              	.LASF46:
 8340 023f 70614368 		.ascii	"paCharInfo\000"
 8340      6172496E 
 8340      666F00
 8341              	.LASF133:
 8342 024a 61646A75 		.ascii	"adjustedSample\000"
 8342      73746564 
 8342      53616D70 
 8342      6C6500
 8343              	.LASF69:
 8344 0259 70664973 		.ascii	"pfIsInFont\000"
 8344      496E466F 
 8344      6E7400
 8345              	.LASF164:
 8346 0264 6D697865 		.ascii	"mixedSample\000"
 8346      6453616D 
 8346      706C6500 
 8347              	.LASF113:
 8348 0270 67657441 		.ascii	"getADCs\000"
 8348      44437300 
 8349              	.LASF1:
 8350 0278 7369676E 		.ascii	"signed char\000"
 8350      65642063 
 8350      68617200 
 8351              	.LASF14:
 8352 0284 75696E74 		.ascii	"uint8_t\000"
 8352      385F7400 
 8353              	.LASF154:
 8354 028c 66696C65 		.ascii	"filename\000"
 8354      6E616D65 
 8354      00
 8355              	.LASF251:
 8356 0295 474E5520 		.ascii	"GNU C 4.9.3 20150303 (release) [ARM/embedded-4_9-br"
 8356      4320342E 
 8356      392E3320 
 8356      32303135 
 8356      30333033 
 8357 02c8 616E6368 		.ascii	"anch revision 221220] -mcpu=cortex-m3 -mthumb -g -O"
 8357      20726576 
 8357      6973696F 
 8357      6E203232 
 8357      31323230 
 8358 02fb 67202D66 		.ascii	"g -ffunction-sections -ffat-lto-objects\000"
 8358      66756E63 
 8358      74696F6E 
 8358      2D736563 
 8358      74696F6E 
 8359              	.LASF126:
 8360 0323 6E756D53 		.ascii	"numSecs\000"
 8360      65637300 
 8361              	.LASF2:
ARM GAS  C:\Users\student\AppData\Local\Temp\cc7xlRSM.s 			page 164


 8362 032b 756E7369 		.ascii	"unsigned char\000"
 8362      676E6564 
 8362      20636861 
 8362      7200
 8363              	.LASF32:
 8364 0339 4C617374 		.ascii	"LastChar\000"
 8364      43686172 
 8364      00
 8365              	.LASF96:
 8366 0342 41747472 		.ascii	"Attributes\000"
 8366      69627574 
 8366      657300
 8367              	.LASF55:
 8368 034d 4C486569 		.ascii	"LHeight\000"
 8368      67687400 
 8369              	.LASF78:
 8370 0355 4755495F 		.ascii	"GUI_ISINFONT\000"
 8370      4953494E 
 8370      464F4E54 
 8370      00
 8371              	.LASF73:
 8372 0362 584D6167 		.ascii	"XMag\000"
 8372      00
 8373              	.LASF53:
 8374 0367 466C6167 		.ascii	"Flags\000"
 8374      7300
 8375              	.LASF23:
 8376 036d 63686172 		.ascii	"char\000"
 8376      00
 8377              	.LASF128:
 8378 0372 77696474 		.ascii	"widthOffset\000"
 8378      684F6666 
 8378      73657400 
 8379              	.LASF135:
 8380 037e 66696C74 		.ascii	"filterType\000"
 8380      65725479 
 8380      706500
 8381              	.LASF90:
 8382 0389 46535F44 		.ascii	"FS_DIR_POS\000"
 8382      49525F50 
 8382      4F5300
 8383              	.LASF36:
 8384 0394 58446973 		.ascii	"XDist\000"
 8384      7400
 8385              	.LASF173:
 8386 039a 70726576 		.ascii	"previousOutput\000"
 8386      696F7573 
 8386      4F757470 
 8386      757400
 8387              	.LASF137:
 8388 03a9 63757272 		.ascii	"currentInput\000"
 8388      656E7449 
 8388      6E707574 
 8388      00
 8389              	.LASF149:
 8390 03b6 626C6F63 		.ascii	"block_align\000"
 8390      6B5F616C 
ARM GAS  C:\Users\student\AppData\Local\Temp\cc7xlRSM.s 			page 165


 8390      69676E00 
 8391              	.LASF219:
 8392 03c2 4765745F 		.ascii	"Get_ADCs_Timer_ReadStatusRegister\000"
 8392      41444373 
 8392      5F54696D 
 8392      65725F52 
 8392      65616453 
 8393              	.LASF43:
 8394 03e4 4755495F 		.ascii	"GUI_CHARINFO_EXT\000"
 8394      43484152 
 8394      494E464F 
 8394      5F455854 
 8394      00
 8395              	.LASF227:
 8396 03f5 5F5F6275 		.ascii	"__builtin_strlen\000"
 8396      696C7469 
 8396      6E5F7374 
 8396      726C656E 
 8396      00
 8397              	.LASF5:
 8398 0406 5F5F7569 		.ascii	"__uint16_t\000"
 8398      6E743136 
 8398      5F7400
 8399              	.LASF29:
 8400 0411 4755495F 		.ascii	"GUI_COLOR\000"
 8400      434F4C4F 
 8400      5200
 8401              	.LASF82:
 8402 041b 7050726F 		.ascii	"pProp\000"
 8402      7000
 8403              	.LASF102:
 8404 0421 53697A65 		.ascii	"SizeofFileName\000"
 8404      6F664669 
 8404      6C654E61 
 8404      6D6500
 8405              	.LASF158:
 8406 0430 706C6179 		.ascii	"playAudio\000"
 8406      41756469 
 8406      6F00
 8407              	.LASF165:
 8408 043a 61756469 		.ascii	"audioTimerISRHandler\000"
 8408      6F54696D 
 8408      65724953 
 8408      5248616E 
 8408      646C6572 
 8409              	.LASF167:
 8410 044f 4D50555F 		.ascii	"MPU_ByteWriteL\000"
 8410      42797465 
 8410      57726974 
 8410      654C00
 8411              	.LASF31:
 8412 045e 46697273 		.ascii	"FirstChar\000"
 8412      74436861 
 8412      7200
 8413              	.LASF131:
 8414 0468 73616D70 		.ascii	"sample\000"
 8414      6C6500
ARM GAS  C:\Users\student\AppData\Local\Temp\cc7xlRSM.s 			page 166


 8415              	.LASF77:
 8416 046f 4755495F 		.ascii	"GUI_GETFONTINFO\000"
 8416      47455446 
 8416      4F4E5449 
 8416      4E464F00 
 8417              	.LASF41:
 8418 047f 58506F73 		.ascii	"XPos\000"
 8418      00
 8419              	.LASF30:
 8420 0484 4755495F 		.ascii	"GUI_FONT_TRANSLIST\000"
 8420      464F4E54 
 8420      5F545241 
 8420      4E534C49 
 8420      535400
 8421              	.LASF112:
 8422 0497 75706461 		.ascii	"updateSecondsTimer\000"
 8422      74655365 
 8422      636F6E64 
 8422      7354696D 
 8422      657200
 8423              	.LASF230:
 8424 04aa 46535F47 		.ascii	"FS_GetVolumeName\000"
 8424      6574566F 
 8424      6C756D65 
 8424      4E616D65 
 8424      00
 8425              	.LASF212:
 8426 04bb 4144435F 		.ascii	"ADC_FlexSensor_L_IsEndConversion\000"
 8426      466C6578 
 8426      53656E73 
 8426      6F725F4C 
 8426      5F497345 
 8427              	.LASF225:
 8428 04dc 46535F52 		.ascii	"FS_Read\000"
 8428      65616400 
 8429              	.LASF117:
 8430 04e4 62756666 		.ascii	"buffer\000"
 8430      657200
 8431              	.LASF246:
 8432 04eb 4144435F 		.ascii	"ADC_FlexSensor_L_Start\000"
 8432      466C6578 
 8432      53656E73 
 8432      6F725F4C 
 8432      5F537461 
 8433              	.LASF37:
 8434 0502 42797465 		.ascii	"BytesPerLine\000"
 8434      73506572 
 8434      4C696E65 
 8434      00
 8435              	.LASF239:
 8436 050f 4932435F 		.ascii	"I2C_MASTER_L_MasterSendStop\000"
 8436      4D415354 
 8436      45525F4C 
 8436      5F4D6173 
 8436      74657253 
 8437              	.LASF232:
 8438 052b 46535F46 		.ascii	"FS_FindFirstFile\000"
ARM GAS  C:\Users\student\AppData\Local\Temp\cc7xlRSM.s 			page 167


 8438      696E6446 
 8438      69727374 
 8438      46696C65 
 8438      00
 8439              	.LASF140:
 8440 053c 66696C65 		.ascii	"filePtr\000"
 8440      50747200 
 8441              	.LASF176:
 8442 0544 4755495F 		.ascii	"GUI_Font8x16\000"
 8442      466F6E74 
 8442      38783136 
 8442      00
 8443              	.LASF76:
 8444 0551 4755495F 		.ascii	"GUI_GETCHARDISTX\000"
 8444      47455443 
 8444      48415244 
 8444      49535458 
 8444      00
 8445              	.LASF34:
 8446 0562 4755495F 		.ascii	"GUI_FONT_TRANSINFO\000"
 8446      464F4E54 
 8446      5F545241 
 8446      4E53494E 
 8446      464F00
 8447              	.LASF207:
 8448 0575 7365636F 		.ascii	"secondsCount\000"
 8448      6E647343 
 8448      6F756E74 
 8448      00
 8449              	.LASF171:
 8450 0582 62797465 		.ascii	"bytesRead1\000"
 8450      73526561 
 8450      643100
 8451              	.LASF172:
 8452 058d 62797465 		.ascii	"bytesRead2\000"
 8452      73526561 
 8452      643200
 8453              	.LASF118:
 8454 0598 62756666 		.ascii	"bufferSize\000"
 8454      65725369 
 8454      7A6500
 8455              	.LASF217:
 8456 05a3 4144435F 		.ascii	"ADC_FlexSensor_R_IsEndConversion\000"
 8456      466C6578 
 8456      53656E73 
 8456      6F725F52 
 8456      5F497345 
 8457              	.LASF189:
 8458 05c4 61756469 		.ascii	"audioFile1\000"
 8458      6F46696C 
 8458      653100
 8459              	.LASF190:
 8460 05cf 61756469 		.ascii	"audioFile2\000"
 8460      6F46696C 
 8460      653200
 8461              	.LASF10:
 8462 05da 6C6F6E67 		.ascii	"long unsigned int\000"
ARM GAS  C:\Users\student\AppData\Local\Temp\cc7xlRSM.s 			page 168


 8462      20756E73 
 8462      69676E65 
 8462      6420696E 
 8462      7400
 8463              	.LASF98:
 8464 05ec 4C617374 		.ascii	"LastAccessTime\000"
 8464      41636365 
 8464      73735469 
 8464      6D6500
 8465              	.LASF237:
 8466 05fb 4932435F 		.ascii	"I2C_MASTER_L_MasterSendStart\000"
 8466      4D415354 
 8466      45525F4C 
 8466      5F4D6173 
 8466      74657253 
 8467              	.LASF39:
 8468 0618 4755495F 		.ascii	"GUI_CHARINFO\000"
 8468      43484152 
 8468      494E464F 
 8468      00
 8469              	.LASF208:
 8470 0625 74696D65 		.ascii	"timeString\000"
 8470      53747269 
 8470      6E6700
 8471              	.LASF192:
 8472 0630 6C6F6164 		.ascii	"loadingBufferFill\000"
 8472      696E6742 
 8472      75666665 
 8472      7246696C 
 8472      6C00
 8473              	.LASF142:
 8474 0642 62756666 		.ascii	"buffer2\000"
 8474      65723200 
 8475              	.LASF141:
 8476 064a 62756666 		.ascii	"buffer4\000"
 8476      65723400 
 8477              	.LASF198:
 8478 0652 766F6C75 		.ascii	"volumeControlString1\000"
 8478      6D65436F 
 8478      6E74726F 
 8478      6C537472 
 8478      696E6731 
 8479              	.LASF199:
 8480 0667 766F6C75 		.ascii	"volumeControlString2\000"
 8480      6D65436F 
 8480      6E74726F 
 8480      6C537472 
 8480      696E6732 
 8481              	.LASF211:
 8482 067c 73707269 		.ascii	"sprintf\000"
 8482      6E746600 
 8483              	.LASF234:
 8484 0684 46535F46 		.ascii	"FS_FOpen\000"
 8484      4F70656E 
 8484      00
 8485              	.LASF59:
 8486 068d 74475549 		.ascii	"tGUI_GetLineLen\000"
ARM GAS  C:\Users\student\AppData\Local\Temp\cc7xlRSM.s 			page 169


 8486      5F476574 
 8486      4C696E65 
 8486      4C656E00 
 8487              	.LASF91:
 8488 069d 44697250 		.ascii	"DirPos\000"
 8488      6F7300
 8489              	.LASF103:
 8490 06a4 46535F46 		.ascii	"FS_FIND_DATA\000"
 8490      494E445F 
 8490      44415441 
 8490      00
 8491              	.LASF95:
 8492 06b1 46535F5F 		.ascii	"FS__DIR\000"
 8492      44495200 
 8493              	.LASF9:
 8494 06b9 5F5F7569 		.ascii	"__uint32_t\000"
 8494      6E743332 
 8494      5F7400
 8495              	.LASF70:
 8496 06c4 70664765 		.ascii	"pfGetCharInfo\000"
 8496      74436861 
 8496      72496E66 
 8496      6F00
 8497              	.LASF11:
 8498 06d2 6C6F6E67 		.ascii	"long long int\000"
 8498      206C6F6E 
 8498      6720696E 
 8498      7400
 8499              	.LASF222:
 8500 06e0 4755495F 		.ascii	"GUI_Init\000"
 8500      496E6974 
 8500      00
 8501              	.LASF105:
 8502 06e9 46494C54 		.ascii	"FILTER_HIGH_PASS\000"
 8502      45525F48 
 8502      4947485F 
 8502      50415353 
 8502      00
 8503              	.LASF107:
 8504 06fa 54524143 		.ascii	"TRACK_1\000"
 8504      4B5F3100 
 8505              	.LASF108:
 8506 0702 54524143 		.ascii	"TRACK_2\000"
 8506      4B5F3200 
 8507              	.LASF22:
 8508 070a 646F7562 		.ascii	"double\000"
 8508      6C6500
 8509              	.LASF175:
 8510 0711 49544D5F 		.ascii	"ITM_RxBuffer\000"
 8510      52784275 
 8510      66666572 
 8510      00
 8511              	.LASF209:
 8512 071e 4755495F 		.ascii	"GUI_SetColor\000"
 8512      53657443 
 8512      6F6C6F72 
 8512      00
ARM GAS  C:\Users\student\AppData\Local\Temp\cc7xlRSM.s 			page 170


 8513              	.LASF13:
 8514 072b 756E7369 		.ascii	"unsigned int\000"
 8514      676E6564 
 8514      20696E74 
 8514      00
 8515              	.LASF139:
 8516 0738 72656164 		.ascii	"readWavHeader\000"
 8516      57617648 
 8516      65616465 
 8516      7200
 8517              	.LASF44:
 8518 0746 46697273 		.ascii	"First\000"
 8518      7400
 8519              	.LASF146:
 8520 074c 6368616E 		.ascii	"channels\000"
 8520      6E656C73 
 8520      00
 8521              	.LASF58:
 8522 0755 74475549 		.ascii	"tGUI_GetLineDistX\000"
 8522      5F476574 
 8522      4C696E65 
 8522      44697374 
 8522      5800
 8523              	.LASF205:
 8524 0767 72656374 		.ascii	"rectangleIndexTrackOne\000"
 8524      616E676C 
 8524      65496E64 
 8524      65785472 
 8524      61636B4F 
 8525              	.LASF66:
 8526 077e 70664469 		.ascii	"pfDispChar\000"
 8526      73704368 
 8526      617200
 8527              	.LASF223:
 8528 0789 4755495F 		.ascii	"GUI_Clear\000"
 8528      436C6561 
 8528      7200
 8529              	.LASF52:
 8530 0793 4755495F 		.ascii	"GUI_FONT_MONO\000"
 8530      464F4E54 
 8530      5F4D4F4E 
 8530      4F00
 8531              	.LASF110:
 8532 07a1 63757272 		.ascii	"currMin\000"
 8532      4D696E00 
 8533              	.LASF33:
 8534 07a9 704C6973 		.ascii	"pList\000"
 8534      7400
 8535              	.LASF152:
 8536 07af 496E6974 		.ascii	"InitializeAudioFile\000"
 8536      69616C69 
 8536      7A654175 
 8536      64696F46 
 8536      696C6500 
 8537              	.LASF60:
 8538 07c3 74474C5F 		.ascii	"tGL_DispLine\000"
 8538      44697370 
ARM GAS  C:\Users\student\AppData\Local\Temp\cc7xlRSM.s 			page 171


 8538      4C696E65 
 8538      00
 8539              	.LASF86:
 8540 07d0 436C7573 		.ascii	"Cluster\000"
 8540      74657200 
 8541              	.LASF159:
 8542 07d8 7369676E 		.ascii	"signedSample1\000"
 8542      65645361 
 8542      6D706C65 
 8542      3100
 8543              	.LASF160:
 8544 07e6 7369676E 		.ascii	"signedSample2\000"
 8544      65645361 
 8544      6D706C65 
 8544      3200
 8545              	.LASF87:
 8546 07f4 46697273 		.ascii	"FirstCluster\000"
 8546      74436C75 
 8546      73746572 
 8546      00
 8547              	.LASF235:
 8548 0801 5350494D 		.ascii	"SPIM_Audio_WriteTxData\000"
 8548      5F417564 
 8548      696F5F57 
 8548      72697465 
 8548      54784461 
 8549              	.LASF114:
 8550 0818 61646356 		.ascii	"adcValue1\000"
 8550      616C7565 
 8550      3100
 8551              	.LASF115:
 8552 0822 61646356 		.ascii	"adcValue2\000"
 8552      616C7565 
 8552      3200
 8553              	.LASF132:
 8554 082c 766F6C75 		.ascii	"volumeScale\000"
 8554      6D655363 
 8554      616C6500 
 8555              	.LASF27:
 8556 0838 6C6F6E67 		.ascii	"long double\000"
 8556      20646F75 
 8556      626C6500 
 8557              	.LASF138:
 8558 0844 63757272 		.ascii	"currentOutput\000"
 8558      656E744F 
 8558      75747075 
 8558      7400
 8559              	.LASF247:
 8560 0852 54696D65 		.ascii	"TimeStamp_Timer_Start\000"
 8560      5374616D 
 8560      705F5469 
 8560      6D65725F 
 8560      53746172 
 8561              	.LASF244:
 8562 0868 61756469 		.ascii	"audiotimer_isr_StartEx\000"
 8562      6F74696D 
 8562      65725F69 
ARM GAS  C:\Users\student\AppData\Local\Temp\cc7xlRSM.s 			page 172


 8562      73725F53 
 8562      74617274 
 8563              	.LASF248:
 8564 087f 4144435F 		.ascii	"ADC_FlexSensor_R_Start\000"
 8564      466C6578 
 8564      53656E73 
 8564      6F725F52 
 8564      5F537461 
 8565              	.LASF214:
 8566 0896 4144435F 		.ascii	"ADC_FlexSensor_L_GetResult16\000"
 8566      466C6578 
 8566      53656E73 
 8566      6F725F4C 
 8566      5F476574 
 8567              	.LASF111:
 8568 08b3 63757272 		.ascii	"currSec\000"
 8568      53656300 
 8569              	.LASF57:
 8570 08bb 4755495F 		.ascii	"GUI_FONTINFO\000"
 8570      464F4E54 
 8570      494E464F 
 8570      00
 8571              	.LASF24:
 8572 08c8 63796973 		.ascii	"cyisraddress\000"
 8572      72616464 
 8572      72657373 
 8572      00
 8573              	.LASF155:
 8574 08d5 72656374 		.ascii	"rectangleIndex\000"
 8574      616E676C 
 8574      65496E64 
 8574      657800
 8575              	.LASF12:
 8576 08e4 6C6F6E67 		.ascii	"long long unsigned int\000"
 8576      206C6F6E 
 8576      6720756E 
 8576      7369676E 
 8576      65642069 
 8577              	.LASF228:
 8578 08fb 43794465 		.ascii	"CyDelay\000"
 8578      6C617900 
 8579              	.LASF144:
 8580 0903 6C656E67 		.ascii	"length_of_fmt\000"
 8580      74685F6F 
 8580      665F666D 
 8580      7400
 8581              	.LASF15:
 8582 0911 75696E74 		.ascii	"uint16_t\000"
 8582      31365F74 
 8582      00
 8583              	.LASF162:
 8584 091a 7363616C 		.ascii	"scalingFactor1\000"
 8584      696E6746 
 8584      6163746F 
 8584      723100
 8585              	.LASF163:
 8586 0929 7363616C 		.ascii	"scalingFactor2\000"
ARM GAS  C:\Users\student\AppData\Local\Temp\cc7xlRSM.s 			page 173


 8586      696E6746 
 8586      6163746F 
 8586      723200
 8587              	.LASF200:
 8588 0938 746F7042 		.ascii	"topByte\000"
 8588      79746500 
 8589              	.LASF191:
 8590 0940 63757272 		.ascii	"currentBufferFill\000"
 8590      656E7442 
 8590      75666665 
 8590      7246696C 
 8590      6C00
 8591              	.LASF109:
 8592 0952 54726163 		.ascii	"TrackType\000"
 8592      6B547970 
 8592      6500
 8593              	.LASF75:
 8594 095c 4755495F 		.ascii	"GUI_DISPCHAR\000"
 8594      44495350 
 8594      43484152 
 8594      00
 8595              	.LASF148:
 8596 0969 62797465 		.ascii	"byte_rate\000"
 8596      5F726174 
 8596      6500
 8597              	.LASF28:
 8598 0973 4C43445F 		.ascii	"LCD_COLOR\000"
 8598      434F4C4F 
 8598      5200
 8599              	.LASF170:
 8600 097d 62756666 		.ascii	"bufferCount\000"
 8600      6572436F 
 8600      756E7400 
 8601              	.LASF249:
 8602 0989 74696D65 		.ascii	"timestamp_timer_isr_StartEx\000"
 8602      7374616D 
 8602      705F7469 
 8602      6D65725F 
 8602      6973725F 
 8603              	.LASF51:
 8604 09a5 70547261 		.ascii	"pTrans\000"
 8604      6E7300
 8605              	.LASF174:
 8606 09ac 70726576 		.ascii	"previousInput\000"
 8606      696F7573 
 8606      496E7075 
 8606      7400
 8607              	.LASF48:
 8608 09ba 4755495F 		.ascii	"GUI_FONT_PROP\000"
 8608      464F4E54 
 8608      5F50524F 
 8608      5000
 8609              	.LASF63:
 8610 09c8 70664469 		.ascii	"pfDispLine\000"
 8610      73704C69 
 8610      6E6500
 8611              	.LASF79:
ARM GAS  C:\Users\student\AppData\Local\Temp\cc7xlRSM.s 			page 174


 8612 09d3 4755495F 		.ascii	"GUI_GETCHARINFO\000"
 8612      47455443 
 8612      48415249 
 8612      4E464F00 
 8613              	.LASF220:
 8614 09e3 4755495F 		.ascii	"GUI_FillRect\000"
 8614      46696C6C 
 8614      52656374 
 8614      00
 8615              	.LASF129:
 8616 09f0 784D6964 		.ascii	"xMidpoint\000"
 8616      706F696E 
 8616      7400
 8617              	.LASF127:
 8618 09fa 62617257 		.ascii	"barWidth\000"
 8618      69647468 
 8618      00
 8619              	.LASF74:
 8620 0a03 594D6167 		.ascii	"YMag\000"
 8620      00
 8621              	.LASF104:
 8622 0a08 46494C54 		.ascii	"FILTER_LOW_PASS\000"
 8622      45525F4C 
 8622      4F575F50 
 8622      41535300 
 8623              	.LASF116:
 8624 0a18 44697370 		.ascii	"DisplayAmplitudeBar\000"
 8624      6C617941 
 8624      6D706C69 
 8624      74756465 
 8624      42617200 
 8625              	.LASF94:
 8626 0a2c 496E5573 		.ascii	"InUse\000"
 8626      6500
 8627              	.LASF62:
 8628 0a32 70664765 		.ascii	"pfGetLineLen\000"
 8628      744C696E 
 8628      654C656E 
 8628      00
 8629              	.LASF56:
 8630 0a3f 43486569 		.ascii	"CHeight\000"
 8630      67687400 
 8631              	.LASF119:
 8632 0a47 74726163 		.ascii	"trackType\000"
 8632      6B547970 
 8632      6500
 8633              	.LASF194:
 8634 0a51 66696C65 		.ascii	"fileEnd1\000"
 8634      456E6431 
 8634      00
 8635              	.LASF195:
 8636 0a5a 66696C65 		.ascii	"fileEnd2\000"
 8636      456E6432 
 8636      00
 8637              	.LASF143:
 8638 0a63 64656275 		.ascii	"debugString\000"
 8638      67537472 
ARM GAS  C:\Users\student\AppData\Local\Temp\cc7xlRSM.s 			page 175


 8638      696E6700 
 8639              	.LASF134:
 8640 0a6f 6170706C 		.ascii	"applyFilter\000"
 8640      7946696C 
 8640      74657200 
 8641              	.LASF18:
 8642 0a7b 75696E74 		.ascii	"uint8\000"
 8642      3800
 8643              	.LASF120:
 8644 0a81 73616D70 		.ascii	"samplesPerSecond\000"
 8644      6C657350 
 8644      65725365 
 8644      636F6E64 
 8644      00
 8645              	.LASF168:
 8646 0a92 62797465 		.ascii	"byte\000"
 8646      00
 8647              	.LASF89:
 8648 0a97 436C7573 		.ascii	"ClusterIndex\000"
 8648      74657249 
 8648      6E646578 
 8648      00
 8649              	.LASF3:
 8650 0aa4 73686F72 		.ascii	"short int\000"
 8650      7420696E 
 8650      7400
 8651              	.LASF150:
 8652 0aae 62697473 		.ascii	"bits_per_sample\000"
 8652      5F706572 
 8652      5F73616D 
 8652      706C6500 
 8653              	.LASF64:
 8654 0abe 74475549 		.ascii	"tGUI_ENC_APIList\000"
 8654      5F454E43 
 8654      5F415049 
 8654      4C697374 
 8654      00
 8655              	.LASF218:
 8656 0acf 4144435F 		.ascii	"ADC_FlexSensor_R_GetResult16\000"
 8656      466C6578 
 8656      53656E73 
 8656      6F725F52 
 8656      5F476574 
 8657              	.LASF122:
 8658 0aec 77617665 		.ascii	"waveformHeight\000"
 8658      666F726D 
 8658      48656967 
 8658      687400
 8659              	.LASF245:
 8660 0afb 4765745F 		.ascii	"Get_ADCs_Timer_Start\000"
 8660      41444373 
 8660      5F54696D 
 8660      65725F53 
 8660      74617274 
 8661              	.LASF65:
 8662 0b10 4755495F 		.ascii	"GUI_FONT\000"
 8662      464F4E54 
ARM GAS  C:\Users\student\AppData\Local\Temp\cc7xlRSM.s 			page 176


 8662      00
 8663              	.LASF184:
 8664 0b19 63757272 		.ascii	"currentBuffer2\000"
 8664      656E7442 
 8664      75666665 
 8664      723200
 8665              	.LASF45:
 8666 0b28 4C617374 		.ascii	"Last\000"
 8666      00
 8667              	.LASF101:
 8668 0b2d 7346696C 		.ascii	"sFileName\000"
 8668      654E616D 
 8668      6500
 8669              	.LASF130:
 8670 0b37 61646A75 		.ascii	"adjustVolume\000"
 8670      7374566F 
 8670      6C756D65 
 8670      00
 8671              	.LASF42:
 8672 0b44 59506F73 		.ascii	"YPos\000"
 8672      00
 8673              	.LASF83:
 8674 0b49 7050726F 		.ascii	"pPropExt\000"
 8674      70457874 
 8674      00
 8675              	.LASF92:
 8676 0b52 70566F6C 		.ascii	"pVolume\000"
 8676      756D6500 
 8677              	.LASF254:
 8678 0b5a 7374726C 		.ascii	"strlen\000"
 8678      656E00
 8679              	.LASF21:
 8680 0b61 696E7431 		.ascii	"int16\000"
 8680      3600
 8681              	.LASF80:
 8682 0b67 70466F6E 		.ascii	"pFontData\000"
 8682      74446174 
 8682      6100
 8683              	.LASF147:
 8684 0b71 73616D70 		.ascii	"sample_rate\000"
 8684      6C655F72 
 8684      61746500 
 8685              	.LASF67:
 8686 0b7d 70664765 		.ascii	"pfGetCharDistX\000"
 8686      74436861 
 8686      72446973 
 8686      745800
 8687              	.LASF54:
 8688 0b8c 42617365 		.ascii	"Baseline\000"
 8688      6C696E65 
 8688      00
 8689              	.LASF224:
 8690 0b95 4755495F 		.ascii	"GUI_SetFont\000"
 8690      53657446 
 8690      6F6E7400 
 8691              	.LASF151:
 8692 0ba1 4755495F 		.ascii	"GUI_Initialize\000"
ARM GAS  C:\Users\student\AppData\Local\Temp\cc7xlRSM.s 			page 177


 8692      496E6974 
 8692      69616C69 
 8692      7A6500
 8693              	.LASF206:
 8694 0bb0 72656374 		.ascii	"rectangleIndexTrackTwo\000"
 8694      616E676C 
 8694      65496E64 
 8694      65785472 
 8694      61636B54 
 8695              	.LASF145:
 8696 0bc7 666F726D 		.ascii	"format_type\000"
 8696      61745F74 
 8696      79706500 
 8697              	.LASF229:
 8698 0bd3 46535F49 		.ascii	"FS_Init\000"
 8698      6E697400 
 8699              	.LASF17:
 8700 0bdb 75696E74 		.ascii	"uint32_t\000"
 8700      33325F74 
 8700      00
 8701              	.LASF186:
 8702 0be4 66696C65 		.ascii	"file1\000"
 8702      3100
 8703              	.LASF187:
 8704 0bea 66696C65 		.ascii	"file2\000"
 8704      3200
 8705              	.LASF204:
 8706 0bf0 6D707553 		.ascii	"mpuString1\000"
 8706      7472696E 
 8706      673100
 8707              	.LASF40:
 8708 0bfb 5953697A 		.ascii	"YSize\000"
 8708      6500
 8709              	.LASF99:
 8710 0c01 4C617374 		.ascii	"LastWriteTime\000"
 8710      57726974 
 8710      6554696D 
 8710      6500
 8711              	.LASF252:
 8712 0c0f 2E5C6D61 		.ascii	".\\main.c\000"
 8712      696E2E63 
 8712      00
 8713              	.LASF226:
 8714 0c18 73747263 		.ascii	"strcat\000"
 8714      617400
 8715              	.LASF0:
 8716 0c1f 666C6F61 		.ascii	"float\000"
 8716      7400
 8717              	.LASF50:
 8718 0c25 70547261 		.ascii	"pTransData\000"
 8718      6E734461 
 8718      746100
 8719              	.LASF250:
 8720 0c30 4932435F 		.ascii	"I2C_MASTER_L_Start\000"
 8720      4D415354 
 8720      45525F4C 
 8720      5F537461 
ARM GAS  C:\Users\student\AppData\Local\Temp\cc7xlRSM.s 			page 178


 8720      727400
 8721              	.LASF221:
 8722 0c43 5350494D 		.ascii	"SPIM_TFT_Start\000"
 8722      5F544654 
 8722      5F537461 
 8722      727400
 8723              	.LASF123:
 8724 0c52 77617665 		.ascii	"waveformWidth\000"
 8724      666F726D 
 8724      57696474 
 8724      6800
 8725              	.LASF124:
 8726 0c60 61766741 		.ascii	"avgAmplitude\000"
 8726      6D706C69 
 8726      74756465 
 8726      00
 8727              	.LASF202:
 8728 0c6d 636F6D62 		.ascii	"combinedData\000"
 8728      696E6564 
 8728      44617461 
 8728      00
 8729              	.LASF84:
 8730 0c7a 46535F46 		.ascii	"FS_FILE\000"
 8730      494C4500 
 8731              	.LASF183:
 8732 0c82 6C6F6164 		.ascii	"loadingBuffer1\000"
 8732      696E6742 
 8732      75666665 
 8732      723100
 8733              	.LASF177:
 8734 0c91 61756469 		.ascii	"audioSampleIndex\000"
 8734      6F53616D 
 8734      706C6549 
 8734      6E646578 
 8734      00
 8735              	.LASF88:
 8736 0ca2 44697245 		.ascii	"DirEntryIndex\000"
 8736      6E747279 
 8736      496E6465 
 8736      7800
 8737              	.LASF7:
 8738 0cb0 5F5F696E 		.ascii	"__int32_t\000"
 8738      7433325F 
 8738      7400
 8739              	.LASF253:
 8740 0cba 443A5C46 		.ascii	"D:\\FP\\LiamKovid\\KovidKonsole.cydsn\000"
 8740      505C4C69 
 8740      616D4B6F 
 8740      7669645C 
 8740      4B6F7669 
 8741              	.LASF100:
 8742 0cdd 46696C65 		.ascii	"FileSize\000"
 8742      53697A65 
 8742      00
 8743              	.LASF125:
 8744 0ce6 62617248 		.ascii	"barHeight\000"
 8744      65696768 
ARM GAS  C:\Users\student\AppData\Local\Temp\cc7xlRSM.s 			page 179


 8744      7400
 8745              	.LASF182:
 8746 0cf0 63757272 		.ascii	"currentBuffer1\000"
 8746      656E7442 
 8746      75666665 
 8746      723100
 8747              	.LASF166:
 8748 0cff 74656D70 		.ascii	"temp\000"
 8748      00
 8749              	.LASF47:
 8750 0d04 704E6578 		.ascii	"pNext\000"
 8750      7400
 8751              	.LASF38:
 8752 0d0a 70446174 		.ascii	"pData\000"
 8752      6100
 8753              	.LASF213:
 8754 0d10 54696D65 		.ascii	"TimeStamp_Timer_ReadStatusRegister\000"
 8754      5374616D 
 8754      705F5469 
 8754      6D65725F 
 8754      52656164 
 8755              	.LASF242:
 8756 0d33 5350494D 		.ascii	"SPIM_Audio_Start\000"
 8756      5F417564 
 8756      696F5F53 
 8756      74617274 
 8756      00
 8757              	.LASF19:
 8758 0d44 75696E74 		.ascii	"uint16\000"
 8758      313600
 8759              	.LASF97:
 8760 0d4b 43726561 		.ascii	"CreationTime\000"
 8760      74696F6E 
 8760      54696D65 
 8760      00
 8761              	.LASF238:
 8762 0d58 4932435F 		.ascii	"I2C_MASTER_L_MasterWriteByte\000"
 8762      4D415354 
 8762      45525F4C 
 8762      5F4D6173 
 8762      74657257 
 8763              	.LASF201:
 8764 0d75 626F7474 		.ascii	"bottomByte\000"
 8764      6F6D4279 
 8764      746500
 8765              		.ident	"GCC: (GNU Tools for ARM Embedded Processors) 4.9.3 20150303 (release) [ARM/embedded-4_9-br
